ARM GAS  C:\Users\Runeg\AppData\Local\Temp\ccolw6td.s 			page 1


   1              		.syntax unified
   2              		.cpu cortex-m3
   3              		.fpu softvfp
   4              		.eabi_attribute 20, 1
   5              		.eabi_attribute 21, 1
   6              		.eabi_attribute 23, 3
   7              		.eabi_attribute 24, 1
   8              		.eabi_attribute 25, 1
   9              		.eabi_attribute 26, 1
  10              		.eabi_attribute 30, 1
  11              		.eabi_attribute 34, 1
  12              		.eabi_attribute 18, 4
  13              		.thumb
  14              		.syntax unified
  15              		.file	"main.c"
  16              		.text
  17              	.Ltext0:
  18              		.cfi_sections	.debug_frame
  19              		.global	__aeabi_i2d
  20              		.global	__aeabi_ddiv
  21              		.global	__aeabi_dsub
  22              		.section	.text.main,"ax",%progbits
  23              		.align	2
  24              		.global	main
  25              		.thumb
  26              		.thumb_func
  27              		.type	main, %function
  28              	main:
  29              	.LFB64:
  30              		.file 1 "main.c"
   1:main.c        **** /* ========================================
   2:main.c        ****  *
   3:main.c        ****  * Copyright YOUR COMPANY, THE YEAR
   4:main.c        ****  * All Rights Reserved
   5:main.c        ****  * UNPUBLISHED, LICENSED SOFTWARE.
   6:main.c        ****  *
   7:main.c        ****  * CONFIDENTIAL AND PROPRIETARY INFORMATION
   8:main.c        ****  * WHICH IS THE PROPERTY OF your company.
   9:main.c        ****  *
  10:main.c        ****  * ========================================
  11:main.c        **** */
  12:main.c        **** #include "project.h"
  13:main.c        **** #include <stdio.h>
  14:main.c        **** 
  15:main.c        **** CY_ISR_PROTO(ISR_UART_rx_handler);
  16:main.c        **** void handleByteReceived(uint8_t byteReceived);
  17:main.c        **** 
  18:main.c        **** int offset_weight1 = 374;
  19:main.c        **** float64 divider_weight1 = 1201.3;
  20:main.c        **** int offset_weight2 = 316;
  21:main.c        **** float64 divider_weight2 = 1841.3;
  22:main.c        **** float64 tara_weight1 = 0;
  23:main.c        **** float64 tara_weight2 = 0;
  24:main.c        **** float64 result = 0;
  25:main.c        **** int weight = 1;
  26:main.c        **** 
  27:main.c        **** int main(void)
ARM GAS  C:\Users\Runeg\AppData\Local\Temp\ccolw6td.s 			page 2


  28:main.c        **** {
  31              		.loc 1 28 0
  32              		.cfi_startproc
  33              		@ args = 0, pretend = 0, frame = 256
  34              		@ frame_needed = 0, uses_anonymous_args = 0
  35 0000 70B5     		push	{r4, r5, r6, lr}
  36              		.cfi_def_cfa_offset 16
  37              		.cfi_offset 4, -16
  38              		.cfi_offset 5, -12
  39              		.cfi_offset 6, -8
  40              		.cfi_offset 14, -4
  41 0002 C2B0     		sub	sp, sp, #264
  42              		.cfi_def_cfa_offset 280
  29:main.c        ****     CyGlobalIntEnable; /* Enable global interrupts. */
  43              		.loc 1 29 0
  44              		.syntax unified
  45              	@ 29 "main.c" 1
  46 0004 62B6     		CPSIE   i
  47              	@ 0 "" 2
  30:main.c        ****     char uartBuffer[256];
  31:main.c        ****     AMux_1_Init();
  48              		.loc 1 31 0
  49              		.thumb
  50              		.syntax unified
  51 0006 FFF7FEFF 		bl	AMux_1_Start
  52              	.LVL0:
  32:main.c        **** 
  33:main.c        ****     /* Place your initialization/startup code here (e.g. MyInst_Start()) */
  34:main.c        ****     isr_uart_rx_StartEx(ISR_UART_rx_handler);
  53              		.loc 1 34 0
  54 000a 3848     		ldr	r0, .L9
  55 000c FFF7FEFF 		bl	isr_uart_rx_StartEx
  56              	.LVL1:
  35:main.c        ****     UART_1_Start();
  57              		.loc 1 35 0
  58 0010 FFF7FEFF 		bl	UART_1_Start
  59              	.LVL2:
  36:main.c        ****     ADC_SAR_1_Start();
  60              		.loc 1 36 0
  61 0014 FFF7FEFF 		bl	ADC_SAR_1_Start
  62              	.LVL3:
  37:main.c        ****     ADC_SAR_1_StartConvert();
  63              		.loc 1 37 0
  64 0018 FFF7FEFF 		bl	ADC_SAR_1_StartConvert
  65              	.LVL4:
  38:main.c        ****     
  39:main.c        ****     // Start explaining program
  40:main.c        ****     UART_1_PutString("Scale application started\r\n");
  66              		.loc 1 40 0
  67 001c 3448     		ldr	r0, .L9+4
  68 001e FFF7FEFF 		bl	UART_1_PutString
  69              	.LVL5:
  41:main.c        ****     UART_1_PutString("q: Remove tara\r\n");
  70              		.loc 1 41 0
  71 0022 3448     		ldr	r0, .L9+8
  72 0024 FFF7FEFF 		bl	UART_1_PutString
  73              	.LVL6:
ARM GAS  C:\Users\Runeg\AppData\Local\Temp\ccolw6td.s 			page 3


  42:main.c        ****     UART_1_PutString("w: Tara\r\n");
  74              		.loc 1 42 0
  75 0028 3348     		ldr	r0, .L9+12
  76 002a FFF7FEFF 		bl	UART_1_PutString
  77              	.LVL7:
  43:main.c        ****     UART_1_PutString("1 or 2: Weight select\r\n");
  78              		.loc 1 43 0
  79 002e 3348     		ldr	r0, .L9+16
  80 0030 FFF7FEFF 		bl	UART_1_PutString
  81              	.LVL8:
  82              	.L6:
  83              	.LBB2:
  84              	.LBB3:
  44:main.c        **** 
  45:main.c        ****     for(;;)
  46:main.c        ****     {
  47:main.c        ****         uint16_t sum = 0; //Initialize sum
  48:main.c        ****         /* Place your application code here. */
  49:main.c        ****         for(size_t i = 0; i < 9; i++) //9 ADC messurements are summed up with 0.1 s dalay between
  85              		.loc 1 49 0
  86 0034 0024     		movs	r4, #0
  87              	.LBE3:
  47:main.c        ****         /* Place your application code here. */
  88              		.loc 1 47 0
  89 0036 2546     		mov	r5, r4
  90              	.LBB4:
  91              		.loc 1 49 0
  92 0038 0BE0     		b	.L2
  93              	.LVL9:
  94              	.L4:
  50:main.c        ****         {
  51:main.c        ****             if (ADC_SAR_1_IsEndConversion(ADC_SAR_1_WAIT_FOR_RESULT))
  95              		.loc 1 51 0
  96 003a 0020     		movs	r0, #0
  97 003c FFF7FEFF 		bl	ADC_SAR_1_IsEndConversion
  98              	.LVL10:
  99 0040 18B1     		cbz	r0, .L3
  52:main.c        ****             {
  53:main.c        ****                 sum += ADC_SAR_1_GetResult16();
 100              		.loc 1 53 0
 101 0042 FFF7FEFF 		bl	ADC_SAR_1_GetResult16
 102              	.LVL11:
 103 0046 2844     		add	r0, r0, r5
 104 0048 85B2     		uxth	r5, r0
 105              	.LVL12:
 106              	.L3:
  54:main.c        ****             }
  55:main.c        ****             CyDelay(100);
 107              		.loc 1 55 0 discriminator 2
 108 004a 6420     		movs	r0, #100
 109 004c FFF7FEFF 		bl	CyDelay
 110              	.LVL13:
  49:main.c        ****         {
 111              		.loc 1 49 0 discriminator 2
 112 0050 0134     		adds	r4, r4, #1
 113              	.LVL14:
 114              	.L2:
ARM GAS  C:\Users\Runeg\AppData\Local\Temp\ccolw6td.s 			page 4


  49:main.c        ****         {
 115              		.loc 1 49 0 is_stmt 0 discriminator 1
 116 0052 082C     		cmp	r4, #8
 117 0054 F1D9     		bls	.L4
 118              	.LBE4:
  56:main.c        ****         }
  57:main.c        ****         
  58:main.c        ****         /*result = sum/9; // The ADC sum is converted to a kg result.
  59:main.c        ****         snprintf(uartBuffer, sizeof(uartBuffer), "ADC result: %.3f\r\n", result); //String is creat
  60:main.c        ****         UART_1_PutString(uartBuffer); //String is sent through UART*/
  61:main.c        ****         
  62:main.c        ****         if (weight == 1)
 119              		.loc 1 62 0 is_stmt 1
 120 0056 2A4B     		ldr	r3, .L9+20
 121 0058 1C68     		ldr	r4, [r3]
 122              	.LVL15:
 123 005a 012C     		cmp	r4, #1
 124 005c 20D1     		bne	.L5
  63:main.c        ****         {
  64:main.c        ****         result = ((sum/9 - offset_weight1)/divider_weight1 - tara_weight1); // The ADC sum is conve
 125              		.loc 1 64 0
 126 005e 294B     		ldr	r3, .L9+24
 127 0060 A3FB0523 		umull	r2, r3, r3, r5
 128 0064 C3F34F03 		ubfx	r3, r3, #1, #16
 129 0068 254E     		ldr	r6, .L9+20
 130 006a 7068     		ldr	r0, [r6, #4]
 131 006c 181A     		subs	r0, r3, r0
 132 006e FFF7FEFF 		bl	__aeabi_i2d
 133              	.LVL16:
 134 0072 D6E90223 		ldrd	r2, [r6, #8]
 135 0076 FFF7FEFF 		bl	__aeabi_ddiv
 136              	.LVL17:
 137 007a 234E     		ldr	r6, .L9+28
 138 007c D6E90023 		ldrd	r2, [r6]
 139 0080 FFF7FEFF 		bl	__aeabi_dsub
 140              	.LVL18:
 141 0084 C6E90201 		strd	r0, [r6, #8]
  65:main.c        ****         snprintf(uartBuffer, sizeof(uartBuffer), "ADC result for weight %d: %.3f kg\r\n", weight ,r
 142              		.loc 1 65 0
 143 0088 CDE90001 		strd	r0, [sp]
 144 008c 2346     		mov	r3, r4
 145 008e 1F4A     		ldr	r2, .L9+32
 146 0090 4FF48071 		mov	r1, #256
 147 0094 02A8     		add	r0, sp, #8
 148 0096 FFF7FEFF 		bl	snprintf
 149              	.LVL19:
  66:main.c        ****         UART_1_PutString(uartBuffer); //String is sent through UART
 150              		.loc 1 66 0
 151 009a 02A8     		add	r0, sp, #8
 152 009c FFF7FEFF 		bl	UART_1_PutString
 153              	.LVL20:
 154              	.L5:
  67:main.c        ****         }
  68:main.c        ****         
  69:main.c        ****         if (weight == 2)
 155              		.loc 1 69 0
 156 00a0 174B     		ldr	r3, .L9+20
ARM GAS  C:\Users\Runeg\AppData\Local\Temp\ccolw6td.s 			page 5


 157 00a2 1C68     		ldr	r4, [r3]
 158 00a4 022C     		cmp	r4, #2
 159 00a6 C5D1     		bne	.L6
  70:main.c        ****         {
  71:main.c        ****             result = ((sum/9 - offset_weight1)/divider_weight1 - tara_weight1); // The ADC sum is c
 160              		.loc 1 71 0
 161 00a8 164B     		ldr	r3, .L9+24
 162 00aa A3FB0523 		umull	r2, r3, r3, r5
 163 00ae C3F34F03 		ubfx	r3, r3, #1, #16
 164 00b2 134D     		ldr	r5, .L9+20
 165              	.LVL21:
 166 00b4 6868     		ldr	r0, [r5, #4]
 167 00b6 181A     		subs	r0, r3, r0
 168 00b8 FFF7FEFF 		bl	__aeabi_i2d
 169              	.LVL22:
 170 00bc D5E90223 		ldrd	r2, [r5, #8]
 171 00c0 FFF7FEFF 		bl	__aeabi_ddiv
 172              	.LVL23:
 173 00c4 104D     		ldr	r5, .L9+28
 174 00c6 D5E90023 		ldrd	r2, [r5]
 175 00ca FFF7FEFF 		bl	__aeabi_dsub
 176              	.LVL24:
 177 00ce C5E90201 		strd	r0, [r5, #8]
  72:main.c        ****             snprintf(uartBuffer, sizeof(uartBuffer), "ADC result for weight %d: %.3f kg\r\n", weigh
 178              		.loc 1 72 0
 179 00d2 CDE90001 		strd	r0, [sp]
 180 00d6 2346     		mov	r3, r4
 181 00d8 0C4A     		ldr	r2, .L9+32
 182 00da 4FF48071 		mov	r1, #256
 183 00de 02A8     		add	r0, sp, #8
 184 00e0 FFF7FEFF 		bl	snprintf
 185              	.LVL25:
  73:main.c        ****             UART_1_PutString(uartBuffer); //String is sent through UART
 186              		.loc 1 73 0
 187 00e4 02A8     		add	r0, sp, #8
 188 00e6 FFF7FEFF 		bl	UART_1_PutString
 189              	.LVL26:
 190 00ea A3E7     		b	.L6
 191              	.L10:
 192              		.align	2
 193              	.L9:
 194 00ec 00000000 		.word	ISR_UART_rx_handler
 195 00f0 00000000 		.word	.LC0
 196 00f4 1C000000 		.word	.LC1
 197 00f8 30000000 		.word	.LC2
 198 00fc 3C000000 		.word	.LC3
 199 0100 00000000 		.word	.LANCHOR0
 200 0104 398EE338 		.word	954437177
 201 0108 00000000 		.word	.LANCHOR1
 202 010c 54000000 		.word	.LC4
 203              	.LBE2:
 204              		.cfi_endproc
 205              	.LFE64:
 206              		.size	main, .-main
 207              		.global	__aeabi_dadd
 208              		.section	.text.handleByteReceived,"ax",%progbits
 209              		.align	2
ARM GAS  C:\Users\Runeg\AppData\Local\Temp\ccolw6td.s 			page 6


 210              		.global	handleByteReceived
 211              		.thumb
 212              		.thumb_func
 213              		.type	handleByteReceived, %function
 214              	handleByteReceived:
 215              	.LFB66:
  74:main.c        ****         }
  75:main.c        ****     }
  76:main.c        **** }
  77:main.c        **** 
  78:main.c        **** CY_ISR(ISR_UART_rx_handler)
  79:main.c        **** {
  80:main.c        ****     uint8_t bytesToRead = UART_1_GetRxBufferSize();
  81:main.c        ****     while (bytesToRead > 0)
  82:main.c        ****     {
  83:main.c        ****         uint8_t byteReceived = UART_1_ReadRxData();
  84:main.c        ****         UART_1_WriteTxData(byteReceived); // echo back
  85:main.c        ****         
  86:main.c        ****         handleByteReceived(byteReceived);
  87:main.c        ****         
  88:main.c        ****         bytesToRead--;
  89:main.c        ****     }
  90:main.c        **** }
  91:main.c        **** 
  92:main.c        **** void handleByteReceived(uint8_t byteReceived)
  93:main.c        **** {
 216              		.loc 1 93 0
 217              		.cfi_startproc
 218              		@ args = 0, pretend = 0, frame = 0
 219              		@ frame_needed = 0, uses_anonymous_args = 0
 220              	.LVL27:
 221 0000 38B5     		push	{r3, r4, r5, lr}
 222              		.cfi_def_cfa_offset 16
 223              		.cfi_offset 3, -16
 224              		.cfi_offset 4, -12
 225              		.cfi_offset 5, -8
 226              		.cfi_offset 14, -4
  94:main.c        ****     switch(byteReceived)
 227              		.loc 1 94 0
 228 0002 3228     		cmp	r0, #50
 229 0004 20D0     		beq	.L13
 230 0006 02D8     		bhi	.L14
 231 0008 3128     		cmp	r0, #49
 232 000a 16D0     		beq	.L15
 233 000c 38BD     		pop	{r3, r4, r5, pc}
 234              	.L14:
 235 000e 7128     		cmp	r0, #113
 236 0010 02D0     		beq	.L16
 237 0012 7728     		cmp	r0, #119
 238 0014 1FD0     		beq	.L17
 239 0016 38BD     		pop	{r3, r4, r5, pc}
 240              	.L16:
  95:main.c        ****     {
  96:main.c        ****         case 'q' :
  97:main.c        ****         {
  98:main.c        ****             if (weight == 1)
 241              		.loc 1 98 0
ARM GAS  C:\Users\Runeg\AppData\Local\Temp\ccolw6td.s 			page 7


 242 0018 1B4B     		ldr	r3, .L21
 243 001a 1B68     		ldr	r3, [r3]
 244 001c 012B     		cmp	r3, #1
 245 001e 04D1     		bne	.L18
  99:main.c        ****                 tara_weight1 = 0; //Tara reset
 246              		.loc 1 99 0
 247 0020 0020     		movs	r0, #0
 248              	.LVL28:
 249 0022 0021     		movs	r1, #0
 250 0024 194A     		ldr	r2, .L21+4
 251 0026 C2E90001 		strd	r0, [r2]
 252              	.L18:
 100:main.c        ****             if (weight == 2)
 253              		.loc 1 100 0
 254 002a 022B     		cmp	r3, #2
 255 002c 2BD1     		bne	.L11
 101:main.c        ****                 tara_weight2 = 0; //Tara reset
 256              		.loc 1 101 0
 257 002e 0020     		movs	r0, #0
 258 0030 0021     		movs	r1, #0
 259 0032 164B     		ldr	r3, .L21+4
 260 0034 C3E90401 		strd	r0, [r3, #16]
 261 0038 38BD     		pop	{r3, r4, r5, pc}
 262              	.LVL29:
 263              	.L15:
 102:main.c        ****         }
 103:main.c        ****         break;
 104:main.c        ****         case '1' :
 105:main.c        ****         {
 106:main.c        ****             AMux_1_Select(0); //Select weight 1
 264              		.loc 1 106 0
 265 003a 0020     		movs	r0, #0
 266              	.LVL30:
 267 003c FFF7FEFF 		bl	AMux_1_Select
 268              	.LVL31:
 107:main.c        ****             weight = 1;
 269              		.loc 1 107 0
 270 0040 0122     		movs	r2, #1
 271 0042 114B     		ldr	r3, .L21
 272 0044 1A60     		str	r2, [r3]
 108:main.c        ****         }
 109:main.c        ****         break;
 273              		.loc 1 109 0
 274 0046 38BD     		pop	{r3, r4, r5, pc}
 275              	.LVL32:
 276              	.L13:
 110:main.c        ****         case '2' :
 111:main.c        ****         {
 112:main.c        ****             AMux_1_Select(1); //Select weight 2
 277              		.loc 1 112 0
 278 0048 0120     		movs	r0, #1
 279              	.LVL33:
 280 004a FFF7FEFF 		bl	AMux_1_Select
 281              	.LVL34:
 113:main.c        ****             weight = 2;
 282              		.loc 1 113 0
 283 004e 0222     		movs	r2, #2
ARM GAS  C:\Users\Runeg\AppData\Local\Temp\ccolw6td.s 			page 8


 284 0050 0D4B     		ldr	r3, .L21
 285 0052 1A60     		str	r2, [r3]
 114:main.c        ****         }
 115:main.c        ****         break;
 286              		.loc 1 115 0
 287 0054 38BD     		pop	{r3, r4, r5, pc}
 288              	.LVL35:
 289              	.L17:
 116:main.c        ****         case 'w' :
 117:main.c        ****         {
 118:main.c        ****             if (weight == 1)
 290              		.loc 1 118 0
 291 0056 0C4B     		ldr	r3, .L21
 292 0058 1C68     		ldr	r4, [r3]
 293 005a 012C     		cmp	r4, #1
 294 005c 08D1     		bne	.L19
 119:main.c        ****                 tara_weight1 += result; //Tara set
 295              		.loc 1 119 0
 296 005e 0B4D     		ldr	r5, .L21+4
 297 0060 D5E90223 		ldrd	r2, [r5, #8]
 298 0064 D5E90001 		ldrd	r0, [r5]
 299              	.LVL36:
 300 0068 FFF7FEFF 		bl	__aeabi_dadd
 301              	.LVL37:
 302 006c C5E90001 		strd	r0, [r5]
 303              	.L19:
 120:main.c        ****             if (weight == 2)
 304              		.loc 1 120 0
 305 0070 022C     		cmp	r4, #2
 306 0072 08D1     		bne	.L11
 121:main.c        ****                 tara_weight1 += result; //Tara set
 307              		.loc 1 121 0
 308 0074 054C     		ldr	r4, .L21+4
 309 0076 D4E90223 		ldrd	r2, [r4, #8]
 310 007a D4E90001 		ldrd	r0, [r4]
 311 007e FFF7FEFF 		bl	__aeabi_dadd
 312              	.LVL38:
 313 0082 C4E90001 		strd	r0, [r4]
 314              	.L11:
 315 0086 38BD     		pop	{r3, r4, r5, pc}
 316              	.L22:
 317              		.align	2
 318              	.L21:
 319 0088 00000000 		.word	.LANCHOR0
 320 008c 00000000 		.word	.LANCHOR1
 321              		.cfi_endproc
 322              	.LFE66:
 323              		.size	handleByteReceived, .-handleByteReceived
 324              		.section	.text.ISR_UART_rx_handler,"ax",%progbits
 325              		.align	2
 326              		.global	ISR_UART_rx_handler
 327              		.thumb
 328              		.thumb_func
 329              		.type	ISR_UART_rx_handler, %function
 330              	ISR_UART_rx_handler:
 331              	.LFB65:
  79:main.c        ****     uint8_t bytesToRead = UART_1_GetRxBufferSize();
ARM GAS  C:\Users\Runeg\AppData\Local\Temp\ccolw6td.s 			page 9


 332              		.loc 1 79 0
 333              		.cfi_startproc
 334              		@ args = 0, pretend = 0, frame = 0
 335              		@ frame_needed = 0, uses_anonymous_args = 0
 336 0000 38B5     		push	{r3, r4, r5, lr}
 337              		.cfi_def_cfa_offset 16
 338              		.cfi_offset 3, -16
 339              		.cfi_offset 4, -12
 340              		.cfi_offset 5, -8
 341              		.cfi_offset 14, -4
  80:main.c        ****     while (bytesToRead > 0)
 342              		.loc 1 80 0
 343 0002 FFF7FEFF 		bl	UART_1_GetRxBufferSize
 344              	.LVL39:
 345 0006 0446     		mov	r4, r0
 346              	.LVL40:
  81:main.c        ****     {
 347              		.loc 1 81 0
 348 0008 09E0     		b	.L24
 349              	.L25:
 350              	.LBB5:
  83:main.c        ****         UART_1_WriteTxData(byteReceived); // echo back
 351              		.loc 1 83 0
 352 000a FFF7FEFF 		bl	UART_1_ReadRxData
 353              	.LVL41:
 354 000e 0546     		mov	r5, r0
 355              	.LVL42:
  84:main.c        ****         
 356              		.loc 1 84 0
 357 0010 FFF7FEFF 		bl	UART_1_WriteTxData
 358              	.LVL43:
  86:main.c        ****         
 359              		.loc 1 86 0
 360 0014 2846     		mov	r0, r5
 361 0016 FFF7FEFF 		bl	handleByteReceived
 362              	.LVL44:
  88:main.c        ****     }
 363              		.loc 1 88 0
 364 001a 013C     		subs	r4, r4, #1
 365              	.LVL45:
 366 001c E4B2     		uxtb	r4, r4
 367              	.LVL46:
 368              	.L24:
 369              	.LBE5:
  81:main.c        ****     {
 370              		.loc 1 81 0
 371 001e 002C     		cmp	r4, #0
 372 0020 F3D1     		bne	.L25
  90:main.c        **** 
 373              		.loc 1 90 0
 374 0022 38BD     		pop	{r3, r4, r5, pc}
 375              		.cfi_endproc
 376              	.LFE65:
 377              		.size	ISR_UART_rx_handler, .-ISR_UART_rx_handler
 378              		.global	weight
 379              		.global	result
 380              		.global	tara_weight2
ARM GAS  C:\Users\Runeg\AppData\Local\Temp\ccolw6td.s 			page 10


 381              		.global	tara_weight1
 382              		.global	divider_weight2
 383              		.global	offset_weight2
 384              		.global	divider_weight1
 385              		.global	offset_weight1
 386              		.data
 387              		.align	3
 388              		.set	.LANCHOR0,. + 0
 389              		.type	weight, %object
 390              		.size	weight, 4
 391              	weight:
 392 0000 01000000 		.word	1
 393              		.type	offset_weight1, %object
 394              		.size	offset_weight1, 4
 395              	offset_weight1:
 396 0004 76010000 		.word	374
 397              		.type	divider_weight1, %object
 398              		.size	divider_weight1, 8
 399              	divider_weight1:
 400 0008 33333333 		.word	858993459
 401 000c 33C59240 		.word	1083360563
 402              		.type	divider_weight2, %object
 403              		.size	divider_weight2, 8
 404              	divider_weight2:
 405 0010 33333333 		.word	858993459
 406 0014 33C59C40 		.word	1084015923
 407              		.type	offset_weight2, %object
 408              		.size	offset_weight2, 4
 409              	offset_weight2:
 410 0018 3C010000 		.word	316
 411              		.section	.rodata.str1.4,"aMS",%progbits,1
 412              		.align	2
 413              	.LC0:
 414 0000 5363616C 		.ascii	"Scale application started\015\012\000"
 414      65206170 
 414      706C6963 
 414      6174696F 
 414      6E207374 
 415              	.LC1:
 416 001c 713A2052 		.ascii	"q: Remove tara\015\012\000"
 416      656D6F76 
 416      65207461 
 416      72610D0A 
 416      00
 417 002d 000000   		.space	3
 418              	.LC2:
 419 0030 773A2054 		.ascii	"w: Tara\015\012\000"
 419      6172610D 
 419      0A00
 420 003a 0000     		.space	2
 421              	.LC3:
 422 003c 31206F72 		.ascii	"1 or 2: Weight select\015\012\000"
 422      20323A20 
 422      57656967 
 422      68742073 
 422      656C6563 
 423              	.LC4:
ARM GAS  C:\Users\Runeg\AppData\Local\Temp\ccolw6td.s 			page 11


 424 0054 41444320 		.ascii	"ADC result for weight %d: %.3f kg\015\012\000"
 424      72657375 
 424      6C742066 
 424      6F722077 
 424      65696768 
 425              		.bss
 426              		.align	3
 427              		.set	.LANCHOR1,. + 0
 428              		.type	tara_weight1, %object
 429              		.size	tara_weight1, 8
 430              	tara_weight1:
 431 0000 00000000 		.space	8
 431      00000000 
 432              		.type	result, %object
 433              		.size	result, 8
 434              	result:
 435 0008 00000000 		.space	8
 435      00000000 
 436              		.type	tara_weight2, %object
 437              		.size	tara_weight2, 8
 438              	tara_weight2:
 439 0010 00000000 		.space	8
 439      00000000 
 440              		.text
 441              	.Letext0:
 442              		.file 2 "c:\\program files (x86)\\cypress\\psoc creator\\4.4\\psoc creator\\import\\gnu\\arm\\5.4.
 443              		.file 3 "c:\\program files (x86)\\cypress\\psoc creator\\4.4\\psoc creator\\import\\gnu\\arm\\5.4.
 444              		.file 4 "Generated_Source\\PSoC5/cytypes.h"
 445              		.file 5 "c:\\program files (x86)\\cypress\\psoc creator\\4.4\\psoc creator\\import\\gnu\\arm\\5.4.
 446              		.file 6 "Generated_Source\\PSoC5/core_cm3.h"
 447              		.file 7 "Generated_Source\\PSoC5/ADC_SAR_1.h"
 448              		.file 8 "Generated_Source\\PSoC5/CyLib.h"
 449              		.file 9 "c:\\program files (x86)\\cypress\\psoc creator\\4.4\\psoc creator\\import\\gnu\\arm\\5.4.
 450              		.file 10 "Generated_Source\\PSoC5/UART_1.h"
 451              		.file 11 "Generated_Source\\PSoC5/AMux_1.h"
 452              		.file 12 "Generated_Source\\PSoC5/isr_uart_rx.h"