ARM GAS  C:\Users\Runeg\AppData\Local\Temp\ccusGBrN.s 			page 1


   1              		.syntax unified
   2              		.cpu cortex-m3
   3              		.fpu softvfp
   4              		.eabi_attribute 20, 1
   5              		.eabi_attribute 21, 1
   6              		.eabi_attribute 23, 3
   7              		.eabi_attribute 24, 1
   8              		.eabi_attribute 25, 1
   9              		.eabi_attribute 26, 1
  10              		.eabi_attribute 30, 6
  11              		.eabi_attribute 34, 1
  12              		.eabi_attribute 18, 4
  13              		.thumb
  14              		.syntax unified
  15              		.file	"bro.c"
  16              		.text
  17              	.Ltext0:
  18              		.cfi_sections	.debug_frame
  19              		.section	.text.dmc_packet_init,"ax",%progbits
  20              		.align	2
  21              		.thumb
  22              		.thumb_func
  23              		.type	dmc_packet_init, %function
  24              	dmc_packet_init:
  25              	.LFB0:
  26              		.file 1 "..\\..\\..\\common\\hw\\include\\base_packet.h"
   1:..\..\..\common\hw\include/base_packet.h **** #ifndef DMC_BASE_PACKET_H
   2:..\..\..\common\hw\include/base_packet.h **** #define DMC_BASE_PACKET_H
   3:..\..\..\common\hw\include/base_packet.h **** 
   4:..\..\..\common\hw\include/base_packet.h **** #ifdef MODULE // Include kernel space memory allocation with kmalloc
   5:..\..\..\common\hw\include/base_packet.h **** #include <linux/slab.h>
   6:..\..\..\common\hw\include/base_packet.h **** #else
   7:..\..\..\common\hw\include/base_packet.h **** #include <stdlib.h>
   8:..\..\..\common\hw\include/base_packet.h **** #endif
   9:..\..\..\common\hw\include/base_packet.h **** 
  10:..\..\..\common\hw\include/base_packet.h **** /**
  11:..\..\..\common\hw\include/base_packet.h ****  * @brief Type of packet. (MAYBE: MSB is required to be 1 as this signals a
  12:..\..\..\common\hw\include/base_packet.h ****  * header byte)
  13:..\..\..\common\hw\include/base_packet.h ****  */
  14:..\..\..\common\hw\include/base_packet.h **** enum dmc_packet_type
  15:..\..\..\common\hw\include/base_packet.h **** {
  16:..\..\..\common\hw\include/base_packet.h ****   DMC_PACKET_OUT_OF_ORDER              = 0b10000001,
  17:..\..\..\common\hw\include/base_packet.h ****   DMC_PACKET_CONTAINER_VOLUME_MEASURED = 0b10010010,
  18:..\..\..\common\hw\include/base_packet.h ****   DMC_PACKET_USER_CONFIRM              = 0b10100000,
  19:..\..\..\common\hw\include/base_packet.h ****   DMC_PACKET_FLUID_POUR_REQUESTED      = 0b10110010,
  20:..\..\..\common\hw\include/base_packet.h ****   DMC_PACKET_DEBUG                     = 0b11000010,
  21:..\..\..\common\hw\include/base_packet.h ****   DMC_PACKET_MACHINE_OK                = 0b11010000,
  22:..\..\..\common\hw\include/base_packet.h **** };
  23:..\..\..\common\hw\include/base_packet.h **** 
  24:..\..\..\common\hw\include/base_packet.h **** struct dmc_packet
  25:..\..\..\common\hw\include/base_packet.h **** {
  26:..\..\..\common\hw\include/base_packet.h ****   /**
  27:..\..\..\common\hw\include/base_packet.h ****    * @brief Type of packet. This is the first byte received.
  28:..\..\..\common\hw\include/base_packet.h ****    */
  29:..\..\..\common\hw\include/base_packet.h ****   enum dmc_packet_type type;
  30:..\..\..\common\hw\include/base_packet.h **** 
  31:..\..\..\common\hw\include/base_packet.h ****   /**
ARM GAS  C:\Users\Runeg\AppData\Local\Temp\ccusGBrN.s 			page 2


  32:..\..\..\common\hw\include/base_packet.h ****    * @brief Data payload of packet
  33:..\..\..\common\hw\include/base_packet.h ****    */
  34:..\..\..\common\hw\include/base_packet.h ****   char *data;
  35:..\..\..\common\hw\include/base_packet.h **** 
  36:..\..\..\common\hw\include/base_packet.h ****   /**
  37:..\..\..\common\hw\include/base_packet.h ****    * @brief Length of payload in bytes.
  38:..\..\..\common\hw\include/base_packet.h ****    */
  39:..\..\..\common\hw\include/base_packet.h ****   size_t data_len;
  40:..\..\..\common\hw\include/base_packet.h **** };
  41:..\..\..\common\hw\include/base_packet.h **** 
  42:..\..\..\common\hw\include/base_packet.h **** /**
  43:..\..\..\common\hw\include/base_packet.h ****  * @brief Allocates and initializes a packet with a type. Primarily
  44:..\..\..\common\hw\include/base_packet.h ****  * used when starting to read data from a given source.
  45:..\..\..\common\hw\include/base_packet.h ****  */
  46:..\..\..\common\hw\include/base_packet.h **** static struct dmc_packet *dmc_packet_init(enum dmc_packet_type type)
  47:..\..\..\common\hw\include/base_packet.h **** {
  27              		.loc 1 47 0
  28              		.cfi_startproc
  29              		@ args = 0, pretend = 0, frame = 16
  30              		@ frame_needed = 1, uses_anonymous_args = 0
  31 0000 80B5     		push	{r7, lr}
  32              		.cfi_def_cfa_offset 8
  33              		.cfi_offset 7, -8
  34              		.cfi_offset 14, -4
  35 0002 84B0     		sub	sp, sp, #16
  36              		.cfi_def_cfa_offset 24
  37 0004 00AF     		add	r7, sp, #0
  38              		.cfi_def_cfa_register 7
  39 0006 0346     		mov	r3, r0
  40 0008 FB71     		strb	r3, [r7, #7]
  48:..\..\..\common\hw\include/base_packet.h ****   unsigned char data_bytes = type & 0b00001111;
  41              		.loc 1 48 0
  42 000a FB79     		ldrb	r3, [r7, #7]
  43 000c 03F00F03 		and	r3, r3, #15
  44 0010 FB73     		strb	r3, [r7, #15]
  49:..\..\..\common\hw\include/base_packet.h **** 
  50:..\..\..\common\hw\include/base_packet.h ****   // Allocate and initialize packet with default values
  51:..\..\..\common\hw\include/base_packet.h ****   struct dmc_packet *packet;
  52:..\..\..\common\hw\include/base_packet.h **** #ifdef MODULE // Differeniate between kernel and use space allocations
  53:..\..\..\common\hw\include/base_packet.h ****   packet = (struct dmc_packet *)kmalloc(sizeof(struct dmc_packet), GFP_KERNEL);
  54:..\..\..\common\hw\include/base_packet.h **** #else
  55:..\..\..\common\hw\include/base_packet.h ****   packet = (struct dmc_packet *)malloc(sizeof(struct dmc_packet));
  45              		.loc 1 55 0
  46 0012 0C20     		movs	r0, #12
  47 0014 FFF7FEFF 		bl	malloc
  48 0018 0346     		mov	r3, r0
  49 001a BB60     		str	r3, [r7, #8]
  56:..\..\..\common\hw\include/base_packet.h **** #endif
  57:..\..\..\common\hw\include/base_packet.h ****   packet->type     = type;
  50              		.loc 1 57 0
  51 001c BB68     		ldr	r3, [r7, #8]
  52 001e FA79     		ldrb	r2, [r7, #7]
  53 0020 1A70     		strb	r2, [r3]
  58:..\..\..\common\hw\include/base_packet.h ****   packet->data_len = 0;
  54              		.loc 1 58 0
  55 0022 BB68     		ldr	r3, [r7, #8]
  56 0024 0022     		movs	r2, #0
ARM GAS  C:\Users\Runeg\AppData\Local\Temp\ccusGBrN.s 			page 3


  57 0026 9A60     		str	r2, [r3, #8]
  59:..\..\..\common\hw\include/base_packet.h ****   packet->data     = NULL;
  58              		.loc 1 59 0
  59 0028 BB68     		ldr	r3, [r7, #8]
  60 002a 0022     		movs	r2, #0
  61 002c 5A60     		str	r2, [r3, #4]
  60:..\..\..\common\hw\include/base_packet.h **** 
  61:..\..\..\common\hw\include/base_packet.h ****   // Allocate packet data if needed
  62:..\..\..\common\hw\include/base_packet.h ****   if (data_bytes > 0)
  62              		.loc 1 62 0
  63 002e FB7B     		ldrb	r3, [r7, #15]	@ zero_extendqisi2
  64 0030 002B     		cmp	r3, #0
  65 0032 07D0     		beq	.L2
  63:..\..\..\common\hw\include/base_packet.h ****   {
  64:..\..\..\common\hw\include/base_packet.h **** #ifdef MODULE // Differeniate between kernel and use space allocations
  65:..\..\..\common\hw\include/base_packet.h ****     packet->data = (char *)kmalloc(sizeof(char) * data_bytes, GFP_KERNEL);
  66:..\..\..\common\hw\include/base_packet.h **** #else
  67:..\..\..\common\hw\include/base_packet.h ****     packet->data = (char *)malloc(sizeof(char) * data_bytes);
  66              		.loc 1 67 0
  67 0034 FB7B     		ldrb	r3, [r7, #15]	@ zero_extendqisi2
  68 0036 1846     		mov	r0, r3
  69 0038 FFF7FEFF 		bl	malloc
  70 003c 0346     		mov	r3, r0
  71 003e 1A46     		mov	r2, r3
  72 0040 BB68     		ldr	r3, [r7, #8]
  73 0042 5A60     		str	r2, [r3, #4]
  74              	.L2:
  68:..\..\..\common\hw\include/base_packet.h **** #endif
  69:..\..\..\common\hw\include/base_packet.h ****   }
  70:..\..\..\common\hw\include/base_packet.h **** 
  71:..\..\..\common\hw\include/base_packet.h ****   return packet;
  75              		.loc 1 71 0
  76 0044 BB68     		ldr	r3, [r7, #8]
  72:..\..\..\common\hw\include/base_packet.h **** }
  77              		.loc 1 72 0
  78 0046 1846     		mov	r0, r3
  79 0048 1037     		adds	r7, r7, #16
  80              		.cfi_def_cfa_offset 8
  81 004a BD46     		mov	sp, r7
  82              		.cfi_def_cfa_register 13
  83              		@ sp needed
  84 004c 80BD     		pop	{r7, pc}
  85              		.cfi_endproc
  86              	.LFE0:
  87              		.size	dmc_packet_init, .-dmc_packet_init
  88 004e 00BF     		.section	.text.dmc_packet_free,"ax",%progbits
  89              		.align	2
  90              		.thumb
  91              		.thumb_func
  92              		.type	dmc_packet_free, %function
  93              	dmc_packet_free:
  94              	.LFB1:
  73:..\..\..\common\hw\include/base_packet.h **** 
  74:..\..\..\common\hw\include/base_packet.h **** /**
  75:..\..\..\common\hw\include/base_packet.h ****  * @brief De-allocate packet and its data
  76:..\..\..\common\hw\include/base_packet.h ****  */
  77:..\..\..\common\hw\include/base_packet.h **** static void dmc_packet_free(struct dmc_packet *packet)
ARM GAS  C:\Users\Runeg\AppData\Local\Temp\ccusGBrN.s 			page 4


  78:..\..\..\common\hw\include/base_packet.h **** {
  95              		.loc 1 78 0
  96              		.cfi_startproc
  97              		@ args = 0, pretend = 0, frame = 8
  98              		@ frame_needed = 1, uses_anonymous_args = 0
  99 0000 80B5     		push	{r7, lr}
 100              		.cfi_def_cfa_offset 8
 101              		.cfi_offset 7, -8
 102              		.cfi_offset 14, -4
 103 0002 82B0     		sub	sp, sp, #8
 104              		.cfi_def_cfa_offset 16
 105 0004 00AF     		add	r7, sp, #0
 106              		.cfi_def_cfa_register 7
 107 0006 7860     		str	r0, [r7, #4]
  79:..\..\..\common\hw\include/base_packet.h **** #ifdef MODULE // Differeniate between kernel and use space de-allocations
  80:..\..\..\common\hw\include/base_packet.h ****   kfree((void *)packet->data);
  81:..\..\..\common\hw\include/base_packet.h ****   kfree((void *)packet);
  82:..\..\..\common\hw\include/base_packet.h **** #else
  83:..\..\..\common\hw\include/base_packet.h ****   free((void *)packet->data);
 108              		.loc 1 83 0
 109 0008 7B68     		ldr	r3, [r7, #4]
 110 000a 5B68     		ldr	r3, [r3, #4]
 111 000c 1846     		mov	r0, r3
 112 000e FFF7FEFF 		bl	free
  84:..\..\..\common\hw\include/base_packet.h ****   free((void *)packet);
 113              		.loc 1 84 0
 114 0012 7868     		ldr	r0, [r7, #4]
 115 0014 FFF7FEFF 		bl	free
  85:..\..\..\common\hw\include/base_packet.h **** #endif
  86:..\..\..\common\hw\include/base_packet.h **** }
 116              		.loc 1 86 0
 117 0018 00BF     		nop
 118 001a 0837     		adds	r7, r7, #8
 119              		.cfi_def_cfa_offset 8
 120 001c BD46     		mov	sp, r7
 121              		.cfi_def_cfa_register 13
 122              		@ sp needed
 123 001e 80BD     		pop	{r7, pc}
 124              		.cfi_endproc
 125              	.LFE1:
 126              		.size	dmc_packet_free, .-dmc_packet_free
 127              		.section	.text.dmc_packet_complete,"ax",%progbits
 128              		.align	2
 129              		.thumb
 130              		.thumb_func
 131              		.type	dmc_packet_complete, %function
 132              	dmc_packet_complete:
 133              	.LFB2:
  87:..\..\..\common\hw\include/base_packet.h **** 
  88:..\..\..\common\hw\include/base_packet.h **** /**
  89:..\..\..\common\hw\include/base_packet.h ****  * @brief Checks if a packet is fully complete, in the sense that all intended
  90:..\..\..\common\hw\include/base_packet.h ****  * data is received
  91:..\..\..\common\hw\include/base_packet.h ****  * @returns True, if packet is complete.
  92:..\..\..\common\hw\include/base_packet.h ****  */
  93:..\..\..\common\hw\include/base_packet.h **** static unsigned char dmc_packet_complete(struct dmc_packet *packet)
  94:..\..\..\common\hw\include/base_packet.h **** {
 134              		.loc 1 94 0
ARM GAS  C:\Users\Runeg\AppData\Local\Temp\ccusGBrN.s 			page 5


 135              		.cfi_startproc
 136              		@ args = 0, pretend = 0, frame = 16
 137              		@ frame_needed = 1, uses_anonymous_args = 0
 138              		@ link register save eliminated.
 139 0000 80B4     		push	{r7}
 140              		.cfi_def_cfa_offset 4
 141              		.cfi_offset 7, -4
 142 0002 85B0     		sub	sp, sp, #20
 143              		.cfi_def_cfa_offset 24
 144 0004 00AF     		add	r7, sp, #0
 145              		.cfi_def_cfa_register 7
 146 0006 7860     		str	r0, [r7, #4]
  95:..\..\..\common\hw\include/base_packet.h ****   unsigned char data_bytes = packet->type & 0b00001111;
 147              		.loc 1 95 0
 148 0008 7B68     		ldr	r3, [r7, #4]
 149 000a 1B78     		ldrb	r3, [r3]	@ zero_extendqisi2
 150 000c 03F00F03 		and	r3, r3, #15
 151 0010 FB73     		strb	r3, [r7, #15]
  96:..\..\..\common\hw\include/base_packet.h ****   return data_bytes == packet->data_len;
 152              		.loc 1 96 0
 153 0012 FA7B     		ldrb	r2, [r7, #15]	@ zero_extendqisi2
 154 0014 7B68     		ldr	r3, [r7, #4]
 155 0016 9B68     		ldr	r3, [r3, #8]
 156 0018 9A42     		cmp	r2, r3
 157 001a 0CBF     		ite	eq
 158 001c 0123     		moveq	r3, #1
 159 001e 0023     		movne	r3, #0
 160 0020 DBB2     		uxtb	r3, r3
  97:..\..\..\common\hw\include/base_packet.h **** }
 161              		.loc 1 97 0
 162 0022 1846     		mov	r0, r3
 163 0024 1437     		adds	r7, r7, #20
 164              		.cfi_def_cfa_offset 4
 165 0026 BD46     		mov	sp, r7
 166              		.cfi_def_cfa_register 13
 167              		@ sp needed
 168 0028 80BC     		pop	{r7}
 169              		.cfi_restore 7
 170              		.cfi_def_cfa_offset 0
 171 002a 7047     		bx	lr
 172              		.cfi_endproc
 173              	.LFE2:
 174              		.size	dmc_packet_complete, .-dmc_packet_complete
 175              		.section	.text.dmc_packet_append_byte,"ax",%progbits
 176              		.align	2
 177              		.thumb
 178              		.thumb_func
 179              		.type	dmc_packet_append_byte, %function
 180              	dmc_packet_append_byte:
 181              	.LFB3:
  98:..\..\..\common\hw\include/base_packet.h **** 
  99:..\..\..\common\hw\include/base_packet.h **** /**
 100:..\..\..\common\hw\include/base_packet.h ****  * @brief Appends data byte to packet payload.
 101:..\..\..\common\hw\include/base_packet.h ****  * @returns 0 if successful, 1 if payload is already at capacity.
 102:..\..\..\common\hw\include/base_packet.h ****  */
 103:..\..\..\common\hw\include/base_packet.h **** static unsigned char dmc_packet_append_byte(struct dmc_packet *packet,
 104:..\..\..\common\hw\include/base_packet.h ****                                             unsigned char      data)
ARM GAS  C:\Users\Runeg\AppData\Local\Temp\ccusGBrN.s 			page 6


 105:..\..\..\common\hw\include/base_packet.h **** {
 182              		.loc 1 105 0
 183              		.cfi_startproc
 184              		@ args = 0, pretend = 0, frame = 16
 185              		@ frame_needed = 1, uses_anonymous_args = 0
 186              		@ link register save eliminated.
 187 0000 80B4     		push	{r7}
 188              		.cfi_def_cfa_offset 4
 189              		.cfi_offset 7, -4
 190 0002 85B0     		sub	sp, sp, #20
 191              		.cfi_def_cfa_offset 24
 192 0004 00AF     		add	r7, sp, #0
 193              		.cfi_def_cfa_register 7
 194 0006 7860     		str	r0, [r7, #4]
 195 0008 0B46     		mov	r3, r1
 196 000a FB70     		strb	r3, [r7, #3]
 106:..\..\..\common\hw\include/base_packet.h ****   unsigned char data_bytes = packet->type & 0b00001111;
 197              		.loc 1 106 0
 198 000c 7B68     		ldr	r3, [r7, #4]
 199 000e 1B78     		ldrb	r3, [r3]	@ zero_extendqisi2
 200 0010 03F00F03 		and	r3, r3, #15
 201 0014 FB73     		strb	r3, [r7, #15]
 107:..\..\..\common\hw\include/base_packet.h ****   if (data_bytes == packet->data_len)
 202              		.loc 1 107 0
 203 0016 FA7B     		ldrb	r2, [r7, #15]	@ zero_extendqisi2
 204 0018 7B68     		ldr	r3, [r7, #4]
 205 001a 9B68     		ldr	r3, [r3, #8]
 206 001c 9A42     		cmp	r2, r3
 207 001e 01D1     		bne	.L8
 108:..\..\..\common\hw\include/base_packet.h ****   {
 109:..\..\..\common\hw\include/base_packet.h ****     return 1;
 208              		.loc 1 109 0
 209 0020 0123     		movs	r3, #1
 210 0022 0AE0     		b	.L9
 211              	.L8:
 110:..\..\..\common\hw\include/base_packet.h ****   }
 111:..\..\..\common\hw\include/base_packet.h **** 
 112:..\..\..\common\hw\include/base_packet.h ****   packet->data[packet->data_len++] = data;
 212              		.loc 1 112 0
 213 0024 7B68     		ldr	r3, [r7, #4]
 214 0026 5A68     		ldr	r2, [r3, #4]
 215 0028 7B68     		ldr	r3, [r7, #4]
 216 002a 9B68     		ldr	r3, [r3, #8]
 217 002c 581C     		adds	r0, r3, #1
 218 002e 7968     		ldr	r1, [r7, #4]
 219 0030 8860     		str	r0, [r1, #8]
 220 0032 1344     		add	r3, r3, r2
 221 0034 FA78     		ldrb	r2, [r7, #3]
 222 0036 1A70     		strb	r2, [r3]
 113:..\..\..\common\hw\include/base_packet.h ****   return 0;
 223              		.loc 1 113 0
 224 0038 0023     		movs	r3, #0
 225              	.L9:
 114:..\..\..\common\hw\include/base_packet.h **** }
 226              		.loc 1 114 0
 227 003a 1846     		mov	r0, r3
 228 003c 1437     		adds	r7, r7, #20
ARM GAS  C:\Users\Runeg\AppData\Local\Temp\ccusGBrN.s 			page 7


 229              		.cfi_def_cfa_offset 4
 230 003e BD46     		mov	sp, r7
 231              		.cfi_def_cfa_register 13
 232              		@ sp needed
 233 0040 80BC     		pop	{r7}
 234              		.cfi_restore 7
 235              		.cfi_def_cfa_offset 0
 236 0042 7047     		bx	lr
 237              		.cfi_endproc
 238              	.LFE3:
 239              		.size	dmc_packet_append_byte, .-dmc_packet_append_byte
 240              		.section	.text.dmc_packet_unmarshal_out_of_order,"ax",%progbits
 241              		.align	2
 242              		.thumb
 243              		.thumb_func
 244              		.type	dmc_packet_unmarshal_out_of_order, %function
 245              	dmc_packet_unmarshal_out_of_order:
 246              	.LFB4:
 247              		.file 2 "..\\..\\..\\common\\hw\\include\\packet.h"
   1:..\..\..\common\hw\include/packet.h **** #ifndef DMC_PACKET_H
   2:..\..\..\common\hw\include/packet.h **** #define DMC_PACKET_H
   3:..\..\..\common\hw\include/packet.h **** 
   4:..\..\..\common\hw\include/packet.h **** #include "base_packet.h"
   5:..\..\..\common\hw\include/packet.h **** 
   6:..\..\..\common\hw\include/packet.h **** #ifdef MODULE
   7:..\..\..\common\hw\include/packet.h **** #include <linux/types.h>
   8:..\..\..\common\hw\include/packet.h **** #else
   9:..\..\..\common\hw\include/packet.h **** #include <stdint.h>
  10:..\..\..\common\hw\include/packet.h **** #endif
  11:..\..\..\common\hw\include/packet.h **** 
  12:..\..\..\common\hw\include/packet.h **** /**
  13:..\..\..\common\hw\include/packet.h ****  * @brief Reason codes for why the machine is out of order
  14:..\..\..\common\hw\include/packet.h ****  */
  15:..\..\..\common\hw\include/packet.h **** enum dmc_packet_out_of_order_reason
  16:..\..\..\common\hw\include/packet.h **** {
  17:..\..\..\common\hw\include/packet.h ****   /**
  18:..\..\..\common\hw\include/packet.h ****    * @brief An unknown error has occured
  19:..\..\..\common\hw\include/packet.h ****    */
  20:..\..\..\common\hw\include/packet.h ****   DMC_PACKET_OUT_OF_ORDER_REASON_UNKNOWN = 0,
  21:..\..\..\common\hw\include/packet.h **** 
  22:..\..\..\common\hw\include/packet.h ****   /**
  23:..\..\..\common\hw\include/packet.h ****    * @brief The machine detected that a fluid container 1
  24:..\..\..\common\hw\include/packet.h ****    * was removed from the machine
  25:..\..\..\common\hw\include/packet.h ****    */
  26:..\..\..\common\hw\include/packet.h ****   DMC_PACKET_OUT_OF_ORDER_REASON_FLUID_CONTAINER_1_REMOVED = 1,
  27:..\..\..\common\hw\include/packet.h **** 
  28:..\..\..\common\hw\include/packet.h ****   /**
  29:..\..\..\common\hw\include/packet.h ****    * @brief The machine detected that a fluid container 2
  30:..\..\..\common\hw\include/packet.h ****    * was removed from the machine
  31:..\..\..\common\hw\include/packet.h ****    */
  32:..\..\..\common\hw\include/packet.h ****   DMC_PACKET_OUT_OF_ORDER_REASON_FLUID_CONTAINER_2_REMOVED = 2,
  33:..\..\..\common\hw\include/packet.h **** 
  34:..\..\..\common\hw\include/packet.h ****   /**
  35:..\..\..\common\hw\include/packet.h ****    * @brief The machine detected that a fluid container 3
  36:..\..\..\common\hw\include/packet.h ****    * was removed from the machine
  37:..\..\..\common\hw\include/packet.h ****    */
  38:..\..\..\common\hw\include/packet.h ****   DMC_PACKET_OUT_OF_ORDER_REASON_FLUID_CONTAINER_3_REMOVED = 3,
ARM GAS  C:\Users\Runeg\AppData\Local\Temp\ccusGBrN.s 			page 8


  39:..\..\..\common\hw\include/packet.h **** };
  40:..\..\..\common\hw\include/packet.h **** 
  41:..\..\..\common\hw\include/packet.h **** /**
  42:..\..\..\common\hw\include/packet.h ****  * @brief Packet declaring machine is out of order with a reason code. So errors
  43:..\..\..\common\hw\include/packet.h ****  * can be viewed on the touch screen UI.
  44:..\..\..\common\hw\include/packet.h ****  *
  45:..\..\..\common\hw\include/packet.h ****  * Direction: PSoC -> RPi
  46:..\..\..\common\hw\include/packet.h ****  */
  47:..\..\..\common\hw\include/packet.h **** struct dmc_packet_out_of_order
  48:..\..\..\common\hw\include/packet.h **** {
  49:..\..\..\common\hw\include/packet.h ****   /**
  50:..\..\..\common\hw\include/packet.h ****    * @brief The reason code for the machine to be out of order. See enum
  51:..\..\..\common\hw\include/packet.h ****    * dmc_packet_out_of_order_reason for what the codes mean
  52:..\..\..\common\hw\include/packet.h ****    */
  53:..\..\..\common\hw\include/packet.h ****   enum dmc_packet_out_of_order_reason reason;
  54:..\..\..\common\hw\include/packet.h **** };
  55:..\..\..\common\hw\include/packet.h **** 
  56:..\..\..\common\hw\include/packet.h **** /**
  57:..\..\..\common\hw\include/packet.h ****  * @brief Unmarshal data into out of order packet from base packet
  58:..\..\..\common\hw\include/packet.h ****  */
  59:..\..\..\common\hw\include/packet.h **** static int
  60:..\..\..\common\hw\include/packet.h **** dmc_packet_unmarshal_out_of_order(struct dmc_packet_out_of_order *packet,
  61:..\..\..\common\hw\include/packet.h ****                                   struct dmc_packet              *from)
  62:..\..\..\common\hw\include/packet.h **** {
 248              		.loc 2 62 0
 249              		.cfi_startproc
 250              		@ args = 0, pretend = 0, frame = 16
 251              		@ frame_needed = 1, uses_anonymous_args = 0
 252              		@ link register save eliminated.
 253 0000 80B4     		push	{r7}
 254              		.cfi_def_cfa_offset 4
 255              		.cfi_offset 7, -4
 256 0002 85B0     		sub	sp, sp, #20
 257              		.cfi_def_cfa_offset 24
 258 0004 00AF     		add	r7, sp, #0
 259              		.cfi_def_cfa_register 7
 260 0006 7860     		str	r0, [r7, #4]
 261 0008 3960     		str	r1, [r7]
  63:..\..\..\common\hw\include/packet.h ****   if (from->type != DMC_PACKET_OUT_OF_ORDER)
 262              		.loc 2 63 0
 263 000a 3B68     		ldr	r3, [r7]
 264 000c 1B78     		ldrb	r3, [r3]	@ zero_extendqisi2
 265 000e 812B     		cmp	r3, #129
 266 0010 02D0     		beq	.L11
  64:..\..\..\common\hw\include/packet.h ****   {
  65:..\..\..\common\hw\include/packet.h ****     return -1;
 267              		.loc 2 65 0
 268 0012 4FF0FF33 		mov	r3, #-1
 269 0016 09E0     		b	.L12
 270              	.L11:
  66:..\..\..\common\hw\include/packet.h ****   }
  67:..\..\..\common\hw\include/packet.h **** 
  68:..\..\..\common\hw\include/packet.h ****   uint8_t offset = 0;
 271              		.loc 2 68 0
 272 0018 0023     		movs	r3, #0
 273 001a FB73     		strb	r3, [r7, #15]
  69:..\..\..\common\hw\include/packet.h ****   packet->reason = *(uint8_t *)(from->data + offset);
ARM GAS  C:\Users\Runeg\AppData\Local\Temp\ccusGBrN.s 			page 9


 274              		.loc 2 69 0
 275 001c 3B68     		ldr	r3, [r7]
 276 001e 5A68     		ldr	r2, [r3, #4]
 277 0020 FB7B     		ldrb	r3, [r7, #15]	@ zero_extendqisi2
 278 0022 1344     		add	r3, r3, r2
 279 0024 1A78     		ldrb	r2, [r3]	@ zero_extendqisi2
 280 0026 7B68     		ldr	r3, [r7, #4]
 281 0028 1A70     		strb	r2, [r3]
  70:..\..\..\common\hw\include/packet.h **** 
  71:..\..\..\common\hw\include/packet.h ****   return 0;
 282              		.loc 2 71 0
 283 002a 0023     		movs	r3, #0
 284              	.L12:
  72:..\..\..\common\hw\include/packet.h **** }
 285              		.loc 2 72 0
 286 002c 1846     		mov	r0, r3
 287 002e 1437     		adds	r7, r7, #20
 288              		.cfi_def_cfa_offset 4
 289 0030 BD46     		mov	sp, r7
 290              		.cfi_def_cfa_register 13
 291              		@ sp needed
 292 0032 80BC     		pop	{r7}
 293              		.cfi_restore 7
 294              		.cfi_def_cfa_offset 0
 295 0034 7047     		bx	lr
 296              		.cfi_endproc
 297              	.LFE4:
 298              		.size	dmc_packet_unmarshal_out_of_order, .-dmc_packet_unmarshal_out_of_order
 299 0036 00BF     		.section	.text.dmc_packet_marshal_out_of_order,"ax",%progbits
 300              		.align	2
 301              		.thumb
 302              		.thumb_func
 303              		.type	dmc_packet_marshal_out_of_order, %function
 304              	dmc_packet_marshal_out_of_order:
 305              	.LFB5:
  73:..\..\..\common\hw\include/packet.h **** 
  74:..\..\..\common\hw\include/packet.h **** /**
  75:..\..\..\common\hw\include/packet.h ****  * @brief Marshal out of order packet struct into base packet
  76:..\..\..\common\hw\include/packet.h ****  */
  77:..\..\..\common\hw\include/packet.h **** static int
  78:..\..\..\common\hw\include/packet.h **** dmc_packet_marshal_out_of_order(struct dmc_packet             **to,
  79:..\..\..\common\hw\include/packet.h ****                                 struct dmc_packet_out_of_order *packet)
  80:..\..\..\common\hw\include/packet.h **** {
 306              		.loc 2 80 0
 307              		.cfi_startproc
 308              		@ args = 0, pretend = 0, frame = 16
 309              		@ frame_needed = 1, uses_anonymous_args = 0
 310 0000 80B5     		push	{r7, lr}
 311              		.cfi_def_cfa_offset 8
 312              		.cfi_offset 7, -8
 313              		.cfi_offset 14, -4
 314 0002 84B0     		sub	sp, sp, #16
 315              		.cfi_def_cfa_offset 24
 316 0004 00AF     		add	r7, sp, #0
 317              		.cfi_def_cfa_register 7
 318 0006 7860     		str	r0, [r7, #4]
 319 0008 3960     		str	r1, [r7]
ARM GAS  C:\Users\Runeg\AppData\Local\Temp\ccusGBrN.s 			page 10


  81:..\..\..\common\hw\include/packet.h ****   if (to == NULL)
 320              		.loc 2 81 0
 321 000a 7B68     		ldr	r3, [r7, #4]
 322 000c 002B     		cmp	r3, #0
 323 000e 02D1     		bne	.L14
  82:..\..\..\common\hw\include/packet.h ****   {
  83:..\..\..\common\hw\include/packet.h ****     // Pointer to the pointer must not be null
  84:..\..\..\common\hw\include/packet.h ****     return -1;
 324              		.loc 2 84 0
 325 0010 4FF0FF33 		mov	r3, #-1
 326 0014 20E0     		b	.L15
 327              	.L14:
  85:..\..\..\common\hw\include/packet.h ****   }
  86:..\..\..\common\hw\include/packet.h ****   if (*to == NULL)
 328              		.loc 2 86 0
 329 0016 7B68     		ldr	r3, [r7, #4]
 330 0018 1B68     		ldr	r3, [r3]
 331 001a 002B     		cmp	r3, #0
 332 001c 05D1     		bne	.L16
  87:..\..\..\common\hw\include/packet.h ****   {
  88:..\..\..\common\hw\include/packet.h ****     *to = dmc_packet_init(DMC_PACKET_OUT_OF_ORDER);
 333              		.loc 2 88 0
 334 001e 8120     		movs	r0, #129
 335 0020 FFF7FEFF 		bl	dmc_packet_init
 336 0024 0246     		mov	r2, r0
 337 0026 7B68     		ldr	r3, [r7, #4]
 338 0028 1A60     		str	r2, [r3]
 339              	.L16:
  89:..\..\..\common\hw\include/packet.h ****   }
  90:..\..\..\common\hw\include/packet.h ****   if ((*to)->type != DMC_PACKET_OUT_OF_ORDER)
 340              		.loc 2 90 0
 341 002a 7B68     		ldr	r3, [r7, #4]
 342 002c 1B68     		ldr	r3, [r3]
 343 002e 1B78     		ldrb	r3, [r3]	@ zero_extendqisi2
 344 0030 812B     		cmp	r3, #129
 345 0032 02D0     		beq	.L17
  91:..\..\..\common\hw\include/packet.h ****   {
  92:..\..\..\common\hw\include/packet.h ****     return -2;
 346              		.loc 2 92 0
 347 0034 6FF00103 		mvn	r3, #1
 348 0038 0EE0     		b	.L15
 349              	.L17:
  93:..\..\..\common\hw\include/packet.h ****   }
  94:..\..\..\common\hw\include/packet.h **** 
  95:..\..\..\common\hw\include/packet.h ****   uint8_t offset                     = 0;
 350              		.loc 2 95 0
 351 003a 0023     		movs	r3, #0
 352 003c FB73     		strb	r3, [r7, #15]
  96:..\..\..\common\hw\include/packet.h ****   *(uint8_t *)((*to)->data + offset) = packet->reason;
 353              		.loc 2 96 0
 354 003e 7B68     		ldr	r3, [r7, #4]
 355 0040 1B68     		ldr	r3, [r3]
 356 0042 5A68     		ldr	r2, [r3, #4]
 357 0044 FB7B     		ldrb	r3, [r7, #15]	@ zero_extendqisi2
 358 0046 1344     		add	r3, r3, r2
 359 0048 3A68     		ldr	r2, [r7]
 360 004a 1278     		ldrb	r2, [r2]	@ zero_extendqisi2
ARM GAS  C:\Users\Runeg\AppData\Local\Temp\ccusGBrN.s 			page 11


 361 004c 1A70     		strb	r2, [r3]
  97:..\..\..\common\hw\include/packet.h **** 
  98:..\..\..\common\hw\include/packet.h ****   (*to)->data_len = 1;
 362              		.loc 2 98 0
 363 004e 7B68     		ldr	r3, [r7, #4]
 364 0050 1B68     		ldr	r3, [r3]
 365 0052 0122     		movs	r2, #1
 366 0054 9A60     		str	r2, [r3, #8]
  99:..\..\..\common\hw\include/packet.h ****   return 0;
 367              		.loc 2 99 0
 368 0056 0023     		movs	r3, #0
 369              	.L15:
 100:..\..\..\common\hw\include/packet.h **** }
 370              		.loc 2 100 0
 371 0058 1846     		mov	r0, r3
 372 005a 1037     		adds	r7, r7, #16
 373              		.cfi_def_cfa_offset 8
 374 005c BD46     		mov	sp, r7
 375              		.cfi_def_cfa_register 13
 376              		@ sp needed
 377 005e 80BD     		pop	{r7, pc}
 378              		.cfi_endproc
 379              	.LFE5:
 380              		.size	dmc_packet_marshal_out_of_order, .-dmc_packet_marshal_out_of_order
 381              		.section	.text.dmc_packet_unmarshal_container_volume_measured,"ax",%progbits
 382              		.align	2
 383              		.thumb
 384              		.thumb_func
 385              		.type	dmc_packet_unmarshal_container_volume_measured, %function
 386              	dmc_packet_unmarshal_container_volume_measured:
 387              	.LFB6:
 101:..\..\..\common\hw\include/packet.h **** 
 102:..\..\..\common\hw\include/packet.h **** /**
 103:..\..\..\common\hw\include/packet.h ****  * @brief Packet declaring that a new weight measurement has been made.
 104:..\..\..\common\hw\include/packet.h ****  *
 105:..\..\..\common\hw\include/packet.h ****  * Direction: PSoC -> RPi
 106:..\..\..\common\hw\include/packet.h ****  */
 107:..\..\..\common\hw\include/packet.h **** struct dmc_packet_container_volume_measured
 108:..\..\..\common\hw\include/packet.h **** {
 109:..\..\..\common\hw\include/packet.h ****   /**
 110:..\..\..\common\hw\include/packet.h ****    * @brief The container the measurement was from. Ranging from 0-2
 111:..\..\..\common\hw\include/packet.h ****    */
 112:..\..\..\common\hw\include/packet.h ****   uint8_t container;
 113:..\..\..\common\hw\include/packet.h **** 
 114:..\..\..\common\hw\include/packet.h ****   /**
 115:..\..\..\common\hw\include/packet.h ****    * @brief Volume measured in centiliters
 116:..\..\..\common\hw\include/packet.h ****    */
 117:..\..\..\common\hw\include/packet.h ****   int16_t volume;
 118:..\..\..\common\hw\include/packet.h **** };
 119:..\..\..\common\hw\include/packet.h **** 
 120:..\..\..\common\hw\include/packet.h **** /**
 121:..\..\..\common\hw\include/packet.h ****  * @brief Unmarshal data into container volume measured packet from base packet
 122:..\..\..\common\hw\include/packet.h ****  */
 123:..\..\..\common\hw\include/packet.h **** static int dmc_packet_unmarshal_container_volume_measured(
 124:..\..\..\common\hw\include/packet.h ****     struct dmc_packet_container_volume_measured *packet,
 125:..\..\..\common\hw\include/packet.h ****     struct dmc_packet                           *from)
 126:..\..\..\common\hw\include/packet.h **** {
ARM GAS  C:\Users\Runeg\AppData\Local\Temp\ccusGBrN.s 			page 12


 388              		.loc 2 126 0
 389              		.cfi_startproc
 390              		@ args = 0, pretend = 0, frame = 16
 391              		@ frame_needed = 1, uses_anonymous_args = 0
 392              		@ link register save eliminated.
 393 0000 80B4     		push	{r7}
 394              		.cfi_def_cfa_offset 4
 395              		.cfi_offset 7, -4
 396 0002 85B0     		sub	sp, sp, #20
 397              		.cfi_def_cfa_offset 24
 398 0004 00AF     		add	r7, sp, #0
 399              		.cfi_def_cfa_register 7
 400 0006 7860     		str	r0, [r7, #4]
 401 0008 3960     		str	r1, [r7]
 127:..\..\..\common\hw\include/packet.h ****   if (from->type != DMC_PACKET_CONTAINER_VOLUME_MEASURED)
 402              		.loc 2 127 0
 403 000a 3B68     		ldr	r3, [r7]
 404 000c 1B78     		ldrb	r3, [r3]	@ zero_extendqisi2
 405 000e 922B     		cmp	r3, #146
 406 0010 02D0     		beq	.L19
 128:..\..\..\common\hw\include/packet.h ****   {
 129:..\..\..\common\hw\include/packet.h ****     return -1;
 407              		.loc 2 129 0
 408 0012 4FF0FF33 		mov	r3, #-1
 409 0016 14E0     		b	.L20
 410              	.L19:
 130:..\..\..\common\hw\include/packet.h ****   }
 131:..\..\..\common\hw\include/packet.h **** 
 132:..\..\..\common\hw\include/packet.h ****   uint8_t offset    = 0;
 411              		.loc 2 132 0
 412 0018 0023     		movs	r3, #0
 413 001a FB73     		strb	r3, [r7, #15]
 133:..\..\..\common\hw\include/packet.h ****   packet->container = *(uint8_t *)(from->data + offset);
 414              		.loc 2 133 0
 415 001c 3B68     		ldr	r3, [r7]
 416 001e 5A68     		ldr	r2, [r3, #4]
 417 0020 FB7B     		ldrb	r3, [r7, #15]	@ zero_extendqisi2
 418 0022 1344     		add	r3, r3, r2
 419 0024 1A78     		ldrb	r2, [r3]	@ zero_extendqisi2
 420 0026 7B68     		ldr	r3, [r7, #4]
 421 0028 1A70     		strb	r2, [r3]
 134:..\..\..\common\hw\include/packet.h **** 
 135:..\..\..\common\hw\include/packet.h ****   offset += sizeof(packet->container); // Move offset of previous data
 422              		.loc 2 135 0
 423 002a FB7B     		ldrb	r3, [r7, #15]
 424 002c 0133     		adds	r3, r3, #1
 425 002e FB73     		strb	r3, [r7, #15]
 136:..\..\..\common\hw\include/packet.h ****   packet->volume = *(uint8_t *)(from->data + offset);
 426              		.loc 2 136 0
 427 0030 3B68     		ldr	r3, [r7]
 428 0032 5A68     		ldr	r2, [r3, #4]
 429 0034 FB7B     		ldrb	r3, [r7, #15]	@ zero_extendqisi2
 430 0036 1344     		add	r3, r3, r2
 431 0038 1B78     		ldrb	r3, [r3]	@ zero_extendqisi2
 432 003a 1AB2     		sxth	r2, r3
 433 003c 7B68     		ldr	r3, [r7, #4]
 434 003e 5A80     		strh	r2, [r3, #2]	@ movhi
ARM GAS  C:\Users\Runeg\AppData\Local\Temp\ccusGBrN.s 			page 13


 137:..\..\..\common\hw\include/packet.h **** 
 138:..\..\..\common\hw\include/packet.h ****   return 0;
 435              		.loc 2 138 0
 436 0040 0023     		movs	r3, #0
 437              	.L20:
 139:..\..\..\common\hw\include/packet.h **** }
 438              		.loc 2 139 0
 439 0042 1846     		mov	r0, r3
 440 0044 1437     		adds	r7, r7, #20
 441              		.cfi_def_cfa_offset 4
 442 0046 BD46     		mov	sp, r7
 443              		.cfi_def_cfa_register 13
 444              		@ sp needed
 445 0048 80BC     		pop	{r7}
 446              		.cfi_restore 7
 447              		.cfi_def_cfa_offset 0
 448 004a 7047     		bx	lr
 449              		.cfi_endproc
 450              	.LFE6:
 451              		.size	dmc_packet_unmarshal_container_volume_measured, .-dmc_packet_unmarshal_container_volume_meas
 452              		.section	.text.dmc_packet_marshal_container_volume_measured,"ax",%progbits
 453              		.align	2
 454              		.thumb
 455              		.thumb_func
 456              		.type	dmc_packet_marshal_container_volume_measured, %function
 457              	dmc_packet_marshal_container_volume_measured:
 458              	.LFB7:
 140:..\..\..\common\hw\include/packet.h **** 
 141:..\..\..\common\hw\include/packet.h **** /**
 142:..\..\..\common\hw\include/packet.h ****  * @brief Marshal container volume measured packet struct into base packet
 143:..\..\..\common\hw\include/packet.h ****  */
 144:..\..\..\common\hw\include/packet.h **** static int dmc_packet_marshal_container_volume_measured(
 145:..\..\..\common\hw\include/packet.h ****     struct dmc_packet **to, struct dmc_packet_container_volume_measured *packet)
 146:..\..\..\common\hw\include/packet.h **** {
 459              		.loc 2 146 0
 460              		.cfi_startproc
 461              		@ args = 0, pretend = 0, frame = 16
 462              		@ frame_needed = 1, uses_anonymous_args = 0
 463 0000 80B5     		push	{r7, lr}
 464              		.cfi_def_cfa_offset 8
 465              		.cfi_offset 7, -8
 466              		.cfi_offset 14, -4
 467 0002 84B0     		sub	sp, sp, #16
 468              		.cfi_def_cfa_offset 24
 469 0004 00AF     		add	r7, sp, #0
 470              		.cfi_def_cfa_register 7
 471 0006 7860     		str	r0, [r7, #4]
 472 0008 3960     		str	r1, [r7]
 147:..\..\..\common\hw\include/packet.h ****   if (to == NULL)
 473              		.loc 2 147 0
 474 000a 7B68     		ldr	r3, [r7, #4]
 475 000c 002B     		cmp	r3, #0
 476 000e 02D1     		bne	.L22
 148:..\..\..\common\hw\include/packet.h ****   {
 149:..\..\..\common\hw\include/packet.h ****     // Pointer to the pointer must not be null
 150:..\..\..\common\hw\include/packet.h ****     return -1;
 477              		.loc 2 150 0
ARM GAS  C:\Users\Runeg\AppData\Local\Temp\ccusGBrN.s 			page 14


 478 0010 4FF0FF33 		mov	r3, #-1
 479 0014 2DE0     		b	.L23
 480              	.L22:
 151:..\..\..\common\hw\include/packet.h ****   }
 152:..\..\..\common\hw\include/packet.h ****   if (*to == NULL)
 481              		.loc 2 152 0
 482 0016 7B68     		ldr	r3, [r7, #4]
 483 0018 1B68     		ldr	r3, [r3]
 484 001a 002B     		cmp	r3, #0
 485 001c 05D1     		bne	.L24
 153:..\..\..\common\hw\include/packet.h ****   {
 154:..\..\..\common\hw\include/packet.h ****     *to = dmc_packet_init(DMC_PACKET_CONTAINER_VOLUME_MEASURED);
 486              		.loc 2 154 0
 487 001e 9220     		movs	r0, #146
 488 0020 FFF7FEFF 		bl	dmc_packet_init
 489 0024 0246     		mov	r2, r0
 490 0026 7B68     		ldr	r3, [r7, #4]
 491 0028 1A60     		str	r2, [r3]
 492              	.L24:
 155:..\..\..\common\hw\include/packet.h ****   }
 156:..\..\..\common\hw\include/packet.h ****   if ((*to)->type != DMC_PACKET_CONTAINER_VOLUME_MEASURED)
 493              		.loc 2 156 0
 494 002a 7B68     		ldr	r3, [r7, #4]
 495 002c 1B68     		ldr	r3, [r3]
 496 002e 1B78     		ldrb	r3, [r3]	@ zero_extendqisi2
 497 0030 922B     		cmp	r3, #146
 498 0032 02D0     		beq	.L25
 157:..\..\..\common\hw\include/packet.h ****   {
 158:..\..\..\common\hw\include/packet.h ****     return -2;
 499              		.loc 2 158 0
 500 0034 6FF00103 		mvn	r3, #1
 501 0038 1BE0     		b	.L23
 502              	.L25:
 159:..\..\..\common\hw\include/packet.h ****   }
 160:..\..\..\common\hw\include/packet.h **** 
 161:..\..\..\common\hw\include/packet.h ****   uint8_t offset                     = 0;
 503              		.loc 2 161 0
 504 003a 0023     		movs	r3, #0
 505 003c FB73     		strb	r3, [r7, #15]
 162:..\..\..\common\hw\include/packet.h ****   *(uint8_t *)((*to)->data + offset) = packet->container;
 506              		.loc 2 162 0
 507 003e 7B68     		ldr	r3, [r7, #4]
 508 0040 1B68     		ldr	r3, [r3]
 509 0042 5A68     		ldr	r2, [r3, #4]
 510 0044 FB7B     		ldrb	r3, [r7, #15]	@ zero_extendqisi2
 511 0046 1344     		add	r3, r3, r2
 512 0048 3A68     		ldr	r2, [r7]
 513 004a 1278     		ldrb	r2, [r2]	@ zero_extendqisi2
 514 004c 1A70     		strb	r2, [r3]
 163:..\..\..\common\hw\include/packet.h **** 
 164:..\..\..\common\hw\include/packet.h ****   offset += sizeof(packet->container); // Move offset of previous data
 515              		.loc 2 164 0
 516 004e FB7B     		ldrb	r3, [r7, #15]
 517 0050 0133     		adds	r3, r3, #1
 518 0052 FB73     		strb	r3, [r7, #15]
 165:..\..\..\common\hw\include/packet.h ****   *(uint8_t *)((*to)->data + offset) = packet->volume;
 519              		.loc 2 165 0
ARM GAS  C:\Users\Runeg\AppData\Local\Temp\ccusGBrN.s 			page 15


 520 0054 7B68     		ldr	r3, [r7, #4]
 521 0056 1B68     		ldr	r3, [r3]
 522 0058 5A68     		ldr	r2, [r3, #4]
 523 005a FB7B     		ldrb	r3, [r7, #15]	@ zero_extendqisi2
 524 005c 1344     		add	r3, r3, r2
 525 005e 3A68     		ldr	r2, [r7]
 526 0060 B2F90220 		ldrsh	r2, [r2, #2]
 527 0064 D2B2     		uxtb	r2, r2
 528 0066 1A70     		strb	r2, [r3]
 166:..\..\..\common\hw\include/packet.h **** 
 167:..\..\..\common\hw\include/packet.h ****   (*to)->data_len = sizeof(packet->container) + sizeof(packet->volume);
 529              		.loc 2 167 0
 530 0068 7B68     		ldr	r3, [r7, #4]
 531 006a 1B68     		ldr	r3, [r3]
 532 006c 0322     		movs	r2, #3
 533 006e 9A60     		str	r2, [r3, #8]
 168:..\..\..\common\hw\include/packet.h ****   return 0;
 534              		.loc 2 168 0
 535 0070 0023     		movs	r3, #0
 536              	.L23:
 169:..\..\..\common\hw\include/packet.h **** }
 537              		.loc 2 169 0
 538 0072 1846     		mov	r0, r3
 539 0074 1037     		adds	r7, r7, #16
 540              		.cfi_def_cfa_offset 8
 541 0076 BD46     		mov	sp, r7
 542              		.cfi_def_cfa_register 13
 543              		@ sp needed
 544 0078 80BD     		pop	{r7, pc}
 545              		.cfi_endproc
 546              	.LFE7:
 547              		.size	dmc_packet_marshal_container_volume_measured, .-dmc_packet_marshal_container_volume_measured
 548 007a 00BF     		.section	.text.dmc_packet_unmarshal_user_confirm,"ax",%progbits
 549              		.align	2
 550              		.thumb
 551              		.thumb_func
 552              		.type	dmc_packet_unmarshal_user_confirm, %function
 553              	dmc_packet_unmarshal_user_confirm:
 554              	.LFB8:
 170:..\..\..\common\hw\include/packet.h **** 
 171:..\..\..\common\hw\include/packet.h **** /**
 172:..\..\..\common\hw\include/packet.h ****  * @brief Packet declaring that a user has confirmed something on the
 173:..\..\..\common\hw\include/packet.h ****  * touchscreen
 174:..\..\..\common\hw\include/packet.h ****  *
 175:..\..\..\common\hw\include/packet.h ****  * Direction: RPi -> PSoC
 176:..\..\..\common\hw\include/packet.h ****  */
 177:..\..\..\common\hw\include/packet.h **** struct dmc_packet_user_confirm
 178:..\..\..\common\hw\include/packet.h **** {
 179:..\..\..\common\hw\include/packet.h **** };
 180:..\..\..\common\hw\include/packet.h **** 
 181:..\..\..\common\hw\include/packet.h **** /**
 182:..\..\..\common\hw\include/packet.h ****  * @brief Unmarshal data into user confirm packet from base packet
 183:..\..\..\common\hw\include/packet.h ****  */
 184:..\..\..\common\hw\include/packet.h **** static int
 185:..\..\..\common\hw\include/packet.h **** dmc_packet_unmarshal_user_confirm(struct dmc_packet_user_confirm *packet,
 186:..\..\..\common\hw\include/packet.h ****                                   struct dmc_packet              *from)
 187:..\..\..\common\hw\include/packet.h **** {
ARM GAS  C:\Users\Runeg\AppData\Local\Temp\ccusGBrN.s 			page 16


 555              		.loc 2 187 0
 556              		.cfi_startproc
 557              		@ args = 0, pretend = 0, frame = 8
 558              		@ frame_needed = 1, uses_anonymous_args = 0
 559              		@ link register save eliminated.
 560 0000 80B4     		push	{r7}
 561              		.cfi_def_cfa_offset 4
 562              		.cfi_offset 7, -4
 563 0002 83B0     		sub	sp, sp, #12
 564              		.cfi_def_cfa_offset 16
 565 0004 00AF     		add	r7, sp, #0
 566              		.cfi_def_cfa_register 7
 567 0006 7860     		str	r0, [r7, #4]
 568 0008 3960     		str	r1, [r7]
 188:..\..\..\common\hw\include/packet.h ****   if (from->type != DMC_PACKET_USER_CONFIRM)
 569              		.loc 2 188 0
 570 000a 3B68     		ldr	r3, [r7]
 571 000c 1B78     		ldrb	r3, [r3]	@ zero_extendqisi2
 572 000e A02B     		cmp	r3, #160
 573 0010 02D0     		beq	.L27
 189:..\..\..\common\hw\include/packet.h ****   {
 190:..\..\..\common\hw\include/packet.h ****     return -1;
 574              		.loc 2 190 0
 575 0012 4FF0FF33 		mov	r3, #-1
 576 0016 00E0     		b	.L28
 577              	.L27:
 191:..\..\..\common\hw\include/packet.h ****   }
 192:..\..\..\common\hw\include/packet.h **** 
 193:..\..\..\common\hw\include/packet.h ****   return 0;
 578              		.loc 2 193 0
 579 0018 0023     		movs	r3, #0
 580              	.L28:
 194:..\..\..\common\hw\include/packet.h **** }
 581              		.loc 2 194 0
 582 001a 1846     		mov	r0, r3
 583 001c 0C37     		adds	r7, r7, #12
 584              		.cfi_def_cfa_offset 4
 585 001e BD46     		mov	sp, r7
 586              		.cfi_def_cfa_register 13
 587              		@ sp needed
 588 0020 80BC     		pop	{r7}
 589              		.cfi_restore 7
 590              		.cfi_def_cfa_offset 0
 591 0022 7047     		bx	lr
 592              		.cfi_endproc
 593              	.LFE8:
 594              		.size	dmc_packet_unmarshal_user_confirm, .-dmc_packet_unmarshal_user_confirm
 595              		.section	.text.dmc_packet_marshal_user_confirm,"ax",%progbits
 596              		.align	2
 597              		.thumb
 598              		.thumb_func
 599              		.type	dmc_packet_marshal_user_confirm, %function
 600              	dmc_packet_marshal_user_confirm:
 601              	.LFB9:
 195:..\..\..\common\hw\include/packet.h **** 
 196:..\..\..\common\hw\include/packet.h **** /**
 197:..\..\..\common\hw\include/packet.h ****  * @brief Marshal user confirm packet struct into base packet
ARM GAS  C:\Users\Runeg\AppData\Local\Temp\ccusGBrN.s 			page 17


 198:..\..\..\common\hw\include/packet.h ****  */
 199:..\..\..\common\hw\include/packet.h **** static int
 200:..\..\..\common\hw\include/packet.h **** dmc_packet_marshal_user_confirm(struct dmc_packet             **to,
 201:..\..\..\common\hw\include/packet.h ****                                 struct dmc_packet_user_confirm *packet)
 202:..\..\..\common\hw\include/packet.h **** {
 602              		.loc 2 202 0
 603              		.cfi_startproc
 604              		@ args = 0, pretend = 0, frame = 8
 605              		@ frame_needed = 1, uses_anonymous_args = 0
 606 0000 80B5     		push	{r7, lr}
 607              		.cfi_def_cfa_offset 8
 608              		.cfi_offset 7, -8
 609              		.cfi_offset 14, -4
 610 0002 82B0     		sub	sp, sp, #8
 611              		.cfi_def_cfa_offset 16
 612 0004 00AF     		add	r7, sp, #0
 613              		.cfi_def_cfa_register 7
 614 0006 7860     		str	r0, [r7, #4]
 615 0008 3960     		str	r1, [r7]
 203:..\..\..\common\hw\include/packet.h ****   if (to == NULL)
 616              		.loc 2 203 0
 617 000a 7B68     		ldr	r3, [r7, #4]
 618 000c 002B     		cmp	r3, #0
 619 000e 02D1     		bne	.L30
 204:..\..\..\common\hw\include/packet.h ****   {
 205:..\..\..\common\hw\include/packet.h ****     // Pointer to the pointer must not be null
 206:..\..\..\common\hw\include/packet.h ****     return -1;
 620              		.loc 2 206 0
 621 0010 4FF0FF33 		mov	r3, #-1
 622 0014 12E0     		b	.L31
 623              	.L30:
 207:..\..\..\common\hw\include/packet.h ****   }
 208:..\..\..\common\hw\include/packet.h ****   if (*to == NULL)
 624              		.loc 2 208 0
 625 0016 7B68     		ldr	r3, [r7, #4]
 626 0018 1B68     		ldr	r3, [r3]
 627 001a 002B     		cmp	r3, #0
 628 001c 05D1     		bne	.L32
 209:..\..\..\common\hw\include/packet.h ****   {
 210:..\..\..\common\hw\include/packet.h ****     *to = dmc_packet_init(DMC_PACKET_USER_CONFIRM);
 629              		.loc 2 210 0
 630 001e A020     		movs	r0, #160
 631 0020 FFF7FEFF 		bl	dmc_packet_init
 632 0024 0246     		mov	r2, r0
 633 0026 7B68     		ldr	r3, [r7, #4]
 634 0028 1A60     		str	r2, [r3]
 635              	.L32:
 211:..\..\..\common\hw\include/packet.h ****   }
 212:..\..\..\common\hw\include/packet.h ****   if ((*to)->type != DMC_PACKET_USER_CONFIRM)
 636              		.loc 2 212 0
 637 002a 7B68     		ldr	r3, [r7, #4]
 638 002c 1B68     		ldr	r3, [r3]
 639 002e 1B78     		ldrb	r3, [r3]	@ zero_extendqisi2
 640 0030 A02B     		cmp	r3, #160
 641 0032 02D0     		beq	.L33
 213:..\..\..\common\hw\include/packet.h ****   {
 214:..\..\..\common\hw\include/packet.h ****     return -2;
ARM GAS  C:\Users\Runeg\AppData\Local\Temp\ccusGBrN.s 			page 18


 642              		.loc 2 214 0
 643 0034 6FF00103 		mvn	r3, #1
 644 0038 00E0     		b	.L31
 645              	.L33:
 215:..\..\..\common\hw\include/packet.h ****   }
 216:..\..\..\common\hw\include/packet.h **** 
 217:..\..\..\common\hw\include/packet.h ****   return 0;
 646              		.loc 2 217 0
 647 003a 0023     		movs	r3, #0
 648              	.L31:
 218:..\..\..\common\hw\include/packet.h **** }
 649              		.loc 2 218 0
 650 003c 1846     		mov	r0, r3
 651 003e 0837     		adds	r7, r7, #8
 652              		.cfi_def_cfa_offset 8
 653 0040 BD46     		mov	sp, r7
 654              		.cfi_def_cfa_register 13
 655              		@ sp needed
 656 0042 80BD     		pop	{r7, pc}
 657              		.cfi_endproc
 658              	.LFE9:
 659              		.size	dmc_packet_marshal_user_confirm, .-dmc_packet_marshal_user_confirm
 660              		.section	.text.dmc_packet_unmarshal_machine_ok,"ax",%progbits
 661              		.align	2
 662              		.thumb
 663              		.thumb_func
 664              		.type	dmc_packet_unmarshal_machine_ok, %function
 665              	dmc_packet_unmarshal_machine_ok:
 666              	.LFB10:
 219:..\..\..\common\hw\include/packet.h **** 
 220:..\..\..\common\hw\include/packet.h **** /**
 221:..\..\..\common\hw\include/packet.h ****  * @brief Packet declaring that machine is ok after being out of order
 222:..\..\..\common\hw\include/packet.h ****  *
 223:..\..\..\common\hw\include/packet.h ****  * Direction: RPi -> PSoC
 224:..\..\..\common\hw\include/packet.h ****  */
 225:..\..\..\common\hw\include/packet.h **** struct dmc_packet_machine_ok
 226:..\..\..\common\hw\include/packet.h **** {
 227:..\..\..\common\hw\include/packet.h **** };
 228:..\..\..\common\hw\include/packet.h **** 
 229:..\..\..\common\hw\include/packet.h **** /**
 230:..\..\..\common\hw\include/packet.h ****  * @brief Unmarshal data into machine ok packet from base packet
 231:..\..\..\common\hw\include/packet.h ****  */
 232:..\..\..\common\hw\include/packet.h **** static int dmc_packet_unmarshal_machine_ok(struct dmc_packet_machine_ok *packet,
 233:..\..\..\common\hw\include/packet.h ****                                            struct dmc_packet            *from)
 234:..\..\..\common\hw\include/packet.h **** {
 667              		.loc 2 234 0
 668              		.cfi_startproc
 669              		@ args = 0, pretend = 0, frame = 8
 670              		@ frame_needed = 1, uses_anonymous_args = 0
 671              		@ link register save eliminated.
 672 0000 80B4     		push	{r7}
 673              		.cfi_def_cfa_offset 4
 674              		.cfi_offset 7, -4
 675 0002 83B0     		sub	sp, sp, #12
 676              		.cfi_def_cfa_offset 16
 677 0004 00AF     		add	r7, sp, #0
 678              		.cfi_def_cfa_register 7
ARM GAS  C:\Users\Runeg\AppData\Local\Temp\ccusGBrN.s 			page 19


 679 0006 7860     		str	r0, [r7, #4]
 680 0008 3960     		str	r1, [r7]
 235:..\..\..\common\hw\include/packet.h ****   if (from->type != DMC_PACKET_MACHINE_OK)
 681              		.loc 2 235 0
 682 000a 3B68     		ldr	r3, [r7]
 683 000c 1B78     		ldrb	r3, [r3]	@ zero_extendqisi2
 684 000e D02B     		cmp	r3, #208
 685 0010 02D0     		beq	.L35
 236:..\..\..\common\hw\include/packet.h ****   {
 237:..\..\..\common\hw\include/packet.h ****     return -1;
 686              		.loc 2 237 0
 687 0012 4FF0FF33 		mov	r3, #-1
 688 0016 00E0     		b	.L36
 689              	.L35:
 238:..\..\..\common\hw\include/packet.h ****   }
 239:..\..\..\common\hw\include/packet.h **** 
 240:..\..\..\common\hw\include/packet.h ****   return 0;
 690              		.loc 2 240 0
 691 0018 0023     		movs	r3, #0
 692              	.L36:
 241:..\..\..\common\hw\include/packet.h **** }
 693              		.loc 2 241 0
 694 001a 1846     		mov	r0, r3
 695 001c 0C37     		adds	r7, r7, #12
 696              		.cfi_def_cfa_offset 4
 697 001e BD46     		mov	sp, r7
 698              		.cfi_def_cfa_register 13
 699              		@ sp needed
 700 0020 80BC     		pop	{r7}
 701              		.cfi_restore 7
 702              		.cfi_def_cfa_offset 0
 703 0022 7047     		bx	lr
 704              		.cfi_endproc
 705              	.LFE10:
 706              		.size	dmc_packet_unmarshal_machine_ok, .-dmc_packet_unmarshal_machine_ok
 707              		.section	.text.dmc_packet_marshal_machine_ok,"ax",%progbits
 708              		.align	2
 709              		.thumb
 710              		.thumb_func
 711              		.type	dmc_packet_marshal_machine_ok, %function
 712              	dmc_packet_marshal_machine_ok:
 713              	.LFB11:
 242:..\..\..\common\hw\include/packet.h **** 
 243:..\..\..\common\hw\include/packet.h **** /**
 244:..\..\..\common\hw\include/packet.h ****  * @brief Marshal machine ok packet struct into base packet
 245:..\..\..\common\hw\include/packet.h ****  */
 246:..\..\..\common\hw\include/packet.h **** static int
 247:..\..\..\common\hw\include/packet.h **** dmc_packet_marshal_machine_ok(struct dmc_packet             **to,
 248:..\..\..\common\hw\include/packet.h ****                                 struct dmc_packet_machine_ok *packet)
 249:..\..\..\common\hw\include/packet.h **** {
 714              		.loc 2 249 0
 715              		.cfi_startproc
 716              		@ args = 0, pretend = 0, frame = 8
 717              		@ frame_needed = 1, uses_anonymous_args = 0
 718 0000 80B5     		push	{r7, lr}
 719              		.cfi_def_cfa_offset 8
 720              		.cfi_offset 7, -8
ARM GAS  C:\Users\Runeg\AppData\Local\Temp\ccusGBrN.s 			page 20


 721              		.cfi_offset 14, -4
 722 0002 82B0     		sub	sp, sp, #8
 723              		.cfi_def_cfa_offset 16
 724 0004 00AF     		add	r7, sp, #0
 725              		.cfi_def_cfa_register 7
 726 0006 7860     		str	r0, [r7, #4]
 727 0008 3960     		str	r1, [r7]
 250:..\..\..\common\hw\include/packet.h ****   if (to == NULL)
 728              		.loc 2 250 0
 729 000a 7B68     		ldr	r3, [r7, #4]
 730 000c 002B     		cmp	r3, #0
 731 000e 02D1     		bne	.L38
 251:..\..\..\common\hw\include/packet.h ****   {
 252:..\..\..\common\hw\include/packet.h ****     // Pointer to the pointer must not be null
 253:..\..\..\common\hw\include/packet.h ****     return -1;
 732              		.loc 2 253 0
 733 0010 4FF0FF33 		mov	r3, #-1
 734 0014 12E0     		b	.L39
 735              	.L38:
 254:..\..\..\common\hw\include/packet.h ****   }
 255:..\..\..\common\hw\include/packet.h ****   if (*to == NULL)
 736              		.loc 2 255 0
 737 0016 7B68     		ldr	r3, [r7, #4]
 738 0018 1B68     		ldr	r3, [r3]
 739 001a 002B     		cmp	r3, #0
 740 001c 05D1     		bne	.L40
 256:..\..\..\common\hw\include/packet.h ****   {
 257:..\..\..\common\hw\include/packet.h ****     *to = dmc_packet_init(DMC_PACKET_MACHINE_OK);
 741              		.loc 2 257 0
 742 001e D020     		movs	r0, #208
 743 0020 FFF7FEFF 		bl	dmc_packet_init
 744 0024 0246     		mov	r2, r0
 745 0026 7B68     		ldr	r3, [r7, #4]
 746 0028 1A60     		str	r2, [r3]
 747              	.L40:
 258:..\..\..\common\hw\include/packet.h ****   }
 259:..\..\..\common\hw\include/packet.h ****   if ((*to)->type != DMC_PACKET_MACHINE_OK)
 748              		.loc 2 259 0
 749 002a 7B68     		ldr	r3, [r7, #4]
 750 002c 1B68     		ldr	r3, [r3]
 751 002e 1B78     		ldrb	r3, [r3]	@ zero_extendqisi2
 752 0030 D02B     		cmp	r3, #208
 753 0032 02D0     		beq	.L41
 260:..\..\..\common\hw\include/packet.h ****   {
 261:..\..\..\common\hw\include/packet.h ****     return -2;
 754              		.loc 2 261 0
 755 0034 6FF00103 		mvn	r3, #1
 756 0038 00E0     		b	.L39
 757              	.L41:
 262:..\..\..\common\hw\include/packet.h ****   }
 263:..\..\..\common\hw\include/packet.h **** 
 264:..\..\..\common\hw\include/packet.h ****    return 0;
 758              		.loc 2 264 0
 759 003a 0023     		movs	r3, #0
 760              	.L39:
 265:..\..\..\common\hw\include/packet.h **** }
 761              		.loc 2 265 0
ARM GAS  C:\Users\Runeg\AppData\Local\Temp\ccusGBrN.s 			page 21


 762 003c 1846     		mov	r0, r3
 763 003e 0837     		adds	r7, r7, #8
 764              		.cfi_def_cfa_offset 8
 765 0040 BD46     		mov	sp, r7
 766              		.cfi_def_cfa_register 13
 767              		@ sp needed
 768 0042 80BD     		pop	{r7, pc}
 769              		.cfi_endproc
 770              	.LFE11:
 771              		.size	dmc_packet_marshal_machine_ok, .-dmc_packet_marshal_machine_ok
 772              		.section	.text.dmc_packet_unmarshal_fluid_pour_requested,"ax",%progbits
 773              		.align	2
 774              		.thumb
 775              		.thumb_func
 776              		.type	dmc_packet_unmarshal_fluid_pour_requested, %function
 777              	dmc_packet_unmarshal_fluid_pour_requested:
 778              	.LFB12:
 266:..\..\..\common\hw\include/packet.h **** 
 267:..\..\..\common\hw\include/packet.h **** /**
 268:..\..\..\common\hw\include/packet.h ****  * @brief Packet declaring that the machine should start to pour fluid.
 269:..\..\..\common\hw\include/packet.h ****  *
 270:..\..\..\common\hw\include/packet.h ****  * Direction: RPi -> PSoC
 271:..\..\..\common\hw\include/packet.h ****  */
 272:..\..\..\common\hw\include/packet.h **** struct dmc_packet_fluid_pour_requested
 273:..\..\..\common\hw\include/packet.h **** {
 274:..\..\..\common\hw\include/packet.h ****   /**
 275:..\..\..\common\hw\include/packet.h ****    * @brief The container to pour from. Ranging from 0-2
 276:..\..\..\common\hw\include/packet.h ****    */
 277:..\..\..\common\hw\include/packet.h ****   uint8_t container;
 278:..\..\..\common\hw\include/packet.h **** 
 279:..\..\..\common\hw\include/packet.h ****   /**
 280:..\..\..\common\hw\include/packet.h ****    * @brief Amount to pour in centiliters
 281:..\..\..\common\hw\include/packet.h ****    */
 282:..\..\..\common\hw\include/packet.h ****   uint8_t amount;
 283:..\..\..\common\hw\include/packet.h **** };
 284:..\..\..\common\hw\include/packet.h **** 
 285:..\..\..\common\hw\include/packet.h **** /**
 286:..\..\..\common\hw\include/packet.h ****  * @brief Unmarshal data into fluid pour requested packet from base packet
 287:..\..\..\common\hw\include/packet.h ****  */
 288:..\..\..\common\hw\include/packet.h **** static int dmc_packet_unmarshal_fluid_pour_requested(
 289:..\..\..\common\hw\include/packet.h ****     struct dmc_packet_fluid_pour_requested *packet, struct dmc_packet *from)
 290:..\..\..\common\hw\include/packet.h **** {
 779              		.loc 2 290 0
 780              		.cfi_startproc
 781              		@ args = 0, pretend = 0, frame = 16
 782              		@ frame_needed = 1, uses_anonymous_args = 0
 783              		@ link register save eliminated.
 784 0000 80B4     		push	{r7}
 785              		.cfi_def_cfa_offset 4
 786              		.cfi_offset 7, -4
 787 0002 85B0     		sub	sp, sp, #20
 788              		.cfi_def_cfa_offset 24
 789 0004 00AF     		add	r7, sp, #0
 790              		.cfi_def_cfa_register 7
 791 0006 7860     		str	r0, [r7, #4]
 792 0008 3960     		str	r1, [r7]
 291:..\..\..\common\hw\include/packet.h ****   if (from->type != DMC_PACKET_FLUID_POUR_REQUESTED)
ARM GAS  C:\Users\Runeg\AppData\Local\Temp\ccusGBrN.s 			page 22


 793              		.loc 2 291 0
 794 000a 3B68     		ldr	r3, [r7]
 795 000c 1B78     		ldrb	r3, [r3]	@ zero_extendqisi2
 796 000e B22B     		cmp	r3, #178
 797 0010 02D0     		beq	.L43
 292:..\..\..\common\hw\include/packet.h ****   {
 293:..\..\..\common\hw\include/packet.h ****     return -1;
 798              		.loc 2 293 0
 799 0012 4FF0FF33 		mov	r3, #-1
 800 0016 13E0     		b	.L44
 801              	.L43:
 294:..\..\..\common\hw\include/packet.h ****   }
 295:..\..\..\common\hw\include/packet.h **** 
 296:..\..\..\common\hw\include/packet.h ****   uint8_t offset    = 0;
 802              		.loc 2 296 0
 803 0018 0023     		movs	r3, #0
 804 001a FB73     		strb	r3, [r7, #15]
 297:..\..\..\common\hw\include/packet.h ****   packet->container = *(uint8_t *)(from->data + offset);
 805              		.loc 2 297 0
 806 001c 3B68     		ldr	r3, [r7]
 807 001e 5A68     		ldr	r2, [r3, #4]
 808 0020 FB7B     		ldrb	r3, [r7, #15]	@ zero_extendqisi2
 809 0022 1344     		add	r3, r3, r2
 810 0024 1A78     		ldrb	r2, [r3]	@ zero_extendqisi2
 811 0026 7B68     		ldr	r3, [r7, #4]
 812 0028 1A70     		strb	r2, [r3]
 298:..\..\..\common\hw\include/packet.h **** 
 299:..\..\..\common\hw\include/packet.h ****   offset += sizeof(packet->container); // Move offset of previous data
 813              		.loc 2 299 0
 814 002a FB7B     		ldrb	r3, [r7, #15]
 815 002c 0133     		adds	r3, r3, #1
 816 002e FB73     		strb	r3, [r7, #15]
 300:..\..\..\common\hw\include/packet.h ****   packet->amount = *(uint8_t *)(from->data + offset);
 817              		.loc 2 300 0
 818 0030 3B68     		ldr	r3, [r7]
 819 0032 5A68     		ldr	r2, [r3, #4]
 820 0034 FB7B     		ldrb	r3, [r7, #15]	@ zero_extendqisi2
 821 0036 1344     		add	r3, r3, r2
 822 0038 1A78     		ldrb	r2, [r3]	@ zero_extendqisi2
 823 003a 7B68     		ldr	r3, [r7, #4]
 824 003c 5A70     		strb	r2, [r3, #1]
 301:..\..\..\common\hw\include/packet.h **** 
 302:..\..\..\common\hw\include/packet.h ****   return 0;
 825              		.loc 2 302 0
 826 003e 0023     		movs	r3, #0
 827              	.L44:
 303:..\..\..\common\hw\include/packet.h **** }
 828              		.loc 2 303 0
 829 0040 1846     		mov	r0, r3
 830 0042 1437     		adds	r7, r7, #20
 831              		.cfi_def_cfa_offset 4
 832 0044 BD46     		mov	sp, r7
 833              		.cfi_def_cfa_register 13
 834              		@ sp needed
 835 0046 80BC     		pop	{r7}
 836              		.cfi_restore 7
 837              		.cfi_def_cfa_offset 0
ARM GAS  C:\Users\Runeg\AppData\Local\Temp\ccusGBrN.s 			page 23


 838 0048 7047     		bx	lr
 839              		.cfi_endproc
 840              	.LFE12:
 841              		.size	dmc_packet_unmarshal_fluid_pour_requested, .-dmc_packet_unmarshal_fluid_pour_requested
 842 004a 00BF     		.section	.text.dmc_packet_marshal_fluid_pour_requested,"ax",%progbits
 843              		.align	2
 844              		.thumb
 845              		.thumb_func
 846              		.type	dmc_packet_marshal_fluid_pour_requested, %function
 847              	dmc_packet_marshal_fluid_pour_requested:
 848              	.LFB13:
 304:..\..\..\common\hw\include/packet.h **** 
 305:..\..\..\common\hw\include/packet.h **** /**
 306:..\..\..\common\hw\include/packet.h ****  * @brief Marshal fluid pour requested packet struct into base packet
 307:..\..\..\common\hw\include/packet.h ****  */
 308:..\..\..\common\hw\include/packet.h **** static int dmc_packet_marshal_fluid_pour_requested(
 309:..\..\..\common\hw\include/packet.h ****     struct dmc_packet **to, struct dmc_packet_fluid_pour_requested *packet)
 310:..\..\..\common\hw\include/packet.h **** {
 849              		.loc 2 310 0
 850              		.cfi_startproc
 851              		@ args = 0, pretend = 0, frame = 16
 852              		@ frame_needed = 1, uses_anonymous_args = 0
 853 0000 80B5     		push	{r7, lr}
 854              		.cfi_def_cfa_offset 8
 855              		.cfi_offset 7, -8
 856              		.cfi_offset 14, -4
 857 0002 84B0     		sub	sp, sp, #16
 858              		.cfi_def_cfa_offset 24
 859 0004 00AF     		add	r7, sp, #0
 860              		.cfi_def_cfa_register 7
 861 0006 7860     		str	r0, [r7, #4]
 862 0008 3960     		str	r1, [r7]
 311:..\..\..\common\hw\include/packet.h ****   if (to == NULL)
 863              		.loc 2 311 0
 864 000a 7B68     		ldr	r3, [r7, #4]
 865 000c 002B     		cmp	r3, #0
 866 000e 02D1     		bne	.L46
 312:..\..\..\common\hw\include/packet.h ****   {
 313:..\..\..\common\hw\include/packet.h ****     // Pointer to the pointer must not be null
 314:..\..\..\common\hw\include/packet.h ****     return -1;
 867              		.loc 2 314 0
 868 0010 4FF0FF33 		mov	r3, #-1
 869 0014 2FE0     		b	.L47
 870              	.L46:
 315:..\..\..\common\hw\include/packet.h ****   }
 316:..\..\..\common\hw\include/packet.h ****   if (*to == NULL)
 871              		.loc 2 316 0
 872 0016 7B68     		ldr	r3, [r7, #4]
 873 0018 1B68     		ldr	r3, [r3]
 874 001a 002B     		cmp	r3, #0
 875 001c 05D1     		bne	.L48
 317:..\..\..\common\hw\include/packet.h ****   {
 318:..\..\..\common\hw\include/packet.h ****     // If the underlying dmc_packet* is not yet allocalted, allocate it
 319:..\..\..\common\hw\include/packet.h ****     *to = dmc_packet_init(DMC_PACKET_FLUID_POUR_REQUESTED);
 876              		.loc 2 319 0
 877 001e B220     		movs	r0, #178
 878 0020 FFF7FEFF 		bl	dmc_packet_init
ARM GAS  C:\Users\Runeg\AppData\Local\Temp\ccusGBrN.s 			page 24


 879 0024 0246     		mov	r2, r0
 880 0026 7B68     		ldr	r3, [r7, #4]
 881 0028 1A60     		str	r2, [r3]
 882              	.L48:
 320:..\..\..\common\hw\include/packet.h ****   }
 321:..\..\..\common\hw\include/packet.h ****   if (*to != NULL && (*to)->type != DMC_PACKET_FLUID_POUR_REQUESTED)
 883              		.loc 2 321 0
 884 002a 7B68     		ldr	r3, [r7, #4]
 885 002c 1B68     		ldr	r3, [r3]
 886 002e 002B     		cmp	r3, #0
 887 0030 07D0     		beq	.L49
 888              		.loc 2 321 0 is_stmt 0 discriminator 1
 889 0032 7B68     		ldr	r3, [r7, #4]
 890 0034 1B68     		ldr	r3, [r3]
 891 0036 1B78     		ldrb	r3, [r3]	@ zero_extendqisi2
 892 0038 B22B     		cmp	r3, #178
 893 003a 02D0     		beq	.L49
 322:..\..\..\common\hw\include/packet.h ****   {
 323:..\..\..\common\hw\include/packet.h ****     // If type of underlying dmc_packet* is not the same as the packet type,
 324:..\..\..\common\hw\include/packet.h ****     // then return error
 325:..\..\..\common\hw\include/packet.h ****     return -2;
 894              		.loc 2 325 0 is_stmt 1
 895 003c 6FF00103 		mvn	r3, #1
 896 0040 19E0     		b	.L47
 897              	.L49:
 326:..\..\..\common\hw\include/packet.h ****   }
 327:..\..\..\common\hw\include/packet.h **** 
 328:..\..\..\common\hw\include/packet.h ****   uint8_t offset                     = 0;
 898              		.loc 2 328 0
 899 0042 0023     		movs	r3, #0
 900 0044 FB73     		strb	r3, [r7, #15]
 329:..\..\..\common\hw\include/packet.h ****   *(uint8_t *)((*to)->data + offset) = packet->container;
 901              		.loc 2 329 0
 902 0046 7B68     		ldr	r3, [r7, #4]
 903 0048 1B68     		ldr	r3, [r3]
 904 004a 5A68     		ldr	r2, [r3, #4]
 905 004c FB7B     		ldrb	r3, [r7, #15]	@ zero_extendqisi2
 906 004e 1344     		add	r3, r3, r2
 907 0050 3A68     		ldr	r2, [r7]
 908 0052 1278     		ldrb	r2, [r2]	@ zero_extendqisi2
 909 0054 1A70     		strb	r2, [r3]
 330:..\..\..\common\hw\include/packet.h **** 
 331:..\..\..\common\hw\include/packet.h ****   offset += sizeof(packet->container); // Move offset of previous data
 910              		.loc 2 331 0
 911 0056 FB7B     		ldrb	r3, [r7, #15]
 912 0058 0133     		adds	r3, r3, #1
 913 005a FB73     		strb	r3, [r7, #15]
 332:..\..\..\common\hw\include/packet.h ****   *(uint8_t *)((*to)->data + offset) = packet->amount;
 914              		.loc 2 332 0
 915 005c 7B68     		ldr	r3, [r7, #4]
 916 005e 1B68     		ldr	r3, [r3]
 917 0060 5A68     		ldr	r2, [r3, #4]
 918 0062 FB7B     		ldrb	r3, [r7, #15]	@ zero_extendqisi2
 919 0064 1344     		add	r3, r3, r2
 920 0066 3A68     		ldr	r2, [r7]
 921 0068 5278     		ldrb	r2, [r2, #1]	@ zero_extendqisi2
 922 006a 1A70     		strb	r2, [r3]
ARM GAS  C:\Users\Runeg\AppData\Local\Temp\ccusGBrN.s 			page 25


 333:..\..\..\common\hw\include/packet.h **** 
 334:..\..\..\common\hw\include/packet.h ****   (*to)->data_len = sizeof(packet->container) + sizeof(packet->amount);
 923              		.loc 2 334 0
 924 006c 7B68     		ldr	r3, [r7, #4]
 925 006e 1B68     		ldr	r3, [r3]
 926 0070 0222     		movs	r2, #2
 927 0072 9A60     		str	r2, [r3, #8]
 335:..\..\..\common\hw\include/packet.h ****   return 0;
 928              		.loc 2 335 0
 929 0074 0023     		movs	r3, #0
 930              	.L47:
 336:..\..\..\common\hw\include/packet.h **** }
 931              		.loc 2 336 0
 932 0076 1846     		mov	r0, r3
 933 0078 1037     		adds	r7, r7, #16
 934              		.cfi_def_cfa_offset 8
 935 007a BD46     		mov	sp, r7
 936              		.cfi_def_cfa_register 13
 937              		@ sp needed
 938 007c 80BD     		pop	{r7, pc}
 939              		.cfi_endproc
 940              	.LFE13:
 941              		.size	dmc_packet_marshal_fluid_pour_requested, .-dmc_packet_marshal_fluid_pour_requested
 942 007e 00BF     		.section	.rodata
 943              		.align	2
 944              	.LC0:
 945 0000 3100     		.ascii	"1\000"
 946 0002 0000     		.align	2
 947              	.LC1:
 948 0004 3000     		.ascii	"0\000"
 949              		.section	.text.byte_to_binary,"ax",%progbits
 950              		.align	2
 951              		.global	byte_to_binary
 952              		.thumb
 953              		.thumb_func
 954              		.type	byte_to_binary, %function
 955              	byte_to_binary:
 956              	.LFB78:
 957              		.file 3 "bro.c"
   1:bro.c         **** /*
   2:bro.c         ****  *
   3:bro.c         ****  * Copyright YOUR COMPANY, THE YEAR
   4:bro.c         ****  * All Rights Reserved
   5:bro.c         ****  * UNPUBLISHED, LICENSED SOFTWARE.
   6:bro.c         ****  *
   7:bro.c         ****  * CONFIDENTIAL AND PROPRIETARY INFORMATION
   8:bro.c         ****  * WHICH IS THE PROPERTY OF your company.
   9:bro.c         ****  *
  10:bro.c         ****  * ========================================
  11:bro.c         **** */
  12:bro.c         **** 
  13:bro.c         **** #include "job_queue.h"
  14:bro.c         **** #include "project.h"
  15:bro.c         **** #include "uart_rpi.h"
  16:bro.c         **** #include "stdio.h"
  17:bro.c         **** 
  18:bro.c         **** const char *byte_to_binary(uint8_t x)
ARM GAS  C:\Users\Runeg\AppData\Local\Temp\ccusGBrN.s 			page 26


  19:bro.c         **** {
 958              		.loc 3 19 0
 959              		.cfi_startproc
 960              		@ args = 0, pretend = 0, frame = 16
 961              		@ frame_needed = 1, uses_anonymous_args = 0
 962 0000 80B5     		push	{r7, lr}
 963              		.cfi_def_cfa_offset 8
 964              		.cfi_offset 7, -8
 965              		.cfi_offset 14, -4
 966 0002 84B0     		sub	sp, sp, #16
 967              		.cfi_def_cfa_offset 24
 968 0004 00AF     		add	r7, sp, #0
 969              		.cfi_def_cfa_register 7
 970 0006 0346     		mov	r3, r0
 971 0008 FB71     		strb	r3, [r7, #7]
  20:bro.c         ****     static char b[9];
  21:bro.c         ****     b[0] = '\0';
 972              		.loc 3 21 0
 973 000a 0F4B     		ldr	r3, .L56
 974 000c 0022     		movs	r2, #0
 975 000e 1A70     		strb	r2, [r3]
  22:bro.c         **** 
  23:bro.c         ****     int z;
  24:bro.c         ****     for (z = 128; z > 0; z >>= 1)
 976              		.loc 3 24 0
 977 0010 8023     		movs	r3, #128
 978 0012 FB60     		str	r3, [r7, #12]
 979 0014 0FE0     		b	.L51
 980              	.L54:
  25:bro.c         ****     {
  26:bro.c         ****         strcat(b, ((x & z) == z) ? "1" : "0");
 981              		.loc 3 26 0
 982 0016 FA79     		ldrb	r2, [r7, #7]	@ zero_extendqisi2
 983 0018 FB68     		ldr	r3, [r7, #12]
 984 001a 1A40     		ands	r2, r2, r3
 985 001c FB68     		ldr	r3, [r7, #12]
 986 001e 9A42     		cmp	r2, r3
 987 0020 01D1     		bne	.L52
 988              		.loc 3 26 0 is_stmt 0 discriminator 1
 989 0022 0A4B     		ldr	r3, .L56+4
 990 0024 00E0     		b	.L53
 991              	.L52:
 992              		.loc 3 26 0 discriminator 2
 993 0026 0A4B     		ldr	r3, .L56+8
 994              	.L53:
 995              		.loc 3 26 0 discriminator 4
 996 0028 1946     		mov	r1, r3
 997 002a 0748     		ldr	r0, .L56
 998 002c FFF7FEFF 		bl	strcat
  24:bro.c         ****     {
 999              		.loc 3 24 0 is_stmt 1 discriminator 4
 1000 0030 FB68     		ldr	r3, [r7, #12]
 1001 0032 5B10     		asrs	r3, r3, #1
 1002 0034 FB60     		str	r3, [r7, #12]
 1003              	.L51:
  24:bro.c         ****     {
 1004              		.loc 3 24 0 is_stmt 0 discriminator 2
ARM GAS  C:\Users\Runeg\AppData\Local\Temp\ccusGBrN.s 			page 27


 1005 0036 FB68     		ldr	r3, [r7, #12]
 1006 0038 002B     		cmp	r3, #0
 1007 003a ECDC     		bgt	.L54
  27:bro.c         ****     }
  28:bro.c         **** 
  29:bro.c         ****     return b;
 1008              		.loc 3 29 0 is_stmt 1
 1009 003c 024B     		ldr	r3, .L56
  30:bro.c         **** }
 1010              		.loc 3 30 0
 1011 003e 1846     		mov	r0, r3
 1012 0040 1037     		adds	r7, r7, #16
 1013              		.cfi_def_cfa_offset 8
 1014 0042 BD46     		mov	sp, r7
 1015              		.cfi_def_cfa_register 13
 1016              		@ sp needed
 1017 0044 80BD     		pop	{r7, pc}
 1018              	.L57:
 1019 0046 00BF     		.align	2
 1020              	.L56:
 1021 0048 04000000 		.word	b.7523
 1022 004c 00000000 		.word	.LC0
 1023 0050 04000000 		.word	.LC1
 1024              		.cfi_endproc
 1025              	.LFE78:
 1026              		.size	byte_to_binary, .-byte_to_binary
 1027              		.comm	current_packet,4,4
 1028              		.global	discard_packet
 1029              		.bss
 1030              		.align	2
 1031              		.type	discard_packet, %object
 1032              		.size	discard_packet, 4
 1033              	discard_packet:
 1034 0000 00000000 		.space	4
 1035              		.section	.text.uart_send_packet,"ax",%progbits
 1036              		.align	2
 1037              		.global	uart_send_packet
 1038              		.thumb
 1039              		.thumb_func
 1040              		.type	uart_send_packet, %function
 1041              	uart_send_packet:
 1042              	.LFB79:
  31:bro.c         **** 
  32:bro.c         **** CY_ISR_PROTO(ISR_uart_rpi_rx_handler);
  33:bro.c         **** 
  34:bro.c         **** 
  35:bro.c         **** struct dmc_packet* current_packet;
  36:bro.c         **** int discard_packet = 0;
  37:bro.c         **** 
  38:bro.c         **** 
  39:bro.c         **** 
  40:bro.c         **** void uart_send_packet(struct dmc_packet* packet) {
 1043              		.loc 3 40 0
 1044              		.cfi_startproc
 1045              		@ args = 0, pretend = 0, frame = 16
 1046              		@ frame_needed = 1, uses_anonymous_args = 0
 1047 0000 80B5     		push	{r7, lr}
ARM GAS  C:\Users\Runeg\AppData\Local\Temp\ccusGBrN.s 			page 28


 1048              		.cfi_def_cfa_offset 8
 1049              		.cfi_offset 7, -8
 1050              		.cfi_offset 14, -4
 1051 0002 84B0     		sub	sp, sp, #16
 1052              		.cfi_def_cfa_offset 24
 1053 0004 00AF     		add	r7, sp, #0
 1054              		.cfi_def_cfa_register 7
 1055 0006 7860     		str	r0, [r7, #4]
  41:bro.c         ****     
  42:bro.c         ****     // Send type as first byte
  43:bro.c         ****     uart_rpi_WriteTxData((uint8_t)packet->type);
 1056              		.loc 3 43 0
 1057 0008 7B68     		ldr	r3, [r7, #4]
 1058 000a 1B78     		ldrb	r3, [r3]	@ zero_extendqisi2
 1059 000c 1846     		mov	r0, r3
 1060 000e FFF7FEFF 		bl	uart_rpi_WriteTxData
 1061              	.LBB2:
  44:bro.c         ****     
  45:bro.c         ****     // Send all data bytes
  46:bro.c         ****     for (size_t i = 0; i < packet->data_len; i++) {
 1062              		.loc 3 46 0
 1063 0012 0023     		movs	r3, #0
 1064 0014 FB60     		str	r3, [r7, #12]
 1065 0016 0AE0     		b	.L59
 1066              	.L60:
  47:bro.c         ****         uart_rpi_WriteTxData((uint8_t)packet->data[i]);
 1067              		.loc 3 47 0 discriminator 3
 1068 0018 7B68     		ldr	r3, [r7, #4]
 1069 001a 5A68     		ldr	r2, [r3, #4]
 1070 001c FB68     		ldr	r3, [r7, #12]
 1071 001e 1344     		add	r3, r3, r2
 1072 0020 1B78     		ldrb	r3, [r3]	@ zero_extendqisi2
 1073 0022 1846     		mov	r0, r3
 1074 0024 FFF7FEFF 		bl	uart_rpi_WriteTxData
  46:bro.c         ****         uart_rpi_WriteTxData((uint8_t)packet->data[i]);
 1075              		.loc 3 46 0 discriminator 3
 1076 0028 FB68     		ldr	r3, [r7, #12]
 1077 002a 0133     		adds	r3, r3, #1
 1078 002c FB60     		str	r3, [r7, #12]
 1079              	.L59:
  46:bro.c         ****         uart_rpi_WriteTxData((uint8_t)packet->data[i]);
 1080              		.loc 3 46 0 is_stmt 0 discriminator 1
 1081 002e 7B68     		ldr	r3, [r7, #4]
 1082 0030 9A68     		ldr	r2, [r3, #8]
 1083 0032 FB68     		ldr	r3, [r7, #12]
 1084 0034 9A42     		cmp	r2, r3
 1085 0036 EFD8     		bhi	.L60
 1086              	.LBE2:
  48:bro.c         ****     }
  49:bro.c         **** }
 1087              		.loc 3 49 0 is_stmt 1
 1088 0038 00BF     		nop
 1089 003a 1037     		adds	r7, r7, #16
 1090              		.cfi_def_cfa_offset 8
 1091 003c BD46     		mov	sp, r7
 1092              		.cfi_def_cfa_register 13
 1093              		@ sp needed
ARM GAS  C:\Users\Runeg\AppData\Local\Temp\ccusGBrN.s 			page 29


 1094 003e 80BD     		pop	{r7, pc}
 1095              		.cfi_endproc
 1096              	.LFE79:
 1097              		.size	uart_send_packet, .-uart_send_packet
 1098              		.comm	raise_flag_handler,4,4
 1099              		.section	.text.init_uart_rpi,"ax",%progbits
 1100              		.align	2
 1101              		.global	init_uart_rpi
 1102              		.thumb
 1103              		.thumb_func
 1104              		.type	init_uart_rpi, %function
 1105              	init_uart_rpi:
 1106              	.LFB80:
  50:bro.c         **** 
  51:bro.c         **** 
  52:bro.c         **** int (*raise_flag_handler)(struct dmc_packet*);
  53:bro.c         **** 
  54:bro.c         **** 
  55:bro.c         **** void init_uart_rpi(int (*raise_flag)(struct dmc_packet*) )
  56:bro.c         **** {   
 1107              		.loc 3 56 0
 1108              		.cfi_startproc
 1109              		@ args = 0, pretend = 0, frame = 8
 1110              		@ frame_needed = 1, uses_anonymous_args = 0
 1111 0000 80B5     		push	{r7, lr}
 1112              		.cfi_def_cfa_offset 8
 1113              		.cfi_offset 7, -8
 1114              		.cfi_offset 14, -4
 1115 0002 82B0     		sub	sp, sp, #8
 1116              		.cfi_def_cfa_offset 16
 1117 0004 00AF     		add	r7, sp, #0
 1118              		.cfi_def_cfa_register 7
 1119 0006 7860     		str	r0, [r7, #4]
  57:bro.c         ****     
  58:bro.c         ****     raise_flag_handler = raise_flag;
 1120              		.loc 3 58 0
 1121 0008 054A     		ldr	r2, .L62
 1122 000a 7B68     		ldr	r3, [r7, #4]
 1123 000c 1360     		str	r3, [r2]
  59:bro.c         ****     
  60:bro.c         ****     isr_uart_rpi_rx_StartEx(ISR_uart_rpi_rx_handler);
 1124              		.loc 3 60 0
 1125 000e 0548     		ldr	r0, .L62+4
 1126 0010 FFF7FEFF 		bl	isr_uart_rpi_rx_StartEx
  61:bro.c         ****     
  62:bro.c         ****     uart_rpi_Start();
 1127              		.loc 3 62 0
 1128 0014 FFF7FEFF 		bl	uart_rpi_Start
  63:bro.c         **** }
 1129              		.loc 3 63 0
 1130 0018 00BF     		nop
 1131 001a 0837     		adds	r7, r7, #8
 1132              		.cfi_def_cfa_offset 8
 1133 001c BD46     		mov	sp, r7
 1134              		.cfi_def_cfa_register 13
 1135              		@ sp needed
 1136 001e 80BD     		pop	{r7, pc}
ARM GAS  C:\Users\Runeg\AppData\Local\Temp\ccusGBrN.s 			page 30


 1137              	.L63:
 1138              		.align	2
 1139              	.L62:
 1140 0020 00000000 		.word	raise_flag_handler
 1141 0024 00000000 		.word	ISR_uart_rpi_rx_handler
 1142              		.cfi_endproc
 1143              	.LFE80:
 1144              		.size	init_uart_rpi, .-init_uart_rpi
 1145              		.section	.text.init_uart_rpi_simple,"ax",%progbits
 1146              		.align	2
 1147              		.global	init_uart_rpi_simple
 1148              		.thumb
 1149              		.thumb_func
 1150              		.type	init_uart_rpi_simple, %function
 1151              	init_uart_rpi_simple:
 1152              	.LFB81:
  64:bro.c         **** 
  65:bro.c         **** 
  66:bro.c         **** void init_uart_rpi_simple()
  67:bro.c         **** {
 1153              		.loc 3 67 0
 1154              		.cfi_startproc
 1155              		@ args = 0, pretend = 0, frame = 0
 1156              		@ frame_needed = 1, uses_anonymous_args = 0
 1157 0000 80B5     		push	{r7, lr}
 1158              		.cfi_def_cfa_offset 8
 1159              		.cfi_offset 7, -8
 1160              		.cfi_offset 14, -4
 1161 0002 00AF     		add	r7, sp, #0
 1162              		.cfi_def_cfa_register 7
  68:bro.c         ****     isr_uart_rpi_rx_StartEx(ISR_uart_rpi_rx_handler);
 1163              		.loc 3 68 0
 1164 0004 0348     		ldr	r0, .L65
 1165 0006 FFF7FEFF 		bl	isr_uart_rpi_rx_StartEx
  69:bro.c         ****     
  70:bro.c         ****     uart_rpi_Start();
 1166              		.loc 3 70 0
 1167 000a FFF7FEFF 		bl	uart_rpi_Start
  71:bro.c         **** }
 1168              		.loc 3 71 0
 1169 000e 00BF     		nop
 1170 0010 80BD     		pop	{r7, pc}
 1171              	.L66:
 1172 0012 00BF     		.align	2
 1173              	.L65:
 1174 0014 00000000 		.word	ISR_uart_rpi_rx_handler
 1175              		.cfi_endproc
 1176              	.LFE81:
 1177              		.size	init_uart_rpi_simple, .-init_uart_rpi_simple
 1178              		.section	.text.handle_byte_received,"ax",%progbits
 1179              		.align	2
 1180              		.global	handle_byte_received
 1181              		.thumb
 1182              		.thumb_func
 1183              		.type	handle_byte_received, %function
 1184              	handle_byte_received:
 1185              	.LFB82:
ARM GAS  C:\Users\Runeg\AppData\Local\Temp\ccusGBrN.s 			page 31


  72:bro.c         **** 
  73:bro.c         **** 
  74:bro.c         **** void handle_byte_received(uint8_t byteReceived)
  75:bro.c         **** {    
 1186              		.loc 3 75 0
 1187              		.cfi_startproc
 1188              		@ args = 0, pretend = 0, frame = 8
 1189              		@ frame_needed = 1, uses_anonymous_args = 0
 1190 0000 80B5     		push	{r7, lr}
 1191              		.cfi_def_cfa_offset 8
 1192              		.cfi_offset 7, -8
 1193              		.cfi_offset 14, -4
 1194 0002 82B0     		sub	sp, sp, #8
 1195              		.cfi_def_cfa_offset 16
 1196 0004 00AF     		add	r7, sp, #0
 1197              		.cfi_def_cfa_register 7
 1198 0006 0346     		mov	r3, r0
 1199 0008 FB71     		strb	r3, [r7, #7]
  76:bro.c         ****     if (byteReceived == 0)
 1200              		.loc 3 76 0
 1201 000a FB79     		ldrb	r3, [r7, #7]	@ zero_extendqisi2
 1202 000c 002B     		cmp	r3, #0
 1203 000e 44D0     		beq	.L74
  77:bro.c         ****     {
  78:bro.c         ****         return;
  79:bro.c         ****     }
  80:bro.c         ****     
  81:bro.c         ****    //Put first byte through packet init
  82:bro.c         ****    if (current_packet == NULL)
 1204              		.loc 3 82 0
 1205 0010 254B     		ldr	r3, .L76
 1206 0012 1B68     		ldr	r3, [r3]
 1207 0014 002B     		cmp	r3, #0
 1208 0016 24D1     		bne	.L70
  83:bro.c         **** {
  84:bro.c         ****         current_packet = dmc_packet_init((enum dmc_packet_type)byteReceived);
 1209              		.loc 3 84 0
 1210 0018 FB79     		ldrb	r3, [r7, #7]	@ zero_extendqisi2
 1211 001a 1846     		mov	r0, r3
 1212 001c FFF7FEFF 		bl	dmc_packet_init
 1213 0020 0246     		mov	r2, r0
 1214 0022 214B     		ldr	r3, .L76
 1215 0024 1A60     		str	r2, [r3]
  85:bro.c         ****         discard_packet = raise_flag_handler(current_packet);
 1216              		.loc 3 85 0
 1217 0026 214B     		ldr	r3, .L76+4
 1218 0028 1B68     		ldr	r3, [r3]
 1219 002a 1F4A     		ldr	r2, .L76
 1220 002c 1268     		ldr	r2, [r2]
 1221 002e 1046     		mov	r0, r2
 1222 0030 9847     		blx	r3
 1223 0032 0246     		mov	r2, r0
 1224 0034 1E4B     		ldr	r3, .L76+8
 1225 0036 1A60     		str	r2, [r3]
  86:bro.c         ****         if (!dmc_packet_complete(current_packet) || discard_packet)
 1226              		.loc 3 86 0
 1227 0038 1B4B     		ldr	r3, .L76
ARM GAS  C:\Users\Runeg\AppData\Local\Temp\ccusGBrN.s 			page 32


 1228 003a 1B68     		ldr	r3, [r3]
 1229 003c 1846     		mov	r0, r3
 1230 003e FFF7FEFF 		bl	dmc_packet_complete
 1231 0042 0346     		mov	r3, r0
 1232 0044 002B     		cmp	r3, #0
 1233 0046 2AD0     		beq	.L75
 1234              		.loc 3 86 0 is_stmt 0 discriminator 1
 1235 0048 194B     		ldr	r3, .L76+8
 1236 004a 1B68     		ldr	r3, [r3]
 1237 004c 002B     		cmp	r3, #0
 1238 004e 26D1     		bne	.L75
  87:bro.c         ****             return;
  88:bro.c         ****         job_enqueue_packet(current_packet);
 1239              		.loc 3 88 0 is_stmt 1
 1240 0050 154B     		ldr	r3, .L76
 1241 0052 1B68     		ldr	r3, [r3]
 1242 0054 1846     		mov	r0, r3
 1243 0056 FFF7FEFF 		bl	job_enqueue_packet
  89:bro.c         ****         current_packet = NULL;
 1244              		.loc 3 89 0
 1245 005a 134B     		ldr	r3, .L76
 1246 005c 0022     		movs	r2, #0
 1247 005e 1A60     		str	r2, [r3]
  90:bro.c         ****         return;  
 1248              		.loc 3 90 0
 1249 0060 1EE0     		b	.L67
 1250              	.L70:
  91:bro.c         ****     }
  92:bro.c         ****    
  93:bro.c         ****     //Append byterecived to current_packet
  94:bro.c         ****     dmc_packet_append_byte(current_packet, (unsigned char)byteReceived);
 1251              		.loc 3 94 0
 1252 0062 114B     		ldr	r3, .L76
 1253 0064 1B68     		ldr	r3, [r3]
 1254 0066 FA79     		ldrb	r2, [r7, #7]	@ zero_extendqisi2
 1255 0068 1146     		mov	r1, r2
 1256 006a 1846     		mov	r0, r3
 1257 006c FFF7FEFF 		bl	dmc_packet_append_byte
  95:bro.c         ****     
  96:bro.c         ****     //Push packet to job_queue if payload is complete
  97:bro.c         ****     if (dmc_packet_complete(current_packet))
 1258              		.loc 3 97 0
 1259 0070 0D4B     		ldr	r3, .L76
 1260 0072 1B68     		ldr	r3, [r3]
 1261 0074 1846     		mov	r0, r3
 1262 0076 FFF7FEFF 		bl	dmc_packet_complete
 1263 007a 0346     		mov	r3, r0
 1264 007c 002B     		cmp	r3, #0
 1265 007e 0FD0     		beq	.L67
  98:bro.c         ****     {
  99:bro.c         **** 
 100:bro.c         ****         if (!discard_packet)
 1266              		.loc 3 100 0
 1267 0080 0B4B     		ldr	r3, .L76+8
 1268 0082 1B68     		ldr	r3, [r3]
 1269 0084 002B     		cmp	r3, #0
 1270 0086 04D1     		bne	.L73
ARM GAS  C:\Users\Runeg\AppData\Local\Temp\ccusGBrN.s 			page 33


 101:bro.c         ****             job_enqueue_packet(current_packet);
 1271              		.loc 3 101 0
 1272 0088 074B     		ldr	r3, .L76
 1273 008a 1B68     		ldr	r3, [r3]
 1274 008c 1846     		mov	r0, r3
 1275 008e FFF7FEFF 		bl	job_enqueue_packet
 1276              	.L73:
 102:bro.c         ****         current_packet = NULL;
 1277              		.loc 3 102 0
 1278 0092 054B     		ldr	r3, .L76
 1279 0094 0022     		movs	r2, #0
 1280 0096 1A60     		str	r2, [r3]
 1281 0098 02E0     		b	.L67
 1282              	.L74:
  78:bro.c         ****     }
 1283              		.loc 3 78 0
 1284 009a 00BF     		nop
 1285 009c 00E0     		b	.L67
 1286              	.L75:
  87:bro.c         ****         job_enqueue_packet(current_packet);
 1287              		.loc 3 87 0
 1288 009e 00BF     		nop
 1289              	.L67:
 103:bro.c         ****     }
 104:bro.c         **** }
 1290              		.loc 3 104 0
 1291 00a0 0837     		adds	r7, r7, #8
 1292              		.cfi_def_cfa_offset 8
 1293 00a2 BD46     		mov	sp, r7
 1294              		.cfi_def_cfa_register 13
 1295              		@ sp needed
 1296 00a4 80BD     		pop	{r7, pc}
 1297              	.L77:
 1298 00a6 00BF     		.align	2
 1299              	.L76:
 1300 00a8 00000000 		.word	current_packet
 1301 00ac 00000000 		.word	raise_flag_handler
 1302 00b0 00000000 		.word	discard_packet
 1303              		.cfi_endproc
 1304              	.LFE82:
 1305              		.size	handle_byte_received, .-handle_byte_received
 1306              		.section	.text.ISR_uart_rpi_rx_handler,"ax",%progbits
 1307              		.align	2
 1308              		.global	ISR_uart_rpi_rx_handler
 1309              		.thumb
 1310              		.thumb_func
 1311              		.type	ISR_uart_rpi_rx_handler, %function
 1312              	ISR_uart_rpi_rx_handler:
 1313              	.LFB83:
 105:bro.c         **** 
 106:bro.c         **** 
 107:bro.c         **** CY_ISR(ISR_uart_rpi_rx_handler)
 108:bro.c         **** {
 1314              		.loc 3 108 0
 1315              		.cfi_startproc
 1316              		@ args = 0, pretend = 0, frame = 8
 1317              		@ frame_needed = 1, uses_anonymous_args = 0
ARM GAS  C:\Users\Runeg\AppData\Local\Temp\ccusGBrN.s 			page 34


 1318 0000 80B5     		push	{r7, lr}
 1319              		.cfi_def_cfa_offset 8
 1320              		.cfi_offset 7, -8
 1321              		.cfi_offset 14, -4
 1322 0002 82B0     		sub	sp, sp, #8
 1323              		.cfi_def_cfa_offset 16
 1324 0004 00AF     		add	r7, sp, #0
 1325              		.cfi_def_cfa_register 7
 109:bro.c         ****     
 110:bro.c         ****     while (uart_rpi_GetRxBufferSize() != 0)
 1326              		.loc 3 110 0
 1327 0006 07E0     		b	.L79
 1328              	.L80:
 1329              	.LBB3:
 111:bro.c         ****     {
 112:bro.c         ****         uint8_t byteReceived = uart_rpi_ReadRxData();
 1330              		.loc 3 112 0
 1331 0008 FFF7FEFF 		bl	uart_rpi_ReadRxData
 1332 000c 0346     		mov	r3, r0
 1333 000e FB71     		strb	r3, [r7, #7]
 113:bro.c         ****         handle_byte_received(byteReceived);
 1334              		.loc 3 113 0
 1335 0010 FB79     		ldrb	r3, [r7, #7]	@ zero_extendqisi2
 1336 0012 1846     		mov	r0, r3
 1337 0014 FFF7FEFF 		bl	handle_byte_received
 1338              	.L79:
 1339              	.LBE3:
 110:bro.c         ****     {
 1340              		.loc 3 110 0
 1341 0018 FFF7FEFF 		bl	uart_rpi_GetRxBufferSize
 1342 001c 0346     		mov	r3, r0
 1343 001e 002B     		cmp	r3, #0
 1344 0020 F2D1     		bne	.L80
 114:bro.c         ****         
 115:bro.c         ****     }
 116:bro.c         ****     
 117:bro.c         **** }
 1345              		.loc 3 117 0
 1346 0022 00BF     		nop
 1347 0024 0837     		adds	r7, r7, #8
 1348              		.cfi_def_cfa_offset 8
 1349 0026 BD46     		mov	sp, r7
 1350              		.cfi_def_cfa_register 13
 1351              		@ sp needed
 1352 0028 80BD     		pop	{r7, pc}
 1353              		.cfi_endproc
 1354              	.LFE83:
 1355              		.size	ISR_uart_rpi_rx_handler, .-ISR_uart_rpi_rx_handler
 1356 002a 00BF     		.section	.text.send_out_of_order_message,"ax",%progbits
 1357              		.align	2
 1358              		.global	send_out_of_order_message
 1359              		.thumb
 1360              		.thumb_func
 1361              		.type	send_out_of_order_message, %function
 1362              	send_out_of_order_message:
 1363              	.LFB84:
 118:bro.c         **** void send_out_of_order_message(struct dmc_packet_out_of_order* out_of_order_message)
ARM GAS  C:\Users\Runeg\AppData\Local\Temp\ccusGBrN.s 			page 35


 119:bro.c         **** {
 1364              		.loc 3 119 0
 1365              		.cfi_startproc
 1366              		@ args = 0, pretend = 0, frame = 16
 1367              		@ frame_needed = 1, uses_anonymous_args = 0
 1368 0000 80B5     		push	{r7, lr}
 1369              		.cfi_def_cfa_offset 8
 1370              		.cfi_offset 7, -8
 1371              		.cfi_offset 14, -4
 1372 0002 84B0     		sub	sp, sp, #16
 1373              		.cfi_def_cfa_offset 24
 1374 0004 00AF     		add	r7, sp, #0
 1375              		.cfi_def_cfa_register 7
 1376 0006 7860     		str	r0, [r7, #4]
 120:bro.c         ****     struct dmc_packet *base = NULL;
 1377              		.loc 3 120 0
 1378 0008 0023     		movs	r3, #0
 1379 000a FB60     		str	r3, [r7, #12]
 121:bro.c         ****     dmc_packet_marshal_out_of_order(&base, out_of_order_message);
 1380              		.loc 3 121 0
 1381 000c 07F10C03 		add	r3, r7, #12
 1382 0010 7968     		ldr	r1, [r7, #4]
 1383 0012 1846     		mov	r0, r3
 1384 0014 FFF7FEFF 		bl	dmc_packet_marshal_out_of_order
 122:bro.c         ****     uart_send_packet(base);
 1385              		.loc 3 122 0
 1386 0018 FB68     		ldr	r3, [r7, #12]
 1387 001a 1846     		mov	r0, r3
 1388 001c FFF7FEFF 		bl	uart_send_packet
 123:bro.c         ****     dmc_packet_free(base);
 1389              		.loc 3 123 0
 1390 0020 FB68     		ldr	r3, [r7, #12]
 1391 0022 1846     		mov	r0, r3
 1392 0024 FFF7FEFF 		bl	dmc_packet_free
 124:bro.c         **** }
 1393              		.loc 3 124 0
 1394 0028 00BF     		nop
 1395 002a 1037     		adds	r7, r7, #16
 1396              		.cfi_def_cfa_offset 8
 1397 002c BD46     		mov	sp, r7
 1398              		.cfi_def_cfa_register 13
 1399              		@ sp needed
 1400 002e 80BD     		pop	{r7, pc}
 1401              		.cfi_endproc
 1402              	.LFE84:
 1403              		.size	send_out_of_order_message, .-send_out_of_order_message
 1404              		.section	.text.send_machine_ok_message,"ax",%progbits
 1405              		.align	2
 1406              		.global	send_machine_ok_message
 1407              		.thumb
 1408              		.thumb_func
 1409              		.type	send_machine_ok_message, %function
 1410              	send_machine_ok_message:
 1411              	.LFB85:
 125:bro.c         **** 
 126:bro.c         **** void send_machine_ok_message(struct dmc_packet_machine_ok* machine_ok_message)
 127:bro.c         **** {
ARM GAS  C:\Users\Runeg\AppData\Local\Temp\ccusGBrN.s 			page 36


 1412              		.loc 3 127 0
 1413              		.cfi_startproc
 1414              		@ args = 0, pretend = 0, frame = 16
 1415              		@ frame_needed = 1, uses_anonymous_args = 0
 1416 0000 80B5     		push	{r7, lr}
 1417              		.cfi_def_cfa_offset 8
 1418              		.cfi_offset 7, -8
 1419              		.cfi_offset 14, -4
 1420 0002 84B0     		sub	sp, sp, #16
 1421              		.cfi_def_cfa_offset 24
 1422 0004 00AF     		add	r7, sp, #0
 1423              		.cfi_def_cfa_register 7
 1424 0006 7860     		str	r0, [r7, #4]
 128:bro.c         ****     struct dmc_packet *base = NULL;
 1425              		.loc 3 128 0
 1426 0008 0023     		movs	r3, #0
 1427 000a FB60     		str	r3, [r7, #12]
 129:bro.c         ****     dmc_packet_marshal_machine_ok(&base, machine_ok_message);
 1428              		.loc 3 129 0
 1429 000c 07F10C03 		add	r3, r7, #12
 1430 0010 7968     		ldr	r1, [r7, #4]
 1431 0012 1846     		mov	r0, r3
 1432 0014 FFF7FEFF 		bl	dmc_packet_marshal_machine_ok
 130:bro.c         ****     uart_send_packet(base);
 1433              		.loc 3 130 0
 1434 0018 FB68     		ldr	r3, [r7, #12]
 1435 001a 1846     		mov	r0, r3
 1436 001c FFF7FEFF 		bl	uart_send_packet
 131:bro.c         ****     dmc_packet_free(base);
 1437              		.loc 3 131 0
 1438 0020 FB68     		ldr	r3, [r7, #12]
 1439 0022 1846     		mov	r0, r3
 1440 0024 FFF7FEFF 		bl	dmc_packet_free
 132:bro.c         **** }
 1441              		.loc 3 132 0
 1442 0028 00BF     		nop
 1443 002a 1037     		adds	r7, r7, #16
 1444              		.cfi_def_cfa_offset 8
 1445 002c BD46     		mov	sp, r7
 1446              		.cfi_def_cfa_register 13
 1447              		@ sp needed
 1448 002e 80BD     		pop	{r7, pc}
 1449              		.cfi_endproc
 1450              	.LFE85:
 1451              		.size	send_machine_ok_message, .-send_machine_ok_message
 1452              		.section	.text.send_container_volume_measured,"ax",%progbits
 1453              		.align	2
 1454              		.global	send_container_volume_measured
 1455              		.thumb
 1456              		.thumb_func
 1457              		.type	send_container_volume_measured, %function
 1458              	send_container_volume_measured:
 1459              	.LFB86:
 133:bro.c         **** 
 134:bro.c         **** void send_container_volume_measured(struct dmc_packet_container_volume_measured* measured_volume_pa
 135:bro.c         **** {
 1460              		.loc 3 135 0
ARM GAS  C:\Users\Runeg\AppData\Local\Temp\ccusGBrN.s 			page 37


 1461              		.cfi_startproc
 1462              		@ args = 0, pretend = 0, frame = 16
 1463              		@ frame_needed = 1, uses_anonymous_args = 0
 1464 0000 80B5     		push	{r7, lr}
 1465              		.cfi_def_cfa_offset 8
 1466              		.cfi_offset 7, -8
 1467              		.cfi_offset 14, -4
 1468 0002 84B0     		sub	sp, sp, #16
 1469              		.cfi_def_cfa_offset 24
 1470 0004 00AF     		add	r7, sp, #0
 1471              		.cfi_def_cfa_register 7
 1472 0006 7860     		str	r0, [r7, #4]
 136:bro.c         ****     struct dmc_packet *base = NULL;
 1473              		.loc 3 136 0
 1474 0008 0023     		movs	r3, #0
 1475 000a FB60     		str	r3, [r7, #12]
 137:bro.c         ****     dmc_packet_marshal_container_volume_measured(&base, measured_volume_packet);
 1476              		.loc 3 137 0
 1477 000c 07F10C03 		add	r3, r7, #12
 1478 0010 7968     		ldr	r1, [r7, #4]
 1479 0012 1846     		mov	r0, r3
 1480 0014 FFF7FEFF 		bl	dmc_packet_marshal_container_volume_measured
 138:bro.c         ****     uart_send_packet(base);
 1481              		.loc 3 138 0
 1482 0018 FB68     		ldr	r3, [r7, #12]
 1483 001a 1846     		mov	r0, r3
 1484 001c FFF7FEFF 		bl	uart_send_packet
 139:bro.c         ****     dmc_packet_free(base);
 1485              		.loc 3 139 0
 1486 0020 FB68     		ldr	r3, [r7, #12]
 1487 0022 1846     		mov	r0, r3
 1488 0024 FFF7FEFF 		bl	dmc_packet_free
 140:bro.c         **** }
 1489              		.loc 3 140 0
 1490 0028 00BF     		nop
 1491 002a 1037     		adds	r7, r7, #16
 1492              		.cfi_def_cfa_offset 8
 1493 002c BD46     		mov	sp, r7
 1494              		.cfi_def_cfa_register 13
 1495              		@ sp needed
 1496 002e 80BD     		pop	{r7, pc}
 1497              		.cfi_endproc
 1498              	.LFE86:
 1499              		.size	send_container_volume_measured, .-send_container_volume_measured
 1500              		.bss
 1501              		.align	2
 1502              	b.7523:
 1503 0004 00000000 		.space	9
 1503      00000000 
 1503      00
 1504              		.text
 1505              	.Letext0:
 1506              		.file 4 "c:\\program files (x86)\\cypress\\psoc creator\\4.4\\psoc creator\\import\\gnu\\arm\\5.4.
 1507              		.file 5 "c:\\program files (x86)\\cypress\\psoc creator\\4.4\\psoc creator\\import\\gnu\\arm\\5.4.
 1508              		.file 6 "c:\\program files (x86)\\cypress\\psoc creator\\4.4\\psoc creator\\import\\gnu\\arm\\5.4.
 1509              		.file 7 "Generated_Source\\PSoC5/core_cm3.h"
 1510              		.section	.debug_info,"",%progbits
ARM GAS  C:\Users\Runeg\AppData\Local\Temp\ccusGBrN.s 			page 38


 1511              	.Ldebug_info0:
 1512 0000 6E070000 		.4byte	0x76e
 1513 0004 0400     		.2byte	0x4
 1514 0006 00000000 		.4byte	.Ldebug_abbrev0
 1515 000a 04       		.byte	0x4
 1516 000b 01       		.uleb128 0x1
 1517 000c A8000000 		.4byte	.LASF80
 1518 0010 0C       		.byte	0xc
 1519 0011 84060000 		.4byte	.LASF81
 1520 0015 B4040000 		.4byte	.LASF82
 1521 0019 00000000 		.4byte	.Ldebug_ranges0+0
 1522 001d 00000000 		.4byte	0
 1523 0021 00000000 		.4byte	.Ldebug_line0
 1524 0025 02       		.uleb128 0x2
 1525 0026 55000000 		.4byte	.LASF4
 1526 002a 04       		.byte	0x4
 1527 002b D8       		.byte	0xd8
 1528 002c 30000000 		.4byte	0x30
 1529 0030 03       		.uleb128 0x3
 1530 0031 04       		.byte	0x4
 1531 0032 07       		.byte	0x7
 1532 0033 91040000 		.4byte	.LASF0
 1533 0037 04       		.uleb128 0x4
 1534 0038 04       		.byte	0x4
 1535 0039 05       		.byte	0x5
 1536 003a 696E7400 		.ascii	"int\000"
 1537 003e 03       		.uleb128 0x3
 1538 003f 08       		.byte	0x8
 1539 0040 05       		.byte	0x5
 1540 0041 5B020000 		.4byte	.LASF1
 1541 0045 03       		.uleb128 0x3
 1542 0046 08       		.byte	0x8
 1543 0047 04       		.byte	0x4
 1544 0048 EC030000 		.4byte	.LASF2
 1545 004c 03       		.uleb128 0x3
 1546 004d 01       		.byte	0x1
 1547 004e 06       		.byte	0x6
 1548 004f 3B040000 		.4byte	.LASF3
 1549 0053 02       		.uleb128 0x2
 1550 0054 1A030000 		.4byte	.LASF5
 1551 0058 05       		.byte	0x5
 1552 0059 1D       		.byte	0x1d
 1553 005a 5E000000 		.4byte	0x5e
 1554 005e 03       		.uleb128 0x3
 1555 005f 01       		.byte	0x1
 1556 0060 08       		.byte	0x8
 1557 0061 2D040000 		.4byte	.LASF6
 1558 0065 02       		.uleb128 0x2
 1559 0066 B1060000 		.4byte	.LASF7
 1560 006a 05       		.byte	0x5
 1561 006b 29       		.byte	0x29
 1562 006c 70000000 		.4byte	0x70
 1563 0070 03       		.uleb128 0x3
 1564 0071 02       		.byte	0x2
 1565 0072 05       		.byte	0x5
 1566 0073 4B000000 		.4byte	.LASF8
 1567 0077 03       		.uleb128 0x3
ARM GAS  C:\Users\Runeg\AppData\Local\Temp\ccusGBrN.s 			page 39


 1568 0078 02       		.byte	0x2
 1569 0079 07       		.byte	0x7
 1570 007a E5050000 		.4byte	.LASF9
 1571 007e 02       		.uleb128 0x2
 1572 007f 97060000 		.4byte	.LASF10
 1573 0083 05       		.byte	0x5
 1574 0084 3F       		.byte	0x3f
 1575 0085 89000000 		.4byte	0x89
 1576 0089 03       		.uleb128 0x3
 1577 008a 04       		.byte	0x4
 1578 008b 05       		.byte	0x5
 1579 008c C9020000 		.4byte	.LASF11
 1580 0090 03       		.uleb128 0x3
 1581 0091 04       		.byte	0x4
 1582 0092 07       		.byte	0x7
 1583 0093 33060000 		.4byte	.LASF12
 1584 0097 03       		.uleb128 0x3
 1585 0098 08       		.byte	0x8
 1586 0099 07       		.byte	0x7
 1587 009a 47040000 		.4byte	.LASF13
 1588 009e 03       		.uleb128 0x3
 1589 009f 04       		.byte	0x4
 1590 00a0 07       		.byte	0x7
 1591 00a1 5C000000 		.4byte	.LASF14
 1592 00a5 05       		.uleb128 0x5
 1593 00a6 04       		.byte	0x4
 1594 00a7 AB000000 		.4byte	0xab
 1595 00ab 03       		.uleb128 0x3
 1596 00ac 01       		.byte	0x1
 1597 00ad 08       		.byte	0x8
 1598 00ae 82050000 		.4byte	.LASF15
 1599 00b2 05       		.uleb128 0x5
 1600 00b3 04       		.byte	0x4
 1601 00b4 B8000000 		.4byte	0xb8
 1602 00b8 06       		.uleb128 0x6
 1603 00b9 AB000000 		.4byte	0xab
 1604 00bd 07       		.uleb128 0x7
 1605 00be AC010000 		.4byte	.LASF28
 1606 00c2 01       		.byte	0x1
 1607 00c3 5E000000 		.4byte	0x5e
 1608 00c7 01       		.byte	0x1
 1609 00c8 0E       		.byte	0xe
 1610 00c9 F2000000 		.4byte	0xf2
 1611 00cd 08       		.uleb128 0x8
 1612 00ce AF050000 		.4byte	.LASF16
 1613 00d2 81       		.byte	0x81
 1614 00d3 08       		.uleb128 0x8
 1615 00d4 5E040000 		.4byte	.LASF17
 1616 00d8 92       		.byte	0x92
 1617 00d9 08       		.uleb128 0x8
 1618 00da 65060000 		.4byte	.LASF18
 1619 00de A0       		.byte	0xa0
 1620 00df 08       		.uleb128 0x8
 1621 00e0 87050000 		.4byte	.LASF19
 1622 00e4 B2       		.byte	0xb2
 1623 00e5 08       		.uleb128 0x8
 1624 00e6 9B010000 		.4byte	.LASF20
ARM GAS  C:\Users\Runeg\AppData\Local\Temp\ccusGBrN.s 			page 40


 1625 00ea C2       		.byte	0xc2
 1626 00eb 08       		.uleb128 0x8
 1627 00ec 9E040000 		.4byte	.LASF21
 1628 00f0 D0       		.byte	0xd0
 1629 00f1 00       		.byte	0
 1630 00f2 09       		.uleb128 0x9
 1631 00f3 3B020000 		.4byte	.LASF34
 1632 00f7 0C       		.byte	0xc
 1633 00f8 01       		.byte	0x1
 1634 00f9 18       		.byte	0x18
 1635 00fa 23010000 		.4byte	0x123
 1636 00fe 0A       		.uleb128 0xa
 1637 00ff 83040000 		.4byte	.LASF22
 1638 0103 01       		.byte	0x1
 1639 0104 1D       		.byte	0x1d
 1640 0105 BD000000 		.4byte	0xbd
 1641 0109 00       		.byte	0
 1642 010a 0A       		.uleb128 0xa
 1643 010b 45010000 		.4byte	.LASF23
 1644 010f 01       		.byte	0x1
 1645 0110 22       		.byte	0x22
 1646 0111 A5000000 		.4byte	0xa5
 1647 0115 04       		.byte	0x4
 1648 0116 0A       		.uleb128 0xa
 1649 0117 88040000 		.4byte	.LASF24
 1650 011b 01       		.byte	0x1
 1651 011c 27       		.byte	0x27
 1652 011d 25000000 		.4byte	0x25
 1653 0121 08       		.byte	0x8
 1654 0122 00       		.byte	0
 1655 0123 02       		.uleb128 0x2
 1656 0124 BC010000 		.4byte	.LASF25
 1657 0128 06       		.byte	0x6
 1658 0129 18       		.byte	0x18
 1659 012a 53000000 		.4byte	0x53
 1660 012e 02       		.uleb128 0x2
 1661 012f C7050000 		.4byte	.LASF26
 1662 0133 06       		.byte	0x6
 1663 0134 20       		.byte	0x20
 1664 0135 65000000 		.4byte	0x65
 1665 0139 02       		.uleb128 0x2
 1666 013a A7050000 		.4byte	.LASF27
 1667 013e 06       		.byte	0x6
 1668 013f 2C       		.byte	0x2c
 1669 0140 7E000000 		.4byte	0x7e
 1670 0144 07       		.uleb128 0x7
 1671 0145 F1010000 		.4byte	.LASF29
 1672 0149 01       		.byte	0x1
 1673 014a 5E000000 		.4byte	0x5e
 1674 014e 02       		.byte	0x2
 1675 014f 0F       		.byte	0xf
 1676 0150 6D010000 		.4byte	0x16d
 1677 0154 08       		.uleb128 0x8
 1678 0155 74010000 		.4byte	.LASF30
 1679 0159 00       		.byte	0
 1680 015a 08       		.uleb128 0x8
 1681 015b 65000000 		.4byte	.LASF31
ARM GAS  C:\Users\Runeg\AppData\Local\Temp\ccusGBrN.s 			page 41


 1682 015f 01       		.byte	0x1
 1683 0160 08       		.uleb128 0x8
 1684 0161 84030000 		.4byte	.LASF32
 1685 0165 02       		.byte	0x2
 1686 0166 08       		.uleb128 0x8
 1687 0167 1A050000 		.4byte	.LASF33
 1688 016b 03       		.byte	0x3
 1689 016c 00       		.byte	0
 1690 016d 09       		.uleb128 0x9
 1691 016e 23020000 		.4byte	.LASF35
 1692 0172 01       		.byte	0x1
 1693 0173 02       		.byte	0x2
 1694 0174 2F       		.byte	0x2f
 1695 0175 86010000 		.4byte	0x186
 1696 0179 0A       		.uleb128 0xa
 1697 017a C2020000 		.4byte	.LASF36
 1698 017e 02       		.byte	0x2
 1699 017f 35       		.byte	0x35
 1700 0180 44010000 		.4byte	0x144
 1701 0184 00       		.byte	0
 1702 0185 00       		.byte	0
 1703 0186 09       		.uleb128 0x9
 1704 0187 08040000 		.4byte	.LASF37
 1705 018b 04       		.byte	0x4
 1706 018c 02       		.byte	0x2
 1707 018d 6B       		.byte	0x6b
 1708 018e AB010000 		.4byte	0x1ab
 1709 0192 0A       		.uleb128 0xa
 1710 0193 9E000000 		.4byte	.LASF38
 1711 0197 02       		.byte	0x2
 1712 0198 70       		.byte	0x70
 1713 0199 23010000 		.4byte	0x123
 1714 019d 00       		.byte	0
 1715 019e 0A       		.uleb128 0xa
 1716 019f FB020000 		.4byte	.LASF39
 1717 01a3 02       		.byte	0x2
 1718 01a4 75       		.byte	0x75
 1719 01a5 2E010000 		.4byte	0x12e
 1720 01a9 02       		.byte	0x2
 1721 01aa 00       		.byte	0
 1722 01ab 0B       		.uleb128 0xb
 1723 01ac 69020000 		.4byte	.LASF40
 1724 01b0 00       		.byte	0
 1725 01b1 02       		.byte	0x2
 1726 01b2 B1       		.byte	0xb1
 1727 01b3 0B       		.uleb128 0xb
 1728 01b4 CF050000 		.4byte	.LASF41
 1729 01b8 00       		.byte	0
 1730 01b9 02       		.byte	0x2
 1731 01ba E1       		.byte	0xe1
 1732 01bb 0C       		.uleb128 0xc
 1733 01bc DB060000 		.4byte	.LASF42
 1734 01c0 02       		.byte	0x2
 1735 01c1 02       		.byte	0x2
 1736 01c2 1001     		.2byte	0x110
 1737 01c4 E3010000 		.4byte	0x1e3
 1738 01c8 0D       		.uleb128 0xd
ARM GAS  C:\Users\Runeg\AppData\Local\Temp\ccusGBrN.s 			page 42


 1739 01c9 9E000000 		.4byte	.LASF38
 1740 01cd 02       		.byte	0x2
 1741 01ce 1501     		.2byte	0x115
 1742 01d0 23010000 		.4byte	0x123
 1743 01d4 00       		.byte	0
 1744 01d5 0D       		.uleb128 0xd
 1745 01d6 12070000 		.4byte	.LASF43
 1746 01da 02       		.byte	0x2
 1747 01db 1A01     		.2byte	0x11a
 1748 01dd 23010000 		.4byte	0x123
 1749 01e1 01       		.byte	0x1
 1750 01e2 00       		.byte	0
 1751 01e3 03       		.uleb128 0x3
 1752 01e4 04       		.byte	0x4
 1753 01e5 04       		.byte	0x4
 1754 01e6 1D020000 		.4byte	.LASF44
 1755 01ea 03       		.uleb128 0x3
 1756 01eb 08       		.byte	0x8
 1757 01ec 04       		.byte	0x4
 1758 01ed 7D060000 		.4byte	.LASF45
 1759 01f1 0E       		.uleb128 0xe
 1760 01f2 A1060000 		.4byte	.LASF48
 1761 01f6 01       		.byte	0x1
 1762 01f7 2E       		.byte	0x2e
 1763 01f8 35020000 		.4byte	0x235
 1764 01fc 00000000 		.4byte	.LFB0
 1765 0200 4E000000 		.4byte	.LFE0-.LFB0
 1766 0204 01       		.uleb128 0x1
 1767 0205 9C       		.byte	0x9c
 1768 0206 35020000 		.4byte	0x235
 1769 020a 0F       		.uleb128 0xf
 1770 020b 83040000 		.4byte	.LASF22
 1771 020f 01       		.byte	0x1
 1772 0210 2E       		.byte	0x2e
 1773 0211 BD000000 		.4byte	0xbd
 1774 0215 02       		.uleb128 0x2
 1775 0216 91       		.byte	0x91
 1776 0217 6F       		.sleb128 -17
 1777 0218 10       		.uleb128 0x10
 1778 0219 1E070000 		.4byte	.LASF46
 1779 021d 01       		.byte	0x1
 1780 021e 30       		.byte	0x30
 1781 021f 5E000000 		.4byte	0x5e
 1782 0223 02       		.uleb128 0x2
 1783 0224 91       		.byte	0x91
 1784 0225 77       		.sleb128 -9
 1785 0226 10       		.uleb128 0x10
 1786 0227 EA010000 		.4byte	.LASF47
 1787 022b 01       		.byte	0x1
 1788 022c 33       		.byte	0x33
 1789 022d 35020000 		.4byte	0x235
 1790 0231 02       		.uleb128 0x2
 1791 0232 91       		.byte	0x91
 1792 0233 70       		.sleb128 -16
 1793 0234 00       		.byte	0
 1794 0235 05       		.uleb128 0x5
 1795 0236 04       		.byte	0x4
ARM GAS  C:\Users\Runeg\AppData\Local\Temp\ccusGBrN.s 			page 43


 1796 0237 F2000000 		.4byte	0xf2
 1797 023b 11       		.uleb128 0x11
 1798 023c F8030000 		.4byte	.LASF83
 1799 0240 01       		.byte	0x1
 1800 0241 4D       		.byte	0x4d
 1801 0242 00000000 		.4byte	.LFB1
 1802 0246 20000000 		.4byte	.LFE1-.LFB1
 1803 024a 01       		.uleb128 0x1
 1804 024b 9C       		.byte	0x9c
 1805 024c 5F020000 		.4byte	0x25f
 1806 0250 0F       		.uleb128 0xf
 1807 0251 EA010000 		.4byte	.LASF47
 1808 0255 01       		.byte	0x1
 1809 0256 4D       		.byte	0x4d
 1810 0257 35020000 		.4byte	0x235
 1811 025b 02       		.uleb128 0x2
 1812 025c 91       		.byte	0x91
 1813 025d 74       		.sleb128 -12
 1814 025e 00       		.byte	0
 1815 025f 12       		.uleb128 0x12
 1816 0260 00000000 		.4byte	.LASF49
 1817 0264 01       		.byte	0x1
 1818 0265 5D       		.byte	0x5d
 1819 0266 5E000000 		.4byte	0x5e
 1820 026a 00000000 		.4byte	.LFB2
 1821 026e 2C000000 		.4byte	.LFE2-.LFB2
 1822 0272 01       		.uleb128 0x1
 1823 0273 9C       		.byte	0x9c
 1824 0274 95020000 		.4byte	0x295
 1825 0278 0F       		.uleb128 0xf
 1826 0279 EA010000 		.4byte	.LASF47
 1827 027d 01       		.byte	0x1
 1828 027e 5D       		.byte	0x5d
 1829 027f 35020000 		.4byte	0x235
 1830 0283 02       		.uleb128 0x2
 1831 0284 91       		.byte	0x91
 1832 0285 6C       		.sleb128 -20
 1833 0286 10       		.uleb128 0x10
 1834 0287 1E070000 		.4byte	.LASF46
 1835 028b 01       		.byte	0x1
 1836 028c 5F       		.byte	0x5f
 1837 028d 5E000000 		.4byte	0x5e
 1838 0291 02       		.uleb128 0x2
 1839 0292 91       		.byte	0x91
 1840 0293 77       		.sleb128 -9
 1841 0294 00       		.byte	0
 1842 0295 12       		.uleb128 0x12
 1843 0296 FB060000 		.4byte	.LASF50
 1844 029a 01       		.byte	0x1
 1845 029b 67       		.byte	0x67
 1846 029c 5E000000 		.4byte	0x5e
 1847 02a0 00000000 		.4byte	.LFB3
 1848 02a4 44000000 		.4byte	.LFE3-.LFB3
 1849 02a8 01       		.uleb128 0x1
 1850 02a9 9C       		.byte	0x9c
 1851 02aa D9020000 		.4byte	0x2d9
 1852 02ae 0F       		.uleb128 0xf
ARM GAS  C:\Users\Runeg\AppData\Local\Temp\ccusGBrN.s 			page 44


 1853 02af EA010000 		.4byte	.LASF47
 1854 02b3 01       		.byte	0x1
 1855 02b4 67       		.byte	0x67
 1856 02b5 35020000 		.4byte	0x235
 1857 02b9 02       		.uleb128 0x2
 1858 02ba 91       		.byte	0x91
 1859 02bb 6C       		.sleb128 -20
 1860 02bc 0F       		.uleb128 0xf
 1861 02bd 45010000 		.4byte	.LASF23
 1862 02c1 01       		.byte	0x1
 1863 02c2 68       		.byte	0x68
 1864 02c3 5E000000 		.4byte	0x5e
 1865 02c7 02       		.uleb128 0x2
 1866 02c8 91       		.byte	0x91
 1867 02c9 6B       		.sleb128 -21
 1868 02ca 10       		.uleb128 0x10
 1869 02cb 1E070000 		.4byte	.LASF46
 1870 02cf 01       		.byte	0x1
 1871 02d0 6A       		.byte	0x6a
 1872 02d1 5E000000 		.4byte	0x5e
 1873 02d5 02       		.uleb128 0x2
 1874 02d6 91       		.byte	0x91
 1875 02d7 77       		.sleb128 -9
 1876 02d8 00       		.byte	0
 1877 02d9 12       		.uleb128 0x12
 1878 02da 81020000 		.4byte	.LASF51
 1879 02de 02       		.byte	0x2
 1880 02df 3C       		.byte	0x3c
 1881 02e0 37000000 		.4byte	0x37
 1882 02e4 00000000 		.4byte	.LFB4
 1883 02e8 36000000 		.4byte	.LFE4-.LFB4
 1884 02ec 01       		.uleb128 0x1
 1885 02ed 9C       		.byte	0x9c
 1886 02ee 1D030000 		.4byte	0x31d
 1887 02f2 0F       		.uleb128 0xf
 1888 02f3 EA010000 		.4byte	.LASF47
 1889 02f7 02       		.byte	0x2
 1890 02f8 3C       		.byte	0x3c
 1891 02f9 1D030000 		.4byte	0x31d
 1892 02fd 02       		.uleb128 0x2
 1893 02fe 91       		.byte	0x91
 1894 02ff 6C       		.sleb128 -20
 1895 0300 0F       		.uleb128 0xf
 1896 0301 29070000 		.4byte	.LASF52
 1897 0305 02       		.byte	0x2
 1898 0306 3D       		.byte	0x3d
 1899 0307 35020000 		.4byte	0x235
 1900 030b 02       		.uleb128 0x2
 1901 030c 91       		.byte	0x91
 1902 030d 68       		.sleb128 -24
 1903 030e 10       		.uleb128 0x10
 1904 030f F4020000 		.4byte	.LASF53
 1905 0313 02       		.byte	0x2
 1906 0314 44       		.byte	0x44
 1907 0315 23010000 		.4byte	0x123
 1908 0319 02       		.uleb128 0x2
 1909 031a 91       		.byte	0x91
ARM GAS  C:\Users\Runeg\AppData\Local\Temp\ccusGBrN.s 			page 45


 1910 031b 77       		.sleb128 -9
 1911 031c 00       		.byte	0
 1912 031d 05       		.uleb128 0x5
 1913 031e 04       		.byte	0x4
 1914 031f 6D010000 		.4byte	0x16d
 1915 0323 0E       		.uleb128 0xe
 1916 0324 FA040000 		.4byte	.LASF54
 1917 0328 02       		.byte	0x2
 1918 0329 4E       		.byte	0x4e
 1919 032a 37000000 		.4byte	0x37
 1920 032e 00000000 		.4byte	.LFB5
 1921 0332 60000000 		.4byte	.LFE5-.LFB5
 1922 0336 01       		.uleb128 0x1
 1923 0337 9C       		.byte	0x9c
 1924 0338 66030000 		.4byte	0x366
 1925 033c 13       		.uleb128 0x13
 1926 033d 746F00   		.ascii	"to\000"
 1927 0340 02       		.byte	0x2
 1928 0341 4E       		.byte	0x4e
 1929 0342 66030000 		.4byte	0x366
 1930 0346 02       		.uleb128 0x2
 1931 0347 91       		.byte	0x91
 1932 0348 6C       		.sleb128 -20
 1933 0349 0F       		.uleb128 0xf
 1934 034a EA010000 		.4byte	.LASF47
 1935 034e 02       		.byte	0x2
 1936 034f 4F       		.byte	0x4f
 1937 0350 1D030000 		.4byte	0x31d
 1938 0354 02       		.uleb128 0x2
 1939 0355 91       		.byte	0x91
 1940 0356 68       		.sleb128 -24
 1941 0357 10       		.uleb128 0x10
 1942 0358 F4020000 		.4byte	.LASF53
 1943 035c 02       		.byte	0x2
 1944 035d 5F       		.byte	0x5f
 1945 035e 23010000 		.4byte	0x123
 1946 0362 02       		.uleb128 0x2
 1947 0363 91       		.byte	0x91
 1948 0364 77       		.sleb128 -9
 1949 0365 00       		.byte	0
 1950 0366 05       		.uleb128 0x5
 1951 0367 04       		.byte	0x4
 1952 0368 35020000 		.4byte	0x235
 1953 036c 12       		.uleb128 0x12
 1954 036d BD030000 		.4byte	.LASF55
 1955 0371 02       		.byte	0x2
 1956 0372 7B       		.byte	0x7b
 1957 0373 37000000 		.4byte	0x37
 1958 0377 00000000 		.4byte	.LFB6
 1959 037b 4C000000 		.4byte	.LFE6-.LFB6
 1960 037f 01       		.uleb128 0x1
 1961 0380 9C       		.byte	0x9c
 1962 0381 B0030000 		.4byte	0x3b0
 1963 0385 0F       		.uleb128 0xf
 1964 0386 EA010000 		.4byte	.LASF47
 1965 038a 02       		.byte	0x2
 1966 038b 7C       		.byte	0x7c
ARM GAS  C:\Users\Runeg\AppData\Local\Temp\ccusGBrN.s 			page 46


 1967 038c B0030000 		.4byte	0x3b0
 1968 0390 02       		.uleb128 0x2
 1969 0391 91       		.byte	0x91
 1970 0392 6C       		.sleb128 -20
 1971 0393 0F       		.uleb128 0xf
 1972 0394 29070000 		.4byte	.LASF52
 1973 0398 02       		.byte	0x2
 1974 0399 7D       		.byte	0x7d
 1975 039a 35020000 		.4byte	0x235
 1976 039e 02       		.uleb128 0x2
 1977 039f 91       		.byte	0x91
 1978 03a0 68       		.sleb128 -24
 1979 03a1 10       		.uleb128 0x10
 1980 03a2 F4020000 		.4byte	.LASF53
 1981 03a6 02       		.byte	0x2
 1982 03a7 84       		.byte	0x84
 1983 03a8 23010000 		.4byte	0x123
 1984 03ac 02       		.uleb128 0x2
 1985 03ad 91       		.byte	0x91
 1986 03ae 77       		.sleb128 -9
 1987 03af 00       		.byte	0
 1988 03b0 05       		.uleb128 0x5
 1989 03b1 04       		.byte	0x4
 1990 03b2 86010000 		.4byte	0x186
 1991 03b6 0E       		.uleb128 0xe
 1992 03b7 2E070000 		.4byte	.LASF56
 1993 03bb 02       		.byte	0x2
 1994 03bc 90       		.byte	0x90
 1995 03bd 37000000 		.4byte	0x37
 1996 03c1 00000000 		.4byte	.LFB7
 1997 03c5 7A000000 		.4byte	.LFE7-.LFB7
 1998 03c9 01       		.uleb128 0x1
 1999 03ca 9C       		.byte	0x9c
 2000 03cb F9030000 		.4byte	0x3f9
 2001 03cf 13       		.uleb128 0x13
 2002 03d0 746F00   		.ascii	"to\000"
 2003 03d3 02       		.byte	0x2
 2004 03d4 91       		.byte	0x91
 2005 03d5 66030000 		.4byte	0x366
 2006 03d9 02       		.uleb128 0x2
 2007 03da 91       		.byte	0x91
 2008 03db 6C       		.sleb128 -20
 2009 03dc 0F       		.uleb128 0xf
 2010 03dd EA010000 		.4byte	.LASF47
 2011 03e1 02       		.byte	0x2
 2012 03e2 91       		.byte	0x91
 2013 03e3 B0030000 		.4byte	0x3b0
 2014 03e7 02       		.uleb128 0x2
 2015 03e8 91       		.byte	0x91
 2016 03e9 68       		.sleb128 -24
 2017 03ea 10       		.uleb128 0x10
 2018 03eb F4020000 		.4byte	.LASF53
 2019 03ef 02       		.byte	0x2
 2020 03f0 A1       		.byte	0xa1
 2021 03f1 23010000 		.4byte	0x123
 2022 03f5 02       		.uleb128 0x2
 2023 03f6 91       		.byte	0x91
ARM GAS  C:\Users\Runeg\AppData\Local\Temp\ccusGBrN.s 			page 47


 2024 03f7 77       		.sleb128 -9
 2025 03f8 00       		.byte	0
 2026 03f9 12       		.uleb128 0x12
 2027 03fa 29000000 		.4byte	.LASF57
 2028 03fe 02       		.byte	0x2
 2029 03ff B9       		.byte	0xb9
 2030 0400 37000000 		.4byte	0x37
 2031 0404 00000000 		.4byte	.LFB8
 2032 0408 24000000 		.4byte	.LFE8-.LFB8
 2033 040c 01       		.uleb128 0x1
 2034 040d 9C       		.byte	0x9c
 2035 040e 2F040000 		.4byte	0x42f
 2036 0412 0F       		.uleb128 0xf
 2037 0413 EA010000 		.4byte	.LASF47
 2038 0417 02       		.byte	0x2
 2039 0418 B9       		.byte	0xb9
 2040 0419 2F040000 		.4byte	0x42f
 2041 041d 02       		.uleb128 0x2
 2042 041e 91       		.byte	0x91
 2043 041f 74       		.sleb128 -12
 2044 0420 0F       		.uleb128 0xf
 2045 0421 29070000 		.4byte	.LASF52
 2046 0425 02       		.byte	0x2
 2047 0426 BA       		.byte	0xba
 2048 0427 35020000 		.4byte	0x235
 2049 042b 02       		.uleb128 0x2
 2050 042c 91       		.byte	0x91
 2051 042d 70       		.sleb128 -16
 2052 042e 00       		.byte	0
 2053 042f 05       		.uleb128 0x5
 2054 0430 04       		.byte	0x4
 2055 0431 AB010000 		.4byte	0x1ab
 2056 0435 0E       		.uleb128 0xe
 2057 0436 45060000 		.4byte	.LASF58
 2058 043a 02       		.byte	0x2
 2059 043b C8       		.byte	0xc8
 2060 043c 37000000 		.4byte	0x37
 2061 0440 00000000 		.4byte	.LFB9
 2062 0444 44000000 		.4byte	.LFE9-.LFB9
 2063 0448 01       		.uleb128 0x1
 2064 0449 9C       		.byte	0x9c
 2065 044a 6A040000 		.4byte	0x46a
 2066 044e 13       		.uleb128 0x13
 2067 044f 746F00   		.ascii	"to\000"
 2068 0452 02       		.byte	0x2
 2069 0453 C8       		.byte	0xc8
 2070 0454 66030000 		.4byte	0x366
 2071 0458 02       		.uleb128 0x2
 2072 0459 91       		.byte	0x91
 2073 045a 74       		.sleb128 -12
 2074 045b 0F       		.uleb128 0xf
 2075 045c EA010000 		.4byte	.LASF47
 2076 0460 02       		.byte	0x2
 2077 0461 C9       		.byte	0xc9
 2078 0462 2F040000 		.4byte	0x42f
 2079 0466 02       		.uleb128 0x2
 2080 0467 91       		.byte	0x91
ARM GAS  C:\Users\Runeg\AppData\Local\Temp\ccusGBrN.s 			page 48


 2081 0468 70       		.sleb128 -16
 2082 0469 00       		.byte	0
 2083 046a 12       		.uleb128 0x12
 2084 046b 53050000 		.4byte	.LASF59
 2085 046f 02       		.byte	0x2
 2086 0470 E8       		.byte	0xe8
 2087 0471 37000000 		.4byte	0x37
 2088 0475 00000000 		.4byte	.LFB10
 2089 0479 24000000 		.4byte	.LFE10-.LFB10
 2090 047d 01       		.uleb128 0x1
 2091 047e 9C       		.byte	0x9c
 2092 047f A0040000 		.4byte	0x4a0
 2093 0483 0F       		.uleb128 0xf
 2094 0484 EA010000 		.4byte	.LASF47
 2095 0488 02       		.byte	0x2
 2096 0489 E8       		.byte	0xe8
 2097 048a A0040000 		.4byte	0x4a0
 2098 048e 02       		.uleb128 0x2
 2099 048f 91       		.byte	0x91
 2100 0490 74       		.sleb128 -12
 2101 0491 0F       		.uleb128 0xf
 2102 0492 29070000 		.4byte	.LASF52
 2103 0496 02       		.byte	0x2
 2104 0497 E9       		.byte	0xe9
 2105 0498 35020000 		.4byte	0x235
 2106 049c 02       		.uleb128 0x2
 2107 049d 91       		.byte	0x91
 2108 049e 70       		.sleb128 -16
 2109 049f 00       		.byte	0
 2110 04a0 05       		.uleb128 0x5
 2111 04a1 04       		.byte	0x4
 2112 04a2 B3010000 		.4byte	0x1b3
 2113 04a6 0E       		.uleb128 0xe
 2114 04a7 24030000 		.4byte	.LASF60
 2115 04ab 02       		.byte	0x2
 2116 04ac F7       		.byte	0xf7
 2117 04ad 37000000 		.4byte	0x37
 2118 04b1 00000000 		.4byte	.LFB11
 2119 04b5 44000000 		.4byte	.LFE11-.LFB11
 2120 04b9 01       		.uleb128 0x1
 2121 04ba 9C       		.byte	0x9c
 2122 04bb DB040000 		.4byte	0x4db
 2123 04bf 13       		.uleb128 0x13
 2124 04c0 746F00   		.ascii	"to\000"
 2125 04c3 02       		.byte	0x2
 2126 04c4 F7       		.byte	0xf7
 2127 04c5 66030000 		.4byte	0x366
 2128 04c9 02       		.uleb128 0x2
 2129 04ca 91       		.byte	0x91
 2130 04cb 74       		.sleb128 -12
 2131 04cc 0F       		.uleb128 0xf
 2132 04cd EA010000 		.4byte	.LASF47
 2133 04d1 02       		.byte	0x2
 2134 04d2 F8       		.byte	0xf8
 2135 04d3 A0040000 		.4byte	0x4a0
 2136 04d7 02       		.uleb128 0x2
 2137 04d8 91       		.byte	0x91
ARM GAS  C:\Users\Runeg\AppData\Local\Temp\ccusGBrN.s 			page 49


 2138 04d9 70       		.sleb128 -16
 2139 04da 00       		.byte	0
 2140 04db 14       		.uleb128 0x14
 2141 04dc F8050000 		.4byte	.LASF61
 2142 04e0 02       		.byte	0x2
 2143 04e1 2001     		.2byte	0x120
 2144 04e3 37000000 		.4byte	0x37
 2145 04e7 00000000 		.4byte	.LFB12
 2146 04eb 4A000000 		.4byte	.LFE12-.LFB12
 2147 04ef 01       		.uleb128 0x1
 2148 04f0 9C       		.byte	0x9c
 2149 04f1 23050000 		.4byte	0x523
 2150 04f5 15       		.uleb128 0x15
 2151 04f6 EA010000 		.4byte	.LASF47
 2152 04fa 02       		.byte	0x2
 2153 04fb 2101     		.2byte	0x121
 2154 04fd 23050000 		.4byte	0x523
 2155 0501 02       		.uleb128 0x2
 2156 0502 91       		.byte	0x91
 2157 0503 6C       		.sleb128 -20
 2158 0504 15       		.uleb128 0x15
 2159 0505 29070000 		.4byte	.LASF52
 2160 0509 02       		.byte	0x2
 2161 050a 2101     		.2byte	0x121
 2162 050c 35020000 		.4byte	0x235
 2163 0510 02       		.uleb128 0x2
 2164 0511 91       		.byte	0x91
 2165 0512 68       		.sleb128 -24
 2166 0513 16       		.uleb128 0x16
 2167 0514 F4020000 		.4byte	.LASF53
 2168 0518 02       		.byte	0x2
 2169 0519 2801     		.2byte	0x128
 2170 051b 23010000 		.4byte	0x123
 2171 051f 02       		.uleb128 0x2
 2172 0520 91       		.byte	0x91
 2173 0521 77       		.sleb128 -9
 2174 0522 00       		.byte	0
 2175 0523 05       		.uleb128 0x5
 2176 0524 04       		.byte	0x4
 2177 0525 BB010000 		.4byte	0x1bb
 2178 0529 17       		.uleb128 0x17
 2179 052a 42030000 		.4byte	.LASF62
 2180 052e 02       		.byte	0x2
 2181 052f 3401     		.2byte	0x134
 2182 0531 37000000 		.4byte	0x37
 2183 0535 00000000 		.4byte	.LFB13
 2184 0539 7E000000 		.4byte	.LFE13-.LFB13
 2185 053d 01       		.uleb128 0x1
 2186 053e 9C       		.byte	0x9c
 2187 053f 70050000 		.4byte	0x570
 2188 0543 18       		.uleb128 0x18
 2189 0544 746F00   		.ascii	"to\000"
 2190 0547 02       		.byte	0x2
 2191 0548 3501     		.2byte	0x135
 2192 054a 66030000 		.4byte	0x366
 2193 054e 02       		.uleb128 0x2
 2194 054f 91       		.byte	0x91
ARM GAS  C:\Users\Runeg\AppData\Local\Temp\ccusGBrN.s 			page 50


 2195 0550 6C       		.sleb128 -20
 2196 0551 15       		.uleb128 0x15
 2197 0552 EA010000 		.4byte	.LASF47
 2198 0556 02       		.byte	0x2
 2199 0557 3501     		.2byte	0x135
 2200 0559 23050000 		.4byte	0x523
 2201 055d 02       		.uleb128 0x2
 2202 055e 91       		.byte	0x91
 2203 055f 68       		.sleb128 -24
 2204 0560 16       		.uleb128 0x16
 2205 0561 F4020000 		.4byte	.LASF53
 2206 0565 02       		.byte	0x2
 2207 0566 4801     		.2byte	0x148
 2208 0568 23010000 		.4byte	0x123
 2209 056c 02       		.uleb128 0x2
 2210 056d 91       		.byte	0x91
 2211 056e 77       		.sleb128 -9
 2212 056f 00       		.byte	0
 2213 0570 19       		.uleb128 0x19
 2214 0571 D2020000 		.4byte	.LASF84
 2215 0575 03       		.byte	0x3
 2216 0576 12       		.byte	0x12
 2217 0577 B2000000 		.4byte	0xb2
 2218 057b 00000000 		.4byte	.LFB78
 2219 057f 54000000 		.4byte	.LFE78-.LFB78
 2220 0583 01       		.uleb128 0x1
 2221 0584 9C       		.byte	0x9c
 2222 0585 B1050000 		.4byte	0x5b1
 2223 0589 13       		.uleb128 0x13
 2224 058a 7800     		.ascii	"x\000"
 2225 058c 03       		.byte	0x3
 2226 058d 12       		.byte	0x12
 2227 058e 23010000 		.4byte	0x123
 2228 0592 02       		.uleb128 0x2
 2229 0593 91       		.byte	0x91
 2230 0594 6F       		.sleb128 -17
 2231 0595 1A       		.uleb128 0x1a
 2232 0596 6200     		.ascii	"b\000"
 2233 0598 03       		.byte	0x3
 2234 0599 14       		.byte	0x14
 2235 059a B1050000 		.4byte	0x5b1
 2236 059e 05       		.uleb128 0x5
 2237 059f 03       		.byte	0x3
 2238 05a0 04000000 		.4byte	b.7523
 2239 05a4 1A       		.uleb128 0x1a
 2240 05a5 7A00     		.ascii	"z\000"
 2241 05a7 03       		.byte	0x3
 2242 05a8 17       		.byte	0x17
 2243 05a9 37000000 		.4byte	0x37
 2244 05ad 02       		.uleb128 0x2
 2245 05ae 91       		.byte	0x91
 2246 05af 74       		.sleb128 -12
 2247 05b0 00       		.byte	0
 2248 05b1 1B       		.uleb128 0x1b
 2249 05b2 AB000000 		.4byte	0xab
 2250 05b6 C1050000 		.4byte	0x5c1
 2251 05ba 1C       		.uleb128 0x1c
ARM GAS  C:\Users\Runeg\AppData\Local\Temp\ccusGBrN.s 			page 51


 2252 05bb 9E000000 		.4byte	0x9e
 2253 05bf 08       		.byte	0x8
 2254 05c0 00       		.byte	0
 2255 05c1 1D       		.uleb128 0x1d
 2256 05c2 22060000 		.4byte	.LASF63
 2257 05c6 03       		.byte	0x3
 2258 05c7 28       		.byte	0x28
 2259 05c8 00000000 		.4byte	.LFB79
 2260 05cc 40000000 		.4byte	.LFE79-.LFB79
 2261 05d0 01       		.uleb128 0x1
 2262 05d1 9C       		.byte	0x9c
 2263 05d2 FB050000 		.4byte	0x5fb
 2264 05d6 0F       		.uleb128 0xf
 2265 05d7 EA010000 		.4byte	.LASF47
 2266 05db 03       		.byte	0x3
 2267 05dc 28       		.byte	0x28
 2268 05dd 35020000 		.4byte	0x235
 2269 05e1 02       		.uleb128 0x2
 2270 05e2 91       		.byte	0x91
 2271 05e3 6C       		.sleb128 -20
 2272 05e4 1E       		.uleb128 0x1e
 2273 05e5 12000000 		.4byte	.LBB2
 2274 05e9 26000000 		.4byte	.LBE2-.LBB2
 2275 05ed 1A       		.uleb128 0x1a
 2276 05ee 6900     		.ascii	"i\000"
 2277 05f0 03       		.byte	0x3
 2278 05f1 2E       		.byte	0x2e
 2279 05f2 25000000 		.4byte	0x25
 2280 05f6 02       		.uleb128 0x2
 2281 05f7 91       		.byte	0x91
 2282 05f8 74       		.sleb128 -12
 2283 05f9 00       		.byte	0
 2284 05fa 00       		.byte	0
 2285 05fb 1D       		.uleb128 0x1d
 2286 05fc DC010000 		.4byte	.LASF64
 2287 0600 03       		.byte	0x3
 2288 0601 37       		.byte	0x37
 2289 0602 00000000 		.4byte	.LFB80
 2290 0606 28000000 		.4byte	.LFE80-.LFB80
 2291 060a 01       		.uleb128 0x1
 2292 060b 9C       		.byte	0x9c
 2293 060c 1F060000 		.4byte	0x61f
 2294 0610 0F       		.uleb128 0xf
 2295 0611 BB060000 		.4byte	.LASF65
 2296 0615 03       		.byte	0x3
 2297 0616 37       		.byte	0x37
 2298 0617 2E060000 		.4byte	0x62e
 2299 061b 02       		.uleb128 0x2
 2300 061c 91       		.byte	0x91
 2301 061d 74       		.sleb128 -12
 2302 061e 00       		.byte	0
 2303 061f 1F       		.uleb128 0x1f
 2304 0620 37000000 		.4byte	0x37
 2305 0624 2E060000 		.4byte	0x62e
 2306 0628 20       		.uleb128 0x20
 2307 0629 35020000 		.4byte	0x235
 2308 062d 00       		.byte	0
ARM GAS  C:\Users\Runeg\AppData\Local\Temp\ccusGBrN.s 			page 52


 2309 062e 05       		.uleb128 0x5
 2310 062f 04       		.byte	0x4
 2311 0630 1F060000 		.4byte	0x61f
 2312 0634 21       		.uleb128 0x21
 2313 0635 C6060000 		.4byte	.LASF85
 2314 0639 03       		.byte	0x3
 2315 063a 42       		.byte	0x42
 2316 063b 00000000 		.4byte	.LFB81
 2317 063f 18000000 		.4byte	.LFE81-.LFB81
 2318 0643 01       		.uleb128 0x1
 2319 0644 9C       		.byte	0x9c
 2320 0645 1D       		.uleb128 0x1d
 2321 0646 14000000 		.4byte	.LASF66
 2322 064a 03       		.byte	0x3
 2323 064b 4A       		.byte	0x4a
 2324 064c 00000000 		.4byte	.LFB82
 2325 0650 B4000000 		.4byte	.LFE82-.LFB82
 2326 0654 01       		.uleb128 0x1
 2327 0655 9C       		.byte	0x9c
 2328 0656 69060000 		.4byte	0x669
 2329 065a 0F       		.uleb128 0xf
 2330 065b 10020000 		.4byte	.LASF67
 2331 065f 03       		.byte	0x3
 2332 0660 4A       		.byte	0x4a
 2333 0661 23010000 		.4byte	0x123
 2334 0665 02       		.uleb128 0x2
 2335 0666 91       		.byte	0x91
 2336 0667 77       		.sleb128 -9
 2337 0668 00       		.byte	0
 2338 0669 1D       		.uleb128 0x1d
 2339 066a 02030000 		.4byte	.LASF68
 2340 066e 03       		.byte	0x3
 2341 066f 6B       		.byte	0x6b
 2342 0670 00000000 		.4byte	.LFB83
 2343 0674 2A000000 		.4byte	.LFE83-.LFB83
 2344 0678 01       		.uleb128 0x1
 2345 0679 9C       		.byte	0x9c
 2346 067a 97060000 		.4byte	0x697
 2347 067e 1E       		.uleb128 0x1e
 2348 067f 08000000 		.4byte	.LBB3
 2349 0683 10000000 		.4byte	.LBE3-.LBB3
 2350 0687 10       		.uleb128 0x10
 2351 0688 10020000 		.4byte	.LASF67
 2352 068c 03       		.byte	0x3
 2353 068d 70       		.byte	0x70
 2354 068e 23010000 		.4byte	0x123
 2355 0692 02       		.uleb128 0x2
 2356 0693 91       		.byte	0x91
 2357 0694 77       		.sleb128 -9
 2358 0695 00       		.byte	0
 2359 0696 00       		.byte	0
 2360 0697 1D       		.uleb128 0x1d
 2361 0698 6A030000 		.4byte	.LASF69
 2362 069c 03       		.byte	0x3
 2363 069d 76       		.byte	0x76
 2364 069e 00000000 		.4byte	.LFB84
 2365 06a2 30000000 		.4byte	.LFE84-.LFB84
ARM GAS  C:\Users\Runeg\AppData\Local\Temp\ccusGBrN.s 			page 53


 2366 06a6 01       		.uleb128 0x1
 2367 06a7 9C       		.byte	0x9c
 2368 06a8 C9060000 		.4byte	0x6c9
 2369 06ac 0F       		.uleb128 0xf
 2370 06ad 46020000 		.4byte	.LASF70
 2371 06b1 03       		.byte	0x3
 2372 06b2 76       		.byte	0x76
 2373 06b3 1D030000 		.4byte	0x31d
 2374 06b7 02       		.uleb128 0x2
 2375 06b8 91       		.byte	0x91
 2376 06b9 6C       		.sleb128 -20
 2377 06ba 10       		.uleb128 0x10
 2378 06bb 19070000 		.4byte	.LASF71
 2379 06bf 03       		.byte	0x3
 2380 06c0 78       		.byte	0x78
 2381 06c1 35020000 		.4byte	0x235
 2382 06c5 02       		.uleb128 0x2
 2383 06c6 91       		.byte	0x91
 2384 06c7 74       		.sleb128 -12
 2385 06c8 00       		.byte	0
 2386 06c9 1D       		.uleb128 0x1d
 2387 06ca C4010000 		.4byte	.LASF72
 2388 06ce 03       		.byte	0x3
 2389 06cf 7E       		.byte	0x7e
 2390 06d0 00000000 		.4byte	.LFB85
 2391 06d4 30000000 		.4byte	.LFE85-.LFB85
 2392 06d8 01       		.uleb128 0x1
 2393 06d9 9C       		.byte	0x9c
 2394 06da FB060000 		.4byte	0x6fb
 2395 06de 0F       		.uleb128 0xf
 2396 06df 61010000 		.4byte	.LASF73
 2397 06e3 03       		.byte	0x3
 2398 06e4 7E       		.byte	0x7e
 2399 06e5 A0040000 		.4byte	0x4a0
 2400 06e9 02       		.uleb128 0x2
 2401 06ea 91       		.byte	0x91
 2402 06eb 6C       		.sleb128 -20
 2403 06ec 10       		.uleb128 0x10
 2404 06ed 19070000 		.4byte	.LASF71
 2405 06f1 03       		.byte	0x3
 2406 06f2 80       		.byte	0x80
 2407 06f3 35020000 		.4byte	0x235
 2408 06f7 02       		.uleb128 0x2
 2409 06f8 91       		.byte	0x91
 2410 06f9 74       		.sleb128 -12
 2411 06fa 00       		.byte	0
 2412 06fb 1D       		.uleb128 0x1d
 2413 06fc A3020000 		.4byte	.LASF74
 2414 0700 03       		.byte	0x3
 2415 0701 86       		.byte	0x86
 2416 0702 00000000 		.4byte	.LFB86
 2417 0706 30000000 		.4byte	.LFE86-.LFB86
 2418 070a 01       		.uleb128 0x1
 2419 070b 9C       		.byte	0x9c
 2420 070c 2D070000 		.4byte	0x72d
 2421 0710 0F       		.uleb128 0xf
 2422 0711 4A010000 		.4byte	.LASF75
ARM GAS  C:\Users\Runeg\AppData\Local\Temp\ccusGBrN.s 			page 54


 2423 0715 03       		.byte	0x3
 2424 0716 86       		.byte	0x86
 2425 0717 B0030000 		.4byte	0x3b0
 2426 071b 02       		.uleb128 0x2
 2427 071c 91       		.byte	0x91
 2428 071d 6C       		.sleb128 -20
 2429 071e 10       		.uleb128 0x10
 2430 071f 19070000 		.4byte	.LASF71
 2431 0723 03       		.byte	0x3
 2432 0724 88       		.byte	0x88
 2433 0725 35020000 		.4byte	0x235
 2434 0729 02       		.uleb128 0x2
 2435 072a 91       		.byte	0x91
 2436 072b 74       		.sleb128 -12
 2437 072c 00       		.byte	0
 2438 072d 22       		.uleb128 0x22
 2439 072e 8A060000 		.4byte	.LASF76
 2440 0732 07       		.byte	0x7
 2441 0733 1207     		.2byte	0x712
 2442 0735 39070000 		.4byte	0x739
 2443 0739 23       		.uleb128 0x23
 2444 073a 39010000 		.4byte	0x139
 2445 073e 24       		.uleb128 0x24
 2446 073f 36010000 		.4byte	.LASF77
 2447 0743 03       		.byte	0x3
 2448 0744 23       		.byte	0x23
 2449 0745 35020000 		.4byte	0x235
 2450 0749 05       		.uleb128 0x5
 2451 074a 03       		.byte	0x3
 2452 074b 00000000 		.4byte	current_packet
 2453 074f 24       		.uleb128 0x24
 2454 0750 73050000 		.4byte	.LASF78
 2455 0754 03       		.byte	0x3
 2456 0755 24       		.byte	0x24
 2457 0756 37000000 		.4byte	0x37
 2458 075a 05       		.uleb128 0x5
 2459 075b 03       		.byte	0x3
 2460 075c 00000000 		.4byte	discard_packet
 2461 0760 24       		.uleb128 0x24
 2462 0761 E1020000 		.4byte	.LASF79
 2463 0765 03       		.byte	0x3
 2464 0766 34       		.byte	0x34
 2465 0767 2E060000 		.4byte	0x62e
 2466 076b 05       		.uleb128 0x5
 2467 076c 03       		.byte	0x3
 2468 076d 00000000 		.4byte	raise_flag_handler
 2469 0771 00       		.byte	0
 2470              		.section	.debug_abbrev,"",%progbits
 2471              	.Ldebug_abbrev0:
 2472 0000 01       		.uleb128 0x1
 2473 0001 11       		.uleb128 0x11
 2474 0002 01       		.byte	0x1
 2475 0003 25       		.uleb128 0x25
 2476 0004 0E       		.uleb128 0xe
 2477 0005 13       		.uleb128 0x13
 2478 0006 0B       		.uleb128 0xb
 2479 0007 03       		.uleb128 0x3
ARM GAS  C:\Users\Runeg\AppData\Local\Temp\ccusGBrN.s 			page 55


 2480 0008 0E       		.uleb128 0xe
 2481 0009 1B       		.uleb128 0x1b
 2482 000a 0E       		.uleb128 0xe
 2483 000b 55       		.uleb128 0x55
 2484 000c 17       		.uleb128 0x17
 2485 000d 11       		.uleb128 0x11
 2486 000e 01       		.uleb128 0x1
 2487 000f 10       		.uleb128 0x10
 2488 0010 17       		.uleb128 0x17
 2489 0011 00       		.byte	0
 2490 0012 00       		.byte	0
 2491 0013 02       		.uleb128 0x2
 2492 0014 16       		.uleb128 0x16
 2493 0015 00       		.byte	0
 2494 0016 03       		.uleb128 0x3
 2495 0017 0E       		.uleb128 0xe
 2496 0018 3A       		.uleb128 0x3a
 2497 0019 0B       		.uleb128 0xb
 2498 001a 3B       		.uleb128 0x3b
 2499 001b 0B       		.uleb128 0xb
 2500 001c 49       		.uleb128 0x49
 2501 001d 13       		.uleb128 0x13
 2502 001e 00       		.byte	0
 2503 001f 00       		.byte	0
 2504 0020 03       		.uleb128 0x3
 2505 0021 24       		.uleb128 0x24
 2506 0022 00       		.byte	0
 2507 0023 0B       		.uleb128 0xb
 2508 0024 0B       		.uleb128 0xb
 2509 0025 3E       		.uleb128 0x3e
 2510 0026 0B       		.uleb128 0xb
 2511 0027 03       		.uleb128 0x3
 2512 0028 0E       		.uleb128 0xe
 2513 0029 00       		.byte	0
 2514 002a 00       		.byte	0
 2515 002b 04       		.uleb128 0x4
 2516 002c 24       		.uleb128 0x24
 2517 002d 00       		.byte	0
 2518 002e 0B       		.uleb128 0xb
 2519 002f 0B       		.uleb128 0xb
 2520 0030 3E       		.uleb128 0x3e
 2521 0031 0B       		.uleb128 0xb
 2522 0032 03       		.uleb128 0x3
 2523 0033 08       		.uleb128 0x8
 2524 0034 00       		.byte	0
 2525 0035 00       		.byte	0
 2526 0036 05       		.uleb128 0x5
 2527 0037 0F       		.uleb128 0xf
 2528 0038 00       		.byte	0
 2529 0039 0B       		.uleb128 0xb
 2530 003a 0B       		.uleb128 0xb
 2531 003b 49       		.uleb128 0x49
 2532 003c 13       		.uleb128 0x13
 2533 003d 00       		.byte	0
 2534 003e 00       		.byte	0
 2535 003f 06       		.uleb128 0x6
 2536 0040 26       		.uleb128 0x26
ARM GAS  C:\Users\Runeg\AppData\Local\Temp\ccusGBrN.s 			page 56


 2537 0041 00       		.byte	0
 2538 0042 49       		.uleb128 0x49
 2539 0043 13       		.uleb128 0x13
 2540 0044 00       		.byte	0
 2541 0045 00       		.byte	0
 2542 0046 07       		.uleb128 0x7
 2543 0047 04       		.uleb128 0x4
 2544 0048 01       		.byte	0x1
 2545 0049 03       		.uleb128 0x3
 2546 004a 0E       		.uleb128 0xe
 2547 004b 0B       		.uleb128 0xb
 2548 004c 0B       		.uleb128 0xb
 2549 004d 49       		.uleb128 0x49
 2550 004e 13       		.uleb128 0x13
 2551 004f 3A       		.uleb128 0x3a
 2552 0050 0B       		.uleb128 0xb
 2553 0051 3B       		.uleb128 0x3b
 2554 0052 0B       		.uleb128 0xb
 2555 0053 01       		.uleb128 0x1
 2556 0054 13       		.uleb128 0x13
 2557 0055 00       		.byte	0
 2558 0056 00       		.byte	0
 2559 0057 08       		.uleb128 0x8
 2560 0058 28       		.uleb128 0x28
 2561 0059 00       		.byte	0
 2562 005a 03       		.uleb128 0x3
 2563 005b 0E       		.uleb128 0xe
 2564 005c 1C       		.uleb128 0x1c
 2565 005d 0B       		.uleb128 0xb
 2566 005e 00       		.byte	0
 2567 005f 00       		.byte	0
 2568 0060 09       		.uleb128 0x9
 2569 0061 13       		.uleb128 0x13
 2570 0062 01       		.byte	0x1
 2571 0063 03       		.uleb128 0x3
 2572 0064 0E       		.uleb128 0xe
 2573 0065 0B       		.uleb128 0xb
 2574 0066 0B       		.uleb128 0xb
 2575 0067 3A       		.uleb128 0x3a
 2576 0068 0B       		.uleb128 0xb
 2577 0069 3B       		.uleb128 0x3b
 2578 006a 0B       		.uleb128 0xb
 2579 006b 01       		.uleb128 0x1
 2580 006c 13       		.uleb128 0x13
 2581 006d 00       		.byte	0
 2582 006e 00       		.byte	0
 2583 006f 0A       		.uleb128 0xa
 2584 0070 0D       		.uleb128 0xd
 2585 0071 00       		.byte	0
 2586 0072 03       		.uleb128 0x3
 2587 0073 0E       		.uleb128 0xe
 2588 0074 3A       		.uleb128 0x3a
 2589 0075 0B       		.uleb128 0xb
 2590 0076 3B       		.uleb128 0x3b
 2591 0077 0B       		.uleb128 0xb
 2592 0078 49       		.uleb128 0x49
 2593 0079 13       		.uleb128 0x13
ARM GAS  C:\Users\Runeg\AppData\Local\Temp\ccusGBrN.s 			page 57


 2594 007a 38       		.uleb128 0x38
 2595 007b 0B       		.uleb128 0xb
 2596 007c 00       		.byte	0
 2597 007d 00       		.byte	0
 2598 007e 0B       		.uleb128 0xb
 2599 007f 13       		.uleb128 0x13
 2600 0080 00       		.byte	0
 2601 0081 03       		.uleb128 0x3
 2602 0082 0E       		.uleb128 0xe
 2603 0083 0B       		.uleb128 0xb
 2604 0084 0B       		.uleb128 0xb
 2605 0085 3A       		.uleb128 0x3a
 2606 0086 0B       		.uleb128 0xb
 2607 0087 3B       		.uleb128 0x3b
 2608 0088 0B       		.uleb128 0xb
 2609 0089 00       		.byte	0
 2610 008a 00       		.byte	0
 2611 008b 0C       		.uleb128 0xc
 2612 008c 13       		.uleb128 0x13
 2613 008d 01       		.byte	0x1
 2614 008e 03       		.uleb128 0x3
 2615 008f 0E       		.uleb128 0xe
 2616 0090 0B       		.uleb128 0xb
 2617 0091 0B       		.uleb128 0xb
 2618 0092 3A       		.uleb128 0x3a
 2619 0093 0B       		.uleb128 0xb
 2620 0094 3B       		.uleb128 0x3b
 2621 0095 05       		.uleb128 0x5
 2622 0096 01       		.uleb128 0x1
 2623 0097 13       		.uleb128 0x13
 2624 0098 00       		.byte	0
 2625 0099 00       		.byte	0
 2626 009a 0D       		.uleb128 0xd
 2627 009b 0D       		.uleb128 0xd
 2628 009c 00       		.byte	0
 2629 009d 03       		.uleb128 0x3
 2630 009e 0E       		.uleb128 0xe
 2631 009f 3A       		.uleb128 0x3a
 2632 00a0 0B       		.uleb128 0xb
 2633 00a1 3B       		.uleb128 0x3b
 2634 00a2 05       		.uleb128 0x5
 2635 00a3 49       		.uleb128 0x49
 2636 00a4 13       		.uleb128 0x13
 2637 00a5 38       		.uleb128 0x38
 2638 00a6 0B       		.uleb128 0xb
 2639 00a7 00       		.byte	0
 2640 00a8 00       		.byte	0
 2641 00a9 0E       		.uleb128 0xe
 2642 00aa 2E       		.uleb128 0x2e
 2643 00ab 01       		.byte	0x1
 2644 00ac 03       		.uleb128 0x3
 2645 00ad 0E       		.uleb128 0xe
 2646 00ae 3A       		.uleb128 0x3a
 2647 00af 0B       		.uleb128 0xb
 2648 00b0 3B       		.uleb128 0x3b
 2649 00b1 0B       		.uleb128 0xb
 2650 00b2 27       		.uleb128 0x27
ARM GAS  C:\Users\Runeg\AppData\Local\Temp\ccusGBrN.s 			page 58


 2651 00b3 19       		.uleb128 0x19
 2652 00b4 49       		.uleb128 0x49
 2653 00b5 13       		.uleb128 0x13
 2654 00b6 11       		.uleb128 0x11
 2655 00b7 01       		.uleb128 0x1
 2656 00b8 12       		.uleb128 0x12
 2657 00b9 06       		.uleb128 0x6
 2658 00ba 40       		.uleb128 0x40
 2659 00bb 18       		.uleb128 0x18
 2660 00bc 9642     		.uleb128 0x2116
 2661 00be 19       		.uleb128 0x19
 2662 00bf 01       		.uleb128 0x1
 2663 00c0 13       		.uleb128 0x13
 2664 00c1 00       		.byte	0
 2665 00c2 00       		.byte	0
 2666 00c3 0F       		.uleb128 0xf
 2667 00c4 05       		.uleb128 0x5
 2668 00c5 00       		.byte	0
 2669 00c6 03       		.uleb128 0x3
 2670 00c7 0E       		.uleb128 0xe
 2671 00c8 3A       		.uleb128 0x3a
 2672 00c9 0B       		.uleb128 0xb
 2673 00ca 3B       		.uleb128 0x3b
 2674 00cb 0B       		.uleb128 0xb
 2675 00cc 49       		.uleb128 0x49
 2676 00cd 13       		.uleb128 0x13
 2677 00ce 02       		.uleb128 0x2
 2678 00cf 18       		.uleb128 0x18
 2679 00d0 00       		.byte	0
 2680 00d1 00       		.byte	0
 2681 00d2 10       		.uleb128 0x10
 2682 00d3 34       		.uleb128 0x34
 2683 00d4 00       		.byte	0
 2684 00d5 03       		.uleb128 0x3
 2685 00d6 0E       		.uleb128 0xe
 2686 00d7 3A       		.uleb128 0x3a
 2687 00d8 0B       		.uleb128 0xb
 2688 00d9 3B       		.uleb128 0x3b
 2689 00da 0B       		.uleb128 0xb
 2690 00db 49       		.uleb128 0x49
 2691 00dc 13       		.uleb128 0x13
 2692 00dd 02       		.uleb128 0x2
 2693 00de 18       		.uleb128 0x18
 2694 00df 00       		.byte	0
 2695 00e0 00       		.byte	0
 2696 00e1 11       		.uleb128 0x11
 2697 00e2 2E       		.uleb128 0x2e
 2698 00e3 01       		.byte	0x1
 2699 00e4 03       		.uleb128 0x3
 2700 00e5 0E       		.uleb128 0xe
 2701 00e6 3A       		.uleb128 0x3a
 2702 00e7 0B       		.uleb128 0xb
 2703 00e8 3B       		.uleb128 0x3b
 2704 00e9 0B       		.uleb128 0xb
 2705 00ea 27       		.uleb128 0x27
 2706 00eb 19       		.uleb128 0x19
 2707 00ec 11       		.uleb128 0x11
ARM GAS  C:\Users\Runeg\AppData\Local\Temp\ccusGBrN.s 			page 59


 2708 00ed 01       		.uleb128 0x1
 2709 00ee 12       		.uleb128 0x12
 2710 00ef 06       		.uleb128 0x6
 2711 00f0 40       		.uleb128 0x40
 2712 00f1 18       		.uleb128 0x18
 2713 00f2 9642     		.uleb128 0x2116
 2714 00f4 19       		.uleb128 0x19
 2715 00f5 01       		.uleb128 0x1
 2716 00f6 13       		.uleb128 0x13
 2717 00f7 00       		.byte	0
 2718 00f8 00       		.byte	0
 2719 00f9 12       		.uleb128 0x12
 2720 00fa 2E       		.uleb128 0x2e
 2721 00fb 01       		.byte	0x1
 2722 00fc 03       		.uleb128 0x3
 2723 00fd 0E       		.uleb128 0xe
 2724 00fe 3A       		.uleb128 0x3a
 2725 00ff 0B       		.uleb128 0xb
 2726 0100 3B       		.uleb128 0x3b
 2727 0101 0B       		.uleb128 0xb
 2728 0102 27       		.uleb128 0x27
 2729 0103 19       		.uleb128 0x19
 2730 0104 49       		.uleb128 0x49
 2731 0105 13       		.uleb128 0x13
 2732 0106 11       		.uleb128 0x11
 2733 0107 01       		.uleb128 0x1
 2734 0108 12       		.uleb128 0x12
 2735 0109 06       		.uleb128 0x6
 2736 010a 40       		.uleb128 0x40
 2737 010b 18       		.uleb128 0x18
 2738 010c 9742     		.uleb128 0x2117
 2739 010e 19       		.uleb128 0x19
 2740 010f 01       		.uleb128 0x1
 2741 0110 13       		.uleb128 0x13
 2742 0111 00       		.byte	0
 2743 0112 00       		.byte	0
 2744 0113 13       		.uleb128 0x13
 2745 0114 05       		.uleb128 0x5
 2746 0115 00       		.byte	0
 2747 0116 03       		.uleb128 0x3
 2748 0117 08       		.uleb128 0x8
 2749 0118 3A       		.uleb128 0x3a
 2750 0119 0B       		.uleb128 0xb
 2751 011a 3B       		.uleb128 0x3b
 2752 011b 0B       		.uleb128 0xb
 2753 011c 49       		.uleb128 0x49
 2754 011d 13       		.uleb128 0x13
 2755 011e 02       		.uleb128 0x2
 2756 011f 18       		.uleb128 0x18
 2757 0120 00       		.byte	0
 2758 0121 00       		.byte	0
 2759 0122 14       		.uleb128 0x14
 2760 0123 2E       		.uleb128 0x2e
 2761 0124 01       		.byte	0x1
 2762 0125 03       		.uleb128 0x3
 2763 0126 0E       		.uleb128 0xe
 2764 0127 3A       		.uleb128 0x3a
ARM GAS  C:\Users\Runeg\AppData\Local\Temp\ccusGBrN.s 			page 60


 2765 0128 0B       		.uleb128 0xb
 2766 0129 3B       		.uleb128 0x3b
 2767 012a 05       		.uleb128 0x5
 2768 012b 27       		.uleb128 0x27
 2769 012c 19       		.uleb128 0x19
 2770 012d 49       		.uleb128 0x49
 2771 012e 13       		.uleb128 0x13
 2772 012f 11       		.uleb128 0x11
 2773 0130 01       		.uleb128 0x1
 2774 0131 12       		.uleb128 0x12
 2775 0132 06       		.uleb128 0x6
 2776 0133 40       		.uleb128 0x40
 2777 0134 18       		.uleb128 0x18
 2778 0135 9742     		.uleb128 0x2117
 2779 0137 19       		.uleb128 0x19
 2780 0138 01       		.uleb128 0x1
 2781 0139 13       		.uleb128 0x13
 2782 013a 00       		.byte	0
 2783 013b 00       		.byte	0
 2784 013c 15       		.uleb128 0x15
 2785 013d 05       		.uleb128 0x5
 2786 013e 00       		.byte	0
 2787 013f 03       		.uleb128 0x3
 2788 0140 0E       		.uleb128 0xe
 2789 0141 3A       		.uleb128 0x3a
 2790 0142 0B       		.uleb128 0xb
 2791 0143 3B       		.uleb128 0x3b
 2792 0144 05       		.uleb128 0x5
 2793 0145 49       		.uleb128 0x49
 2794 0146 13       		.uleb128 0x13
 2795 0147 02       		.uleb128 0x2
 2796 0148 18       		.uleb128 0x18
 2797 0149 00       		.byte	0
 2798 014a 00       		.byte	0
 2799 014b 16       		.uleb128 0x16
 2800 014c 34       		.uleb128 0x34
 2801 014d 00       		.byte	0
 2802 014e 03       		.uleb128 0x3
 2803 014f 0E       		.uleb128 0xe
 2804 0150 3A       		.uleb128 0x3a
 2805 0151 0B       		.uleb128 0xb
 2806 0152 3B       		.uleb128 0x3b
 2807 0153 05       		.uleb128 0x5
 2808 0154 49       		.uleb128 0x49
 2809 0155 13       		.uleb128 0x13
 2810 0156 02       		.uleb128 0x2
 2811 0157 18       		.uleb128 0x18
 2812 0158 00       		.byte	0
 2813 0159 00       		.byte	0
 2814 015a 17       		.uleb128 0x17
 2815 015b 2E       		.uleb128 0x2e
 2816 015c 01       		.byte	0x1
 2817 015d 03       		.uleb128 0x3
 2818 015e 0E       		.uleb128 0xe
 2819 015f 3A       		.uleb128 0x3a
 2820 0160 0B       		.uleb128 0xb
 2821 0161 3B       		.uleb128 0x3b
ARM GAS  C:\Users\Runeg\AppData\Local\Temp\ccusGBrN.s 			page 61


 2822 0162 05       		.uleb128 0x5
 2823 0163 27       		.uleb128 0x27
 2824 0164 19       		.uleb128 0x19
 2825 0165 49       		.uleb128 0x49
 2826 0166 13       		.uleb128 0x13
 2827 0167 11       		.uleb128 0x11
 2828 0168 01       		.uleb128 0x1
 2829 0169 12       		.uleb128 0x12
 2830 016a 06       		.uleb128 0x6
 2831 016b 40       		.uleb128 0x40
 2832 016c 18       		.uleb128 0x18
 2833 016d 9642     		.uleb128 0x2116
 2834 016f 19       		.uleb128 0x19
 2835 0170 01       		.uleb128 0x1
 2836 0171 13       		.uleb128 0x13
 2837 0172 00       		.byte	0
 2838 0173 00       		.byte	0
 2839 0174 18       		.uleb128 0x18
 2840 0175 05       		.uleb128 0x5
 2841 0176 00       		.byte	0
 2842 0177 03       		.uleb128 0x3
 2843 0178 08       		.uleb128 0x8
 2844 0179 3A       		.uleb128 0x3a
 2845 017a 0B       		.uleb128 0xb
 2846 017b 3B       		.uleb128 0x3b
 2847 017c 05       		.uleb128 0x5
 2848 017d 49       		.uleb128 0x49
 2849 017e 13       		.uleb128 0x13
 2850 017f 02       		.uleb128 0x2
 2851 0180 18       		.uleb128 0x18
 2852 0181 00       		.byte	0
 2853 0182 00       		.byte	0
 2854 0183 19       		.uleb128 0x19
 2855 0184 2E       		.uleb128 0x2e
 2856 0185 01       		.byte	0x1
 2857 0186 3F       		.uleb128 0x3f
 2858 0187 19       		.uleb128 0x19
 2859 0188 03       		.uleb128 0x3
 2860 0189 0E       		.uleb128 0xe
 2861 018a 3A       		.uleb128 0x3a
 2862 018b 0B       		.uleb128 0xb
 2863 018c 3B       		.uleb128 0x3b
 2864 018d 0B       		.uleb128 0xb
 2865 018e 27       		.uleb128 0x27
 2866 018f 19       		.uleb128 0x19
 2867 0190 49       		.uleb128 0x49
 2868 0191 13       		.uleb128 0x13
 2869 0192 11       		.uleb128 0x11
 2870 0193 01       		.uleb128 0x1
 2871 0194 12       		.uleb128 0x12
 2872 0195 06       		.uleb128 0x6
 2873 0196 40       		.uleb128 0x40
 2874 0197 18       		.uleb128 0x18
 2875 0198 9642     		.uleb128 0x2116
 2876 019a 19       		.uleb128 0x19
 2877 019b 01       		.uleb128 0x1
 2878 019c 13       		.uleb128 0x13
ARM GAS  C:\Users\Runeg\AppData\Local\Temp\ccusGBrN.s 			page 62


 2879 019d 00       		.byte	0
 2880 019e 00       		.byte	0
 2881 019f 1A       		.uleb128 0x1a
 2882 01a0 34       		.uleb128 0x34
 2883 01a1 00       		.byte	0
 2884 01a2 03       		.uleb128 0x3
 2885 01a3 08       		.uleb128 0x8
 2886 01a4 3A       		.uleb128 0x3a
 2887 01a5 0B       		.uleb128 0xb
 2888 01a6 3B       		.uleb128 0x3b
 2889 01a7 0B       		.uleb128 0xb
 2890 01a8 49       		.uleb128 0x49
 2891 01a9 13       		.uleb128 0x13
 2892 01aa 02       		.uleb128 0x2
 2893 01ab 18       		.uleb128 0x18
 2894 01ac 00       		.byte	0
 2895 01ad 00       		.byte	0
 2896 01ae 1B       		.uleb128 0x1b
 2897 01af 01       		.uleb128 0x1
 2898 01b0 01       		.byte	0x1
 2899 01b1 49       		.uleb128 0x49
 2900 01b2 13       		.uleb128 0x13
 2901 01b3 01       		.uleb128 0x1
 2902 01b4 13       		.uleb128 0x13
 2903 01b5 00       		.byte	0
 2904 01b6 00       		.byte	0
 2905 01b7 1C       		.uleb128 0x1c
 2906 01b8 21       		.uleb128 0x21
 2907 01b9 00       		.byte	0
 2908 01ba 49       		.uleb128 0x49
 2909 01bb 13       		.uleb128 0x13
 2910 01bc 2F       		.uleb128 0x2f
 2911 01bd 0B       		.uleb128 0xb
 2912 01be 00       		.byte	0
 2913 01bf 00       		.byte	0
 2914 01c0 1D       		.uleb128 0x1d
 2915 01c1 2E       		.uleb128 0x2e
 2916 01c2 01       		.byte	0x1
 2917 01c3 3F       		.uleb128 0x3f
 2918 01c4 19       		.uleb128 0x19
 2919 01c5 03       		.uleb128 0x3
 2920 01c6 0E       		.uleb128 0xe
 2921 01c7 3A       		.uleb128 0x3a
 2922 01c8 0B       		.uleb128 0xb
 2923 01c9 3B       		.uleb128 0x3b
 2924 01ca 0B       		.uleb128 0xb
 2925 01cb 27       		.uleb128 0x27
 2926 01cc 19       		.uleb128 0x19
 2927 01cd 11       		.uleb128 0x11
 2928 01ce 01       		.uleb128 0x1
 2929 01cf 12       		.uleb128 0x12
 2930 01d0 06       		.uleb128 0x6
 2931 01d1 40       		.uleb128 0x40
 2932 01d2 18       		.uleb128 0x18
 2933 01d3 9642     		.uleb128 0x2116
 2934 01d5 19       		.uleb128 0x19
 2935 01d6 01       		.uleb128 0x1
ARM GAS  C:\Users\Runeg\AppData\Local\Temp\ccusGBrN.s 			page 63


 2936 01d7 13       		.uleb128 0x13
 2937 01d8 00       		.byte	0
 2938 01d9 00       		.byte	0
 2939 01da 1E       		.uleb128 0x1e
 2940 01db 0B       		.uleb128 0xb
 2941 01dc 01       		.byte	0x1
 2942 01dd 11       		.uleb128 0x11
 2943 01de 01       		.uleb128 0x1
 2944 01df 12       		.uleb128 0x12
 2945 01e0 06       		.uleb128 0x6
 2946 01e1 00       		.byte	0
 2947 01e2 00       		.byte	0
 2948 01e3 1F       		.uleb128 0x1f
 2949 01e4 15       		.uleb128 0x15
 2950 01e5 01       		.byte	0x1
 2951 01e6 27       		.uleb128 0x27
 2952 01e7 19       		.uleb128 0x19
 2953 01e8 49       		.uleb128 0x49
 2954 01e9 13       		.uleb128 0x13
 2955 01ea 01       		.uleb128 0x1
 2956 01eb 13       		.uleb128 0x13
 2957 01ec 00       		.byte	0
 2958 01ed 00       		.byte	0
 2959 01ee 20       		.uleb128 0x20
 2960 01ef 05       		.uleb128 0x5
 2961 01f0 00       		.byte	0
 2962 01f1 49       		.uleb128 0x49
 2963 01f2 13       		.uleb128 0x13
 2964 01f3 00       		.byte	0
 2965 01f4 00       		.byte	0
 2966 01f5 21       		.uleb128 0x21
 2967 01f6 2E       		.uleb128 0x2e
 2968 01f7 00       		.byte	0
 2969 01f8 3F       		.uleb128 0x3f
 2970 01f9 19       		.uleb128 0x19
 2971 01fa 03       		.uleb128 0x3
 2972 01fb 0E       		.uleb128 0xe
 2973 01fc 3A       		.uleb128 0x3a
 2974 01fd 0B       		.uleb128 0xb
 2975 01fe 3B       		.uleb128 0x3b
 2976 01ff 0B       		.uleb128 0xb
 2977 0200 11       		.uleb128 0x11
 2978 0201 01       		.uleb128 0x1
 2979 0202 12       		.uleb128 0x12
 2980 0203 06       		.uleb128 0x6
 2981 0204 40       		.uleb128 0x40
 2982 0205 18       		.uleb128 0x18
 2983 0206 9642     		.uleb128 0x2116
 2984 0208 19       		.uleb128 0x19
 2985 0209 00       		.byte	0
 2986 020a 00       		.byte	0
 2987 020b 22       		.uleb128 0x22
 2988 020c 34       		.uleb128 0x34
 2989 020d 00       		.byte	0
 2990 020e 03       		.uleb128 0x3
 2991 020f 0E       		.uleb128 0xe
 2992 0210 3A       		.uleb128 0x3a
ARM GAS  C:\Users\Runeg\AppData\Local\Temp\ccusGBrN.s 			page 64


 2993 0211 0B       		.uleb128 0xb
 2994 0212 3B       		.uleb128 0x3b
 2995 0213 05       		.uleb128 0x5
 2996 0214 49       		.uleb128 0x49
 2997 0215 13       		.uleb128 0x13
 2998 0216 3F       		.uleb128 0x3f
 2999 0217 19       		.uleb128 0x19
 3000 0218 3C       		.uleb128 0x3c
 3001 0219 19       		.uleb128 0x19
 3002 021a 00       		.byte	0
 3003 021b 00       		.byte	0
 3004 021c 23       		.uleb128 0x23
 3005 021d 35       		.uleb128 0x35
 3006 021e 00       		.byte	0
 3007 021f 49       		.uleb128 0x49
 3008 0220 13       		.uleb128 0x13
 3009 0221 00       		.byte	0
 3010 0222 00       		.byte	0
 3011 0223 24       		.uleb128 0x24
 3012 0224 34       		.uleb128 0x34
 3013 0225 00       		.byte	0
 3014 0226 03       		.uleb128 0x3
 3015 0227 0E       		.uleb128 0xe
 3016 0228 3A       		.uleb128 0x3a
 3017 0229 0B       		.uleb128 0xb
 3018 022a 3B       		.uleb128 0x3b
 3019 022b 0B       		.uleb128 0xb
 3020 022c 49       		.uleb128 0x49
 3021 022d 13       		.uleb128 0x13
 3022 022e 3F       		.uleb128 0x3f
 3023 022f 19       		.uleb128 0x19
 3024 0230 02       		.uleb128 0x2
 3025 0231 18       		.uleb128 0x18
 3026 0232 00       		.byte	0
 3027 0233 00       		.byte	0
 3028 0234 00       		.byte	0
 3029              		.section	.debug_aranges,"",%progbits
 3030 0000 CC000000 		.4byte	0xcc
 3031 0004 0200     		.2byte	0x2
 3032 0006 00000000 		.4byte	.Ldebug_info0
 3033 000a 04       		.byte	0x4
 3034 000b 00       		.byte	0
 3035 000c 0000     		.2byte	0
 3036 000e 0000     		.2byte	0
 3037 0010 00000000 		.4byte	.LFB0
 3038 0014 4E000000 		.4byte	.LFE0-.LFB0
 3039 0018 00000000 		.4byte	.LFB1
 3040 001c 20000000 		.4byte	.LFE1-.LFB1
 3041 0020 00000000 		.4byte	.LFB2
 3042 0024 2C000000 		.4byte	.LFE2-.LFB2
 3043 0028 00000000 		.4byte	.LFB3
 3044 002c 44000000 		.4byte	.LFE3-.LFB3
 3045 0030 00000000 		.4byte	.LFB4
 3046 0034 36000000 		.4byte	.LFE4-.LFB4
 3047 0038 00000000 		.4byte	.LFB5
 3048 003c 60000000 		.4byte	.LFE5-.LFB5
 3049 0040 00000000 		.4byte	.LFB6
ARM GAS  C:\Users\Runeg\AppData\Local\Temp\ccusGBrN.s 			page 65


 3050 0044 4C000000 		.4byte	.LFE6-.LFB6
 3051 0048 00000000 		.4byte	.LFB7
 3052 004c 7A000000 		.4byte	.LFE7-.LFB7
 3053 0050 00000000 		.4byte	.LFB8
 3054 0054 24000000 		.4byte	.LFE8-.LFB8
 3055 0058 00000000 		.4byte	.LFB9
 3056 005c 44000000 		.4byte	.LFE9-.LFB9
 3057 0060 00000000 		.4byte	.LFB10
 3058 0064 24000000 		.4byte	.LFE10-.LFB10
 3059 0068 00000000 		.4byte	.LFB11
 3060 006c 44000000 		.4byte	.LFE11-.LFB11
 3061 0070 00000000 		.4byte	.LFB12
 3062 0074 4A000000 		.4byte	.LFE12-.LFB12
 3063 0078 00000000 		.4byte	.LFB13
 3064 007c 7E000000 		.4byte	.LFE13-.LFB13
 3065 0080 00000000 		.4byte	.LFB78
 3066 0084 54000000 		.4byte	.LFE78-.LFB78
 3067 0088 00000000 		.4byte	.LFB79
 3068 008c 40000000 		.4byte	.LFE79-.LFB79
 3069 0090 00000000 		.4byte	.LFB80
 3070 0094 28000000 		.4byte	.LFE80-.LFB80
 3071 0098 00000000 		.4byte	.LFB81
 3072 009c 18000000 		.4byte	.LFE81-.LFB81
 3073 00a0 00000000 		.4byte	.LFB82
 3074 00a4 B4000000 		.4byte	.LFE82-.LFB82
 3075 00a8 00000000 		.4byte	.LFB83
 3076 00ac 2A000000 		.4byte	.LFE83-.LFB83
 3077 00b0 00000000 		.4byte	.LFB84
 3078 00b4 30000000 		.4byte	.LFE84-.LFB84
 3079 00b8 00000000 		.4byte	.LFB85
 3080 00bc 30000000 		.4byte	.LFE85-.LFB85
 3081 00c0 00000000 		.4byte	.LFB86
 3082 00c4 30000000 		.4byte	.LFE86-.LFB86
 3083 00c8 00000000 		.4byte	0
 3084 00cc 00000000 		.4byte	0
 3085              		.section	.debug_ranges,"",%progbits
 3086              	.Ldebug_ranges0:
 3087 0000 00000000 		.4byte	.LFB0
 3088 0004 4E000000 		.4byte	.LFE0
 3089 0008 00000000 		.4byte	.LFB1
 3090 000c 20000000 		.4byte	.LFE1
 3091 0010 00000000 		.4byte	.LFB2
 3092 0014 2C000000 		.4byte	.LFE2
 3093 0018 00000000 		.4byte	.LFB3
 3094 001c 44000000 		.4byte	.LFE3
 3095 0020 00000000 		.4byte	.LFB4
 3096 0024 36000000 		.4byte	.LFE4
 3097 0028 00000000 		.4byte	.LFB5
 3098 002c 60000000 		.4byte	.LFE5
 3099 0030 00000000 		.4byte	.LFB6
 3100 0034 4C000000 		.4byte	.LFE6
 3101 0038 00000000 		.4byte	.LFB7
 3102 003c 7A000000 		.4byte	.LFE7
 3103 0040 00000000 		.4byte	.LFB8
 3104 0044 24000000 		.4byte	.LFE8
 3105 0048 00000000 		.4byte	.LFB9
 3106 004c 44000000 		.4byte	.LFE9
ARM GAS  C:\Users\Runeg\AppData\Local\Temp\ccusGBrN.s 			page 66


 3107 0050 00000000 		.4byte	.LFB10
 3108 0054 24000000 		.4byte	.LFE10
 3109 0058 00000000 		.4byte	.LFB11
 3110 005c 44000000 		.4byte	.LFE11
 3111 0060 00000000 		.4byte	.LFB12
 3112 0064 4A000000 		.4byte	.LFE12
 3113 0068 00000000 		.4byte	.LFB13
 3114 006c 7E000000 		.4byte	.LFE13
 3115 0070 00000000 		.4byte	.LFB78
 3116 0074 54000000 		.4byte	.LFE78
 3117 0078 00000000 		.4byte	.LFB79
 3118 007c 40000000 		.4byte	.LFE79
 3119 0080 00000000 		.4byte	.LFB80
 3120 0084 28000000 		.4byte	.LFE80
 3121 0088 00000000 		.4byte	.LFB81
 3122 008c 18000000 		.4byte	.LFE81
 3123 0090 00000000 		.4byte	.LFB82
 3124 0094 B4000000 		.4byte	.LFE82
 3125 0098 00000000 		.4byte	.LFB83
 3126 009c 2A000000 		.4byte	.LFE83
 3127 00a0 00000000 		.4byte	.LFB84
 3128 00a4 30000000 		.4byte	.LFE84
 3129 00a8 00000000 		.4byte	.LFB85
 3130 00ac 30000000 		.4byte	.LFE85
 3131 00b0 00000000 		.4byte	.LFB86
 3132 00b4 30000000 		.4byte	.LFE86
 3133 00b8 00000000 		.4byte	0
 3134 00bc 00000000 		.4byte	0
 3135              		.section	.debug_line,"",%progbits
 3136              	.Ldebug_line0:
 3137 0000 6C040000 		.section	.debug_str,"MS",%progbits,1
 3137      0200F801 
 3137      00000201 
 3137      FB0E0D00 
 3137      01010101 
 3138              	.LASF49:
 3139 0000 646D635F 		.ascii	"dmc_packet_complete\000"
 3139      7061636B 
 3139      65745F63 
 3139      6F6D706C 
 3139      65746500 
 3140              	.LASF66:
 3141 0014 68616E64 		.ascii	"handle_byte_received\000"
 3141      6C655F62 
 3141      7974655F 
 3141      72656365 
 3141      69766564 
 3142              	.LASF57:
 3143 0029 646D635F 		.ascii	"dmc_packet_unmarshal_user_confirm\000"
 3143      7061636B 
 3143      65745F75 
 3143      6E6D6172 
 3143      7368616C 
 3144              	.LASF8:
 3145 004b 73686F72 		.ascii	"short int\000"
 3145      7420696E 
 3145      7400
ARM GAS  C:\Users\Runeg\AppData\Local\Temp\ccusGBrN.s 			page 67


 3146              	.LASF4:
 3147 0055 73697A65 		.ascii	"size_t\000"
 3147      5F7400
 3148              	.LASF14:
 3149 005c 73697A65 		.ascii	"sizetype\000"
 3149      74797065 
 3149      00
 3150              	.LASF31:
 3151 0065 444D435F 		.ascii	"DMC_PACKET_OUT_OF_ORDER_REASON_FLUID_CONTAINER_1_RE"
 3151      5041434B 
 3151      45545F4F 
 3151      55545F4F 
 3151      465F4F52 
 3152 0098 4D4F5645 		.ascii	"MOVED\000"
 3152      4400
 3153              	.LASF38:
 3154 009e 636F6E74 		.ascii	"container\000"
 3154      61696E65 
 3154      7200
 3155              	.LASF80:
 3156 00a8 474E5520 		.ascii	"GNU C11 5.4.1 20160609 (release) [ARM/embedded-5-br"
 3156      43313120 
 3156      352E342E 
 3156      31203230 
 3156      31363036 
 3157 00db 616E6368 		.ascii	"anch revision 237715] -mcpu=cortex-m3 -mthumb -g -O"
 3157      20726576 
 3157      6973696F 
 3157      6E203233 
 3157      37373135 
 3158 010e 30202D66 		.ascii	"0 -ffunction-sections -ffat-lto-objects\000"
 3158      66756E63 
 3158      74696F6E 
 3158      2D736563 
 3158      74696F6E 
 3159              	.LASF77:
 3160 0136 63757272 		.ascii	"current_packet\000"
 3160      656E745F 
 3160      7061636B 
 3160      657400
 3161              	.LASF23:
 3162 0145 64617461 		.ascii	"data\000"
 3162      00
 3163              	.LASF75:
 3164 014a 6D656173 		.ascii	"measured_volume_packet\000"
 3164      75726564 
 3164      5F766F6C 
 3164      756D655F 
 3164      7061636B 
 3165              	.LASF73:
 3166 0161 6D616368 		.ascii	"machine_ok_message\000"
 3166      696E655F 
 3166      6F6B5F6D 
 3166      65737361 
 3166      676500
 3167              	.LASF30:
 3168 0174 444D435F 		.ascii	"DMC_PACKET_OUT_OF_ORDER_REASON_UNKNOWN\000"
ARM GAS  C:\Users\Runeg\AppData\Local\Temp\ccusGBrN.s 			page 68


 3168      5041434B 
 3168      45545F4F 
 3168      55545F4F 
 3168      465F4F52 
 3169              	.LASF20:
 3170 019b 444D435F 		.ascii	"DMC_PACKET_DEBUG\000"
 3170      5041434B 
 3170      45545F44 
 3170      45425547 
 3170      00
 3171              	.LASF28:
 3172 01ac 646D635F 		.ascii	"dmc_packet_type\000"
 3172      7061636B 
 3172      65745F74 
 3172      79706500 
 3173              	.LASF25:
 3174 01bc 75696E74 		.ascii	"uint8_t\000"
 3174      385F7400 
 3175              	.LASF72:
 3176 01c4 73656E64 		.ascii	"send_machine_ok_message\000"
 3176      5F6D6163 
 3176      68696E65 
 3176      5F6F6B5F 
 3176      6D657373 
 3177              	.LASF64:
 3178 01dc 696E6974 		.ascii	"init_uart_rpi\000"
 3178      5F756172 
 3178      745F7270 
 3178      6900
 3179              	.LASF47:
 3180 01ea 7061636B 		.ascii	"packet\000"
 3180      657400
 3181              	.LASF29:
 3182 01f1 646D635F 		.ascii	"dmc_packet_out_of_order_reason\000"
 3182      7061636B 
 3182      65745F6F 
 3182      75745F6F 
 3182      665F6F72 
 3183              	.LASF67:
 3184 0210 62797465 		.ascii	"byteReceived\000"
 3184      52656365 
 3184      69766564 
 3184      00
 3185              	.LASF44:
 3186 021d 666C6F61 		.ascii	"float\000"
 3186      7400
 3187              	.LASF35:
 3188 0223 646D635F 		.ascii	"dmc_packet_out_of_order\000"
 3188      7061636B 
 3188      65745F6F 
 3188      75745F6F 
 3188      665F6F72 
 3189              	.LASF34:
 3190 023b 646D635F 		.ascii	"dmc_packet\000"
 3190      7061636B 
 3190      657400
 3191              	.LASF70:
ARM GAS  C:\Users\Runeg\AppData\Local\Temp\ccusGBrN.s 			page 69


 3192 0246 6F75745F 		.ascii	"out_of_order_message\000"
 3192      6F665F6F 
 3192      72646572 
 3192      5F6D6573 
 3192      73616765 
 3193              	.LASF1:
 3194 025b 6C6F6E67 		.ascii	"long long int\000"
 3194      206C6F6E 
 3194      6720696E 
 3194      7400
 3195              	.LASF40:
 3196 0269 646D635F 		.ascii	"dmc_packet_user_confirm\000"
 3196      7061636B 
 3196      65745F75 
 3196      7365725F 
 3196      636F6E66 
 3197              	.LASF51:
 3198 0281 646D635F 		.ascii	"dmc_packet_unmarshal_out_of_order\000"
 3198      7061636B 
 3198      65745F75 
 3198      6E6D6172 
 3198      7368616C 
 3199              	.LASF74:
 3200 02a3 73656E64 		.ascii	"send_container_volume_measured\000"
 3200      5F636F6E 
 3200      7461696E 
 3200      65725F76 
 3200      6F6C756D 
 3201              	.LASF36:
 3202 02c2 72656173 		.ascii	"reason\000"
 3202      6F6E00
 3203              	.LASF11:
 3204 02c9 6C6F6E67 		.ascii	"long int\000"
 3204      20696E74 
 3204      00
 3205              	.LASF84:
 3206 02d2 62797465 		.ascii	"byte_to_binary\000"
 3206      5F746F5F 
 3206      62696E61 
 3206      727900
 3207              	.LASF79:
 3208 02e1 72616973 		.ascii	"raise_flag_handler\000"
 3208      655F666C 
 3208      61675F68 
 3208      616E646C 
 3208      657200
 3209              	.LASF53:
 3210 02f4 6F666673 		.ascii	"offset\000"
 3210      657400
 3211              	.LASF39:
 3212 02fb 766F6C75 		.ascii	"volume\000"
 3212      6D6500
 3213              	.LASF68:
 3214 0302 4953525F 		.ascii	"ISR_uart_rpi_rx_handler\000"
 3214      75617274 
 3214      5F727069 
 3214      5F72785F 
ARM GAS  C:\Users\Runeg\AppData\Local\Temp\ccusGBrN.s 			page 70


 3214      68616E64 
 3215              	.LASF5:
 3216 031a 5F5F7569 		.ascii	"__uint8_t\000"
 3216      6E74385F 
 3216      7400
 3217              	.LASF60:
 3218 0324 646D635F 		.ascii	"dmc_packet_marshal_machine_ok\000"
 3218      7061636B 
 3218      65745F6D 
 3218      61727368 
 3218      616C5F6D 
 3219              	.LASF62:
 3220 0342 646D635F 		.ascii	"dmc_packet_marshal_fluid_pour_requested\000"
 3220      7061636B 
 3220      65745F6D 
 3220      61727368 
 3220      616C5F66 
 3221              	.LASF69:
 3222 036a 73656E64 		.ascii	"send_out_of_order_message\000"
 3222      5F6F7574 
 3222      5F6F665F 
 3222      6F726465 
 3222      725F6D65 
 3223              	.LASF32:
 3224 0384 444D435F 		.ascii	"DMC_PACKET_OUT_OF_ORDER_REASON_FLUID_CONTAINER_2_RE"
 3224      5041434B 
 3224      45545F4F 
 3224      55545F4F 
 3224      465F4F52 
 3225 03b7 4D4F5645 		.ascii	"MOVED\000"
 3225      4400
 3226              	.LASF55:
 3227 03bd 646D635F 		.ascii	"dmc_packet_unmarshal_container_volume_measured\000"
 3227      7061636B 
 3227      65745F75 
 3227      6E6D6172 
 3227      7368616C 
 3228              	.LASF2:
 3229 03ec 6C6F6E67 		.ascii	"long double\000"
 3229      20646F75 
 3229      626C6500 
 3230              	.LASF83:
 3231 03f8 646D635F 		.ascii	"dmc_packet_free\000"
 3231      7061636B 
 3231      65745F66 
 3231      72656500 
 3232              	.LASF37:
 3233 0408 646D635F 		.ascii	"dmc_packet_container_volume_measured\000"
 3233      7061636B 
 3233      65745F63 
 3233      6F6E7461 
 3233      696E6572 
 3234              	.LASF6:
 3235 042d 756E7369 		.ascii	"unsigned char\000"
 3235      676E6564 
 3235      20636861 
 3235      7200
ARM GAS  C:\Users\Runeg\AppData\Local\Temp\ccusGBrN.s 			page 71


 3236              	.LASF3:
 3237 043b 7369676E 		.ascii	"signed char\000"
 3237      65642063 
 3237      68617200 
 3238              	.LASF13:
 3239 0447 6C6F6E67 		.ascii	"long long unsigned int\000"
 3239      206C6F6E 
 3239      6720756E 
 3239      7369676E 
 3239      65642069 
 3240              	.LASF17:
 3241 045e 444D435F 		.ascii	"DMC_PACKET_CONTAINER_VOLUME_MEASURED\000"
 3241      5041434B 
 3241      45545F43 
 3241      4F4E5441 
 3241      494E4552 
 3242              	.LASF22:
 3243 0483 74797065 		.ascii	"type\000"
 3243      00
 3244              	.LASF24:
 3245 0488 64617461 		.ascii	"data_len\000"
 3245      5F6C656E 
 3245      00
 3246              	.LASF0:
 3247 0491 756E7369 		.ascii	"unsigned int\000"
 3247      676E6564 
 3247      20696E74 
 3247      00
 3248              	.LASF21:
 3249 049e 444D435F 		.ascii	"DMC_PACKET_MACHINE_OK\000"
 3249      5041434B 
 3249      45545F4D 
 3249      41434849 
 3249      4E455F4F 
 3250              	.LASF82:
 3251 04b4 433A5C6B 		.ascii	"C:\\kode til PRJ3\\semesterproject3\\source\\psoc\\"
 3251      6F646520 
 3251      74696C20 
 3251      50524A33 
 3251      5C73656D 
 3252 04e2 646D632D 		.ascii	"dmc-psoc\\dmc-psoc.cydsn\000"
 3252      70736F63 
 3252      5C646D63 
 3252      2D70736F 
 3252      632E6379 
 3253              	.LASF54:
 3254 04fa 646D635F 		.ascii	"dmc_packet_marshal_out_of_order\000"
 3254      7061636B 
 3254      65745F6D 
 3254      61727368 
 3254      616C5F6F 
 3255              	.LASF33:
 3256 051a 444D435F 		.ascii	"DMC_PACKET_OUT_OF_ORDER_REASON_FLUID_CONTAINER_3_RE"
 3256      5041434B 
 3256      45545F4F 
 3256      55545F4F 
 3256      465F4F52 
ARM GAS  C:\Users\Runeg\AppData\Local\Temp\ccusGBrN.s 			page 72


 3257 054d 4D4F5645 		.ascii	"MOVED\000"
 3257      4400
 3258              	.LASF59:
 3259 0553 646D635F 		.ascii	"dmc_packet_unmarshal_machine_ok\000"
 3259      7061636B 
 3259      65745F75 
 3259      6E6D6172 
 3259      7368616C 
 3260              	.LASF78:
 3261 0573 64697363 		.ascii	"discard_packet\000"
 3261      6172645F 
 3261      7061636B 
 3261      657400
 3262              	.LASF15:
 3263 0582 63686172 		.ascii	"char\000"
 3263      00
 3264              	.LASF19:
 3265 0587 444D435F 		.ascii	"DMC_PACKET_FLUID_POUR_REQUESTED\000"
 3265      5041434B 
 3265      45545F46 
 3265      4C554944 
 3265      5F504F55 
 3266              	.LASF27:
 3267 05a7 696E7433 		.ascii	"int32_t\000"
 3267      325F7400 
 3268              	.LASF16:
 3269 05af 444D435F 		.ascii	"DMC_PACKET_OUT_OF_ORDER\000"
 3269      5041434B 
 3269      45545F4F 
 3269      55545F4F 
 3269      465F4F52 
 3270              	.LASF26:
 3271 05c7 696E7431 		.ascii	"int16_t\000"
 3271      365F7400 
 3272              	.LASF41:
 3273 05cf 646D635F 		.ascii	"dmc_packet_machine_ok\000"
 3273      7061636B 
 3273      65745F6D 
 3273      61636869 
 3273      6E655F6F 
 3274              	.LASF9:
 3275 05e5 73686F72 		.ascii	"short unsigned int\000"
 3275      7420756E 
 3275      7369676E 
 3275      65642069 
 3275      6E7400
 3276              	.LASF61:
 3277 05f8 646D635F 		.ascii	"dmc_packet_unmarshal_fluid_pour_requested\000"
 3277      7061636B 
 3277      65745F75 
 3277      6E6D6172 
 3277      7368616C 
 3278              	.LASF63:
 3279 0622 75617274 		.ascii	"uart_send_packet\000"
 3279      5F73656E 
 3279      645F7061 
 3279      636B6574 
ARM GAS  C:\Users\Runeg\AppData\Local\Temp\ccusGBrN.s 			page 73


 3279      00
 3280              	.LASF12:
 3281 0633 6C6F6E67 		.ascii	"long unsigned int\000"
 3281      20756E73 
 3281      69676E65 
 3281      6420696E 
 3281      7400
 3282              	.LASF58:
 3283 0645 646D635F 		.ascii	"dmc_packet_marshal_user_confirm\000"
 3283      7061636B 
 3283      65745F6D 
 3283      61727368 
 3283      616C5F75 
 3284              	.LASF18:
 3285 0665 444D435F 		.ascii	"DMC_PACKET_USER_CONFIRM\000"
 3285      5041434B 
 3285      45545F55 
 3285      5345525F 
 3285      434F4E46 
 3286              	.LASF45:
 3287 067d 646F7562 		.ascii	"double\000"
 3287      6C6500
 3288              	.LASF81:
 3289 0684 62726F2E 		.ascii	"bro.c\000"
 3289      6300
 3290              	.LASF76:
 3291 068a 49544D5F 		.ascii	"ITM_RxBuffer\000"
 3291      52784275 
 3291      66666572 
 3291      00
 3292              	.LASF10:
 3293 0697 5F5F696E 		.ascii	"__int32_t\000"
 3293      7433325F 
 3293      7400
 3294              	.LASF48:
 3295 06a1 646D635F 		.ascii	"dmc_packet_init\000"
 3295      7061636B 
 3295      65745F69 
 3295      6E697400 
 3296              	.LASF7:
 3297 06b1 5F5F696E 		.ascii	"__int16_t\000"
 3297      7431365F 
 3297      7400
 3298              	.LASF65:
 3299 06bb 72616973 		.ascii	"raise_flag\000"
 3299      655F666C 
 3299      616700
 3300              	.LASF85:
 3301 06c6 696E6974 		.ascii	"init_uart_rpi_simple\000"
 3301      5F756172 
 3301      745F7270 
 3301      695F7369 
 3301      6D706C65 
 3302              	.LASF42:
 3303 06db 646D635F 		.ascii	"dmc_packet_fluid_pour_requested\000"
 3303      7061636B 
 3303      65745F66 
ARM GAS  C:\Users\Runeg\AppData\Local\Temp\ccusGBrN.s 			page 74


 3303      6C756964 
 3303      5F706F75 
 3304              	.LASF50:
 3305 06fb 646D635F 		.ascii	"dmc_packet_append_byte\000"
 3305      7061636B 
 3305      65745F61 
 3305      7070656E 
 3305      645F6279 
 3306              	.LASF43:
 3307 0712 616D6F75 		.ascii	"amount\000"
 3307      6E7400
 3308              	.LASF71:
 3309 0719 62617365 		.ascii	"base\000"
 3309      00
 3310              	.LASF46:
 3311 071e 64617461 		.ascii	"data_bytes\000"
 3311      5F627974 
 3311      657300
 3312              	.LASF52:
 3313 0729 66726F6D 		.ascii	"from\000"
 3313      00
 3314              	.LASF56:
 3315 072e 646D635F 		.ascii	"dmc_packet_marshal_container_volume_measured\000"
 3315      7061636B 
 3315      65745F6D 
 3315      61727368 
 3315      616C5F63 
 3316              		.ident	"GCC: (GNU Tools for ARM Embedded Processors) 5.4.1 20160609 (release) [ARM/embedded-5-bran
