ARM GAS  C:\Users\Runeg\AppData\Local\Temp\ccfHeXfw.s 			page 1


   1              		.syntax unified
   2              		.cpu cortex-m3
   3              		.fpu softvfp
   4              		.eabi_attribute 20, 1
   5              		.eabi_attribute 21, 1
   6              		.eabi_attribute 23, 3
   7              		.eabi_attribute 24, 1
   8              		.eabi_attribute 25, 1
   9              		.eabi_attribute 26, 1
  10              		.eabi_attribute 30, 1
  11              		.eabi_attribute 34, 1
  12              		.eabi_attribute 18, 4
  13              		.thumb
  14              		.syntax unified
  15              		.file	"bro.c"
  16              		.text
  17              	.Ltext0:
  18              		.cfi_sections	.debug_frame
  19              		.section	.text.dmc_packet_complete,"ax",%progbits
  20              		.align	2
  21              		.thumb
  22              		.thumb_func
  23              		.type	dmc_packet_complete, %function
  24              	dmc_packet_complete:
  25              	.LFB2:
  26              		.file 1 "..\\..\\..\\common\\hw\\include\\base_packet.h"
   1:..\..\..\common\hw\include/base_packet.h **** #ifndef DMC_BASE_PACKET_H
   2:..\..\..\common\hw\include/base_packet.h **** #define DMC_BASE_PACKET_H
   3:..\..\..\common\hw\include/base_packet.h **** 
   4:..\..\..\common\hw\include/base_packet.h **** #ifdef MODULE // Include kernel space memory allocation with kmalloc
   5:..\..\..\common\hw\include/base_packet.h **** #include <linux/slab.h>
   6:..\..\..\common\hw\include/base_packet.h **** #else
   7:..\..\..\common\hw\include/base_packet.h **** #include <stdlib.h>
   8:..\..\..\common\hw\include/base_packet.h **** #endif
   9:..\..\..\common\hw\include/base_packet.h **** 
  10:..\..\..\common\hw\include/base_packet.h **** /**
  11:..\..\..\common\hw\include/base_packet.h ****  * @brief Type of packet. (MAYBE: MSB is required to be 1 as this signals a
  12:..\..\..\common\hw\include/base_packet.h ****  * header byte)
  13:..\..\..\common\hw\include/base_packet.h ****  */
  14:..\..\..\common\hw\include/base_packet.h **** enum dmc_packet_type
  15:..\..\..\common\hw\include/base_packet.h **** {
  16:..\..\..\common\hw\include/base_packet.h ****   DMC_PACKET_OUT_OF_ORDER              = 0b10000000,
  17:..\..\..\common\hw\include/base_packet.h ****   DMC_PACKET_CONTAINER_WEIGHT_MEASURED = 0b10010010,
  18:..\..\..\common\hw\include/base_packet.h ****   DMC_PACKET_USER_CONFIRM              = 0b10100000,
  19:..\..\..\common\hw\include/base_packet.h ****   DMC_PACKET_FLUID_POUR_REQUESTED      = 0b10110010,
  20:..\..\..\common\hw\include/base_packet.h **** };
  21:..\..\..\common\hw\include/base_packet.h **** 
  22:..\..\..\common\hw\include/base_packet.h **** struct dmc_packet
  23:..\..\..\common\hw\include/base_packet.h **** {
  24:..\..\..\common\hw\include/base_packet.h ****   /**
  25:..\..\..\common\hw\include/base_packet.h ****    * @brief Type of packet. This is the first byte received.
  26:..\..\..\common\hw\include/base_packet.h ****    */
  27:..\..\..\common\hw\include/base_packet.h ****   enum dmc_packet_type type;
  28:..\..\..\common\hw\include/base_packet.h **** 
  29:..\..\..\common\hw\include/base_packet.h ****   /**
  30:..\..\..\common\hw\include/base_packet.h ****    * @brief Data payload of packet
  31:..\..\..\common\hw\include/base_packet.h ****    */
ARM GAS  C:\Users\Runeg\AppData\Local\Temp\ccfHeXfw.s 			page 2


  32:..\..\..\common\hw\include/base_packet.h ****   char *data;
  33:..\..\..\common\hw\include/base_packet.h **** 
  34:..\..\..\common\hw\include/base_packet.h ****   /**
  35:..\..\..\common\hw\include/base_packet.h ****    * @brief Length of payload in bytes.
  36:..\..\..\common\hw\include/base_packet.h ****    */
  37:..\..\..\common\hw\include/base_packet.h ****   size_t data_len;
  38:..\..\..\common\hw\include/base_packet.h **** };
  39:..\..\..\common\hw\include/base_packet.h **** 
  40:..\..\..\common\hw\include/base_packet.h **** /**
  41:..\..\..\common\hw\include/base_packet.h ****  * @brief Allocates and initializes a packet with a type. Primarily
  42:..\..\..\common\hw\include/base_packet.h ****  * used when starting to read data from a given source.
  43:..\..\..\common\hw\include/base_packet.h ****  */
  44:..\..\..\common\hw\include/base_packet.h **** static struct dmc_packet *dmc_packet_init(enum dmc_packet_type type)
  45:..\..\..\common\hw\include/base_packet.h **** {
  46:..\..\..\common\hw\include/base_packet.h ****   unsigned char data_bytes = type & 0b00001111;
  47:..\..\..\common\hw\include/base_packet.h **** 
  48:..\..\..\common\hw\include/base_packet.h ****   // Allocate and initialize packet with default values
  49:..\..\..\common\hw\include/base_packet.h ****   struct dmc_packet *packet;
  50:..\..\..\common\hw\include/base_packet.h **** #ifdef MODULE // Differeniate between kernel and use space allocations
  51:..\..\..\common\hw\include/base_packet.h ****   packet = (struct dmc_packet *)kmalloc(sizeof(struct dmc_packet), GFP_KERNEL);
  52:..\..\..\common\hw\include/base_packet.h **** #else
  53:..\..\..\common\hw\include/base_packet.h ****   packet = (struct dmc_packet *)malloc(sizeof(struct dmc_packet));
  54:..\..\..\common\hw\include/base_packet.h **** #endif
  55:..\..\..\common\hw\include/base_packet.h ****   packet->type     = type;
  56:..\..\..\common\hw\include/base_packet.h ****   packet->data_len = 0;
  57:..\..\..\common\hw\include/base_packet.h ****   packet->data     = NULL;
  58:..\..\..\common\hw\include/base_packet.h **** 
  59:..\..\..\common\hw\include/base_packet.h ****   // Allocate packet data if needed
  60:..\..\..\common\hw\include/base_packet.h ****   if (data_bytes > 0)
  61:..\..\..\common\hw\include/base_packet.h ****   {
  62:..\..\..\common\hw\include/base_packet.h **** #ifdef MODULE // Differeniate between kernel and use space allocations
  63:..\..\..\common\hw\include/base_packet.h ****     packet->data = (char *)kmalloc(sizeof(char) * data_bytes, GFP_KERNEL);
  64:..\..\..\common\hw\include/base_packet.h **** #else
  65:..\..\..\common\hw\include/base_packet.h ****     packet->data = (char *)malloc(sizeof(char) * data_bytes);
  66:..\..\..\common\hw\include/base_packet.h **** #endif
  67:..\..\..\common\hw\include/base_packet.h ****   }
  68:..\..\..\common\hw\include/base_packet.h **** 
  69:..\..\..\common\hw\include/base_packet.h ****   return packet;
  70:..\..\..\common\hw\include/base_packet.h **** }
  71:..\..\..\common\hw\include/base_packet.h **** 
  72:..\..\..\common\hw\include/base_packet.h **** /**
  73:..\..\..\common\hw\include/base_packet.h ****  * @brief De-allocate packet and its data
  74:..\..\..\common\hw\include/base_packet.h ****  */
  75:..\..\..\common\hw\include/base_packet.h **** static void dmc_packet_free(struct dmc_packet *packet)
  76:..\..\..\common\hw\include/base_packet.h **** {
  77:..\..\..\common\hw\include/base_packet.h **** #ifdef MODULE // Differeniate between kernel and use space de-allocations
  78:..\..\..\common\hw\include/base_packet.h ****   kfree((void *)packet->data);
  79:..\..\..\common\hw\include/base_packet.h ****   kfree((void *)packet);
  80:..\..\..\common\hw\include/base_packet.h **** #else
  81:..\..\..\common\hw\include/base_packet.h ****   free((void *)packet->data);
  82:..\..\..\common\hw\include/base_packet.h ****   free((void *)packet);
  83:..\..\..\common\hw\include/base_packet.h **** #endif
  84:..\..\..\common\hw\include/base_packet.h **** }
  85:..\..\..\common\hw\include/base_packet.h **** 
  86:..\..\..\common\hw\include/base_packet.h **** /**
  87:..\..\..\common\hw\include/base_packet.h ****  * @brief Checks if a packet is fully complete, in the sense that all intended
  88:..\..\..\common\hw\include/base_packet.h ****  * data is received
ARM GAS  C:\Users\Runeg\AppData\Local\Temp\ccfHeXfw.s 			page 3


  89:..\..\..\common\hw\include/base_packet.h ****  * @returns True, if packet is complete.
  90:..\..\..\common\hw\include/base_packet.h ****  */
  91:..\..\..\common\hw\include/base_packet.h **** static unsigned char dmc_packet_complete(struct dmc_packet *packet)
  92:..\..\..\common\hw\include/base_packet.h **** {
  27              		.loc 1 92 0
  28              		.cfi_startproc
  29              		@ args = 0, pretend = 0, frame = 0
  30              		@ frame_needed = 0, uses_anonymous_args = 0
  31              		@ link register save eliminated.
  32              	.LVL0:
  93:..\..\..\common\hw\include/base_packet.h ****   unsigned char data_bytes = packet->type & 0b00001111;
  33              		.loc 1 93 0
  34 0000 0378     		ldrb	r3, [r0]	@ zero_extendqisi2
  35 0002 03F00F03 		and	r3, r3, #15
  36              	.LVL1:
  94:..\..\..\common\hw\include/base_packet.h ****   return data_bytes == packet->data_len;
  37              		.loc 1 94 0
  38 0006 8068     		ldr	r0, [r0, #8]
  39              	.LVL2:
  95:..\..\..\common\hw\include/base_packet.h **** }
  40              		.loc 1 95 0
  41 0008 8342     		cmp	r3, r0
  42 000a 14BF     		ite	ne
  43 000c 0020     		movne	r0, #0
  44 000e 0120     		moveq	r0, #1
  45 0010 7047     		bx	lr
  46              		.cfi_endproc
  47              	.LFE2:
  48              		.size	dmc_packet_complete, .-dmc_packet_complete
  49 0012 00BF     		.section	.text.dmc_packet_append_byte,"ax",%progbits
  50              		.align	2
  51              		.thumb
  52              		.thumb_func
  53              		.type	dmc_packet_append_byte, %function
  54              	dmc_packet_append_byte:
  55              	.LFB3:
  96:..\..\..\common\hw\include/base_packet.h **** 
  97:..\..\..\common\hw\include/base_packet.h **** /**
  98:..\..\..\common\hw\include/base_packet.h ****  * @brief Appends data byte to packet payload.
  99:..\..\..\common\hw\include/base_packet.h ****  * @returns 0 if successful, 1 if payload is already at capacity.
 100:..\..\..\common\hw\include/base_packet.h ****  */
 101:..\..\..\common\hw\include/base_packet.h **** static unsigned char dmc_packet_append_byte(struct dmc_packet *packet,
 102:..\..\..\common\hw\include/base_packet.h ****                                             unsigned char      data)
 103:..\..\..\common\hw\include/base_packet.h **** {
  56              		.loc 1 103 0
  57              		.cfi_startproc
  58              		@ args = 0, pretend = 0, frame = 0
  59              		@ frame_needed = 0, uses_anonymous_args = 0
  60              		@ link register save eliminated.
  61              	.LVL3:
 104:..\..\..\common\hw\include/base_packet.h ****   unsigned char data_bytes = packet->type & 0b00001111;
  62              		.loc 1 104 0
  63 0000 0378     		ldrb	r3, [r0]	@ zero_extendqisi2
  64 0002 03F00F03 		and	r3, r3, #15
  65              	.LVL4:
 105:..\..\..\common\hw\include/base_packet.h ****   if (data_bytes == packet->data_len)
  66              		.loc 1 105 0
ARM GAS  C:\Users\Runeg\AppData\Local\Temp\ccfHeXfw.s 			page 4


  67 0006 8268     		ldr	r2, [r0, #8]
  68 0008 9342     		cmp	r3, r2
  69 000a 06D0     		beq	.L4
 103:..\..\..\common\hw\include/base_packet.h ****   unsigned char data_bytes = packet->type & 0b00001111;
  70              		.loc 1 103 0
  71 000c 10B4     		push	{r4}
  72              		.cfi_def_cfa_offset 4
  73              		.cfi_offset 4, -4
 106:..\..\..\common\hw\include/base_packet.h ****   {
 107:..\..\..\common\hw\include/base_packet.h ****     return 1;
 108:..\..\..\common\hw\include/base_packet.h ****   }
 109:..\..\..\common\hw\include/base_packet.h **** 
 110:..\..\..\common\hw\include/base_packet.h ****   packet->data[packet->data_len++] = data;
  74              		.loc 1 110 0
  75 000e 4368     		ldr	r3, [r0, #4]
  76              	.LVL5:
  77 0010 541C     		adds	r4, r2, #1
  78 0012 8460     		str	r4, [r0, #8]
  79 0014 9954     		strb	r1, [r3, r2]
  80              	.LVL6:
 111:..\..\..\common\hw\include/base_packet.h ****   return 0;
  81              		.loc 1 111 0
  82 0016 0020     		movs	r0, #0
  83              	.LVL7:
  84 0018 01E0     		b	.L3
  85              	.LVL8:
  86              	.L4:
  87              		.cfi_def_cfa_offset 0
  88              		.cfi_restore 4
 107:..\..\..\common\hw\include/base_packet.h ****   }
  89              		.loc 1 107 0
  90 001a 0120     		movs	r0, #1
  91              	.LVL9:
  92 001c 7047     		bx	lr
  93              	.LVL10:
  94              	.L3:
  95              		.cfi_def_cfa_offset 4
  96              		.cfi_offset 4, -4
 112:..\..\..\common\hw\include/base_packet.h **** }
  97              		.loc 1 112 0
  98 001e 10BC     		pop	{r4}
  99              		.cfi_restore 4
 100              		.cfi_def_cfa_offset 0
 101 0020 7047     		bx	lr
 102              		.cfi_endproc
 103              	.LFE3:
 104              		.size	dmc_packet_append_byte, .-dmc_packet_append_byte
 105 0022 00BF     		.section	.text.dmc_packet_init,"ax",%progbits
 106              		.align	2
 107              		.thumb
 108              		.thumb_func
 109              		.type	dmc_packet_init, %function
 110              	dmc_packet_init:
 111              	.LFB0:
  45:..\..\..\common\hw\include/base_packet.h ****   unsigned char data_bytes = type & 0b00001111;
 112              		.loc 1 45 0
 113              		.cfi_startproc
ARM GAS  C:\Users\Runeg\AppData\Local\Temp\ccfHeXfw.s 			page 5


 114              		@ args = 0, pretend = 0, frame = 0
 115              		@ frame_needed = 0, uses_anonymous_args = 0
 116              	.LVL11:
 117 0000 70B5     		push	{r4, r5, r6, lr}
 118              		.cfi_def_cfa_offset 16
 119              		.cfi_offset 4, -16
 120              		.cfi_offset 5, -12
 121              		.cfi_offset 6, -8
 122              		.cfi_offset 14, -4
 123 0002 0546     		mov	r5, r0
  46:..\..\..\common\hw\include/base_packet.h **** 
 124              		.loc 1 46 0
 125 0004 00F00F06 		and	r6, r0, #15
 126              	.LVL12:
  53:..\..\..\common\hw\include/base_packet.h **** #endif
 127              		.loc 1 53 0
 128 0008 0C20     		movs	r0, #12
 129              	.LVL13:
 130 000a FFF7FEFF 		bl	malloc
 131              	.LVL14:
 132 000e 0446     		mov	r4, r0
 133              	.LVL15:
  55:..\..\..\common\hw\include/base_packet.h ****   packet->data_len = 0;
 134              		.loc 1 55 0
 135 0010 0570     		strb	r5, [r0]
  56:..\..\..\common\hw\include/base_packet.h ****   packet->data     = NULL;
 136              		.loc 1 56 0
 137 0012 0023     		movs	r3, #0
 138 0014 8360     		str	r3, [r0, #8]
  57:..\..\..\common\hw\include/base_packet.h **** 
 139              		.loc 1 57 0
 140 0016 4360     		str	r3, [r0, #4]
  60:..\..\..\common\hw\include/base_packet.h ****   {
 141              		.loc 1 60 0
 142 0018 1EB1     		cbz	r6, .L8
  65:..\..\..\common\hw\include/base_packet.h **** #endif
 143              		.loc 1 65 0
 144 001a 3046     		mov	r0, r6
 145              	.LVL16:
 146 001c FFF7FEFF 		bl	malloc
 147              	.LVL17:
 148 0020 6060     		str	r0, [r4, #4]
 149              	.L8:
  70:..\..\..\common\hw\include/base_packet.h **** 
 150              		.loc 1 70 0
 151 0022 2046     		mov	r0, r4
 152 0024 70BD     		pop	{r4, r5, r6, pc}
 153              		.cfi_endproc
 154              	.LFE0:
 155              		.size	dmc_packet_init, .-dmc_packet_init
 156 0026 00BF     		.section	.text.byte_to_binary,"ax",%progbits
 157              		.align	2
 158              		.global	byte_to_binary
 159              		.thumb
 160              		.thumb_func
 161              		.type	byte_to_binary, %function
 162              	byte_to_binary:
ARM GAS  C:\Users\Runeg\AppData\Local\Temp\ccfHeXfw.s 			page 6


 163              	.LFB76:
 164              		.file 2 "bro.c"
   1:bro.c         **** /*
   2:bro.c         ****  *
   3:bro.c         ****  * Copyright YOUR COMPANY, THE YEAR
   4:bro.c         ****  * All Rights Reserved
   5:bro.c         ****  * UNPUBLISHED, LICENSED SOFTWARE.
   6:bro.c         ****  *
   7:bro.c         ****  * CONFIDENTIAL AND PROPRIETARY INFORMATION
   8:bro.c         ****  * WHICH IS THE PROPERTY OF your company.
   9:bro.c         ****  *
  10:bro.c         ****  * ========================================
  11:bro.c         **** */
  12:bro.c         **** 
  13:bro.c         **** #include "job_queue.h"
  14:bro.c         **** #include "project.h"
  15:bro.c         **** #include "uart_rpi.h"
  16:bro.c         **** #include "stdio.h"
  17:bro.c         **** 
  18:bro.c         **** const char *byte_to_binary(uint8_t x)
  19:bro.c         **** {
 165              		.loc 2 19 0
 166              		.cfi_startproc
 167              		@ args = 0, pretend = 0, frame = 0
 168              		@ frame_needed = 0, uses_anonymous_args = 0
 169              	.LVL18:
 170 0000 F8B5     		push	{r3, r4, r5, r6, r7, lr}
 171              		.cfi_def_cfa_offset 24
 172              		.cfi_offset 3, -24
 173              		.cfi_offset 4, -20
 174              		.cfi_offset 5, -16
 175              		.cfi_offset 6, -12
 176              		.cfi_offset 7, -8
 177              		.cfi_offset 14, -4
 178 0002 0746     		mov	r7, r0
  20:bro.c         ****     static char b[9];
  21:bro.c         ****     b[0] = '\0';
 179              		.loc 2 21 0
 180 0004 0022     		movs	r2, #0
 181 0006 0A4B     		ldr	r3, .L16
 182 0008 1A70     		strb	r2, [r3]
 183              	.LVL19:
  22:bro.c         **** 
  23:bro.c         ****     int z;
  24:bro.c         ****     for (z = 128; z > 0; z >>= 1)
 184              		.loc 2 24 0
 185 000a 8024     		movs	r4, #128
 186 000c 0CE0     		b	.L11
 187              	.LVL20:
 188              	.L13:
  25:bro.c         ****     {
  26:bro.c         ****         strcat(b, ((x & z) == z) ? "1" : "0");
 189              		.loc 2 26 0
 190 000e 34EA0703 		bics	r3, r4, r7
 191 0012 01D1     		bne	.L14
 192 0014 074E     		ldr	r6, .L16+4
 193 0016 00E0     		b	.L12
ARM GAS  C:\Users\Runeg\AppData\Local\Temp\ccfHeXfw.s 			page 7


 194              	.L14:
 195 0018 074E     		ldr	r6, .L16+8
 196              	.L12:
 197              		.loc 2 26 0 is_stmt 0 discriminator 4
 198 001a 054D     		ldr	r5, .L16
 199 001c 2846     		mov	r0, r5
 200 001e FFF7FEFF 		bl	strlen
 201              	.LVL21:
 202 0022 3388     		ldrh	r3, [r6]	@ unaligned
 203 0024 2B52     		strh	r3, [r5, r0]	@ unaligned
  24:bro.c         ****     {
 204              		.loc 2 24 0 is_stmt 1 discriminator 4
 205 0026 6410     		asrs	r4, r4, #1
 206              	.LVL22:
 207              	.L11:
  24:bro.c         ****     {
 208              		.loc 2 24 0 is_stmt 0 discriminator 2
 209 0028 002C     		cmp	r4, #0
 210 002a F0DC     		bgt	.L13
  27:bro.c         ****     }
  28:bro.c         **** 
  29:bro.c         ****     return b;
  30:bro.c         **** }
 211              		.loc 2 30 0 is_stmt 1
 212 002c 0048     		ldr	r0, .L16
 213 002e F8BD     		pop	{r3, r4, r5, r6, r7, pc}
 214              	.LVL23:
 215              	.L17:
 216              		.align	2
 217              	.L16:
 218 0030 00000000 		.word	.LANCHOR0
 219 0034 00000000 		.word	.LC0
 220 0038 04000000 		.word	.LC1
 221              		.cfi_endproc
 222              	.LFE76:
 223              		.size	byte_to_binary, .-byte_to_binary
 224              		.section	.text.init_uart_rpi,"ax",%progbits
 225              		.align	2
 226              		.global	init_uart_rpi
 227              		.thumb
 228              		.thumb_func
 229              		.type	init_uart_rpi, %function
 230              	init_uart_rpi:
 231              	.LFB77:
  31:bro.c         **** 
  32:bro.c         **** CY_ISR_PROTO(ISR_uart_rpi_rx_handler);
  33:bro.c         **** 
  34:bro.c         **** 
  35:bro.c         **** struct dmc_packet* current_packet;
  36:bro.c         **** int discard_packet = 0;
  37:bro.c         **** 
  38:bro.c         **** 
  39:bro.c         **** int (*raise_flag_handler)(struct dmc_packet*);
  40:bro.c         **** 
  41:bro.c         **** 
  42:bro.c         **** void init_uart_rpi(int (*raise_flag)(struct dmc_packet*) )
  43:bro.c         **** {   
ARM GAS  C:\Users\Runeg\AppData\Local\Temp\ccfHeXfw.s 			page 8


 232              		.loc 2 43 0
 233              		.cfi_startproc
 234              		@ args = 0, pretend = 0, frame = 0
 235              		@ frame_needed = 0, uses_anonymous_args = 0
 236              	.LVL24:
 237 0000 08B5     		push	{r3, lr}
 238              		.cfi_def_cfa_offset 8
 239              		.cfi_offset 3, -8
 240              		.cfi_offset 14, -4
  44:bro.c         ****     
  45:bro.c         ****     raise_flag_handler = raise_flag;
 241              		.loc 2 45 0
 242 0002 044B     		ldr	r3, .L20
 243 0004 1860     		str	r0, [r3]
  46:bro.c         ****     
  47:bro.c         ****     isr_uart_rpi_rx_StartEx(ISR_uart_rpi_rx_handler);
 244              		.loc 2 47 0
 245 0006 0448     		ldr	r0, .L20+4
 246              	.LVL25:
 247 0008 FFF7FEFF 		bl	isr_uart_rpi_rx_StartEx
 248              	.LVL26:
  48:bro.c         ****     
  49:bro.c         ****     uart_rpi_Start();
 249              		.loc 2 49 0
 250 000c FFF7FEFF 		bl	uart_rpi_Start
 251              	.LVL27:
 252 0010 08BD     		pop	{r3, pc}
 253              	.L21:
 254 0012 00BF     		.align	2
 255              	.L20:
 256 0014 00000000 		.word	raise_flag_handler
 257 0018 00000000 		.word	ISR_uart_rpi_rx_handler
 258              		.cfi_endproc
 259              	.LFE77:
 260              		.size	init_uart_rpi, .-init_uart_rpi
 261              		.section	.text.init_uart_rpi_simple,"ax",%progbits
 262              		.align	2
 263              		.global	init_uart_rpi_simple
 264              		.thumb
 265              		.thumb_func
 266              		.type	init_uart_rpi_simple, %function
 267              	init_uart_rpi_simple:
 268              	.LFB78:
  50:bro.c         **** }
  51:bro.c         **** 
  52:bro.c         **** 
  53:bro.c         **** void init_uart_rpi_simple()
  54:bro.c         **** {
 269              		.loc 2 54 0
 270              		.cfi_startproc
 271              		@ args = 0, pretend = 0, frame = 0
 272              		@ frame_needed = 0, uses_anonymous_args = 0
 273 0000 08B5     		push	{r3, lr}
 274              		.cfi_def_cfa_offset 8
 275              		.cfi_offset 3, -8
 276              		.cfi_offset 14, -4
  55:bro.c         ****     isr_uart_rpi_rx_StartEx(ISR_uart_rpi_rx_handler);
ARM GAS  C:\Users\Runeg\AppData\Local\Temp\ccfHeXfw.s 			page 9


 277              		.loc 2 55 0
 278 0002 0348     		ldr	r0, .L24
 279 0004 FFF7FEFF 		bl	isr_uart_rpi_rx_StartEx
 280              	.LVL28:
  56:bro.c         ****     
  57:bro.c         ****     uart_rpi_Start();
 281              		.loc 2 57 0
 282 0008 FFF7FEFF 		bl	uart_rpi_Start
 283              	.LVL29:
 284 000c 08BD     		pop	{r3, pc}
 285              	.L25:
 286 000e 00BF     		.align	2
 287              	.L24:
 288 0010 00000000 		.word	ISR_uart_rpi_rx_handler
 289              		.cfi_endproc
 290              	.LFE78:
 291              		.size	init_uart_rpi_simple, .-init_uart_rpi_simple
 292              		.section	.text.handleByteReceived,"ax",%progbits
 293              		.align	2
 294              		.global	handleByteReceived
 295              		.thumb
 296              		.thumb_func
 297              		.type	handleByteReceived, %function
 298              	handleByteReceived:
 299              	.LFB79:
  58:bro.c         **** }
  59:bro.c         **** 
  60:bro.c         **** void handleByteReceived(uint8_t byteReceived)
  61:bro.c         **** {
 300              		.loc 2 61 0
 301              		.cfi_startproc
 302              		@ args = 0, pretend = 0, frame = 256
 303              		@ frame_needed = 0, uses_anonymous_args = 0
 304              	.LVL30:
 305 0000 30B5     		push	{r4, r5, lr}
 306              		.cfi_def_cfa_offset 12
 307              		.cfi_offset 4, -12
 308              		.cfi_offset 5, -8
 309              		.cfi_offset 14, -4
 310 0002 C1B0     		sub	sp, sp, #260
 311              		.cfi_def_cfa_offset 272
 312 0004 0446     		mov	r4, r0
  62:bro.c         ****     char buf[255];
  63:bro.c         ****     snprintf(buf, sizeof(buf), "Calling handleByteRecived. byte = %s\r\n", byte_to_binary(byteRecei
 313              		.loc 2 63 0
 314 0006 FFF7FEFF 		bl	byte_to_binary
 315              	.LVL31:
 316 000a 0346     		mov	r3, r0
 317 000c 1E4A     		ldr	r2, .L33
 318 000e FF21     		movs	r1, #255
 319 0010 6846     		mov	r0, sp
 320 0012 FFF7FEFF 		bl	snprintf
 321              	.LVL32:
  64:bro.c         ****     uart_pc_PutString(buf);
 322              		.loc 2 64 0
 323 0016 6846     		mov	r0, sp
 324 0018 FFF7FEFF 		bl	uart_pc_PutString
ARM GAS  C:\Users\Runeg\AppData\Local\Temp\ccfHeXfw.s 			page 10


 325              	.LVL33:
  65:bro.c         ****    //Put first byte through packet init
  66:bro.c         ****    if (current_packet == NULL)
 326              		.loc 2 66 0
 327 001c 1B4B     		ldr	r3, .L33+4
 328 001e 1868     		ldr	r0, [r3]
 329 0020 D0B9     		cbnz	r0, .L27
  67:bro.c         ****     {
  68:bro.c         ****         uart_pc_PutString("NULL packet found\r\n");
 330              		.loc 2 68 0
 331 0022 1B48     		ldr	r0, .L33+8
 332 0024 FFF7FEFF 		bl	uart_pc_PutString
 333              	.LVL34:
  69:bro.c         ****         //TO DO: Validate packet type is valid        
  70:bro.c         ****         current_packet = dmc_packet_init((enum dmc_packet_type)byteReceived);
 334              		.loc 2 70 0
 335 0028 2046     		mov	r0, r4
 336 002a FFF7FEFF 		bl	dmc_packet_init
 337              	.LVL35:
 338 002e 174C     		ldr	r4, .L33+4
 339 0030 2060     		str	r0, [r4]
  71:bro.c         ****         discard_packet = raise_flag_handler(current_packet);
 340              		.loc 2 71 0
 341 0032 184B     		ldr	r3, .L33+12
 342 0034 1B68     		ldr	r3, [r3]
 343 0036 9847     		blx	r3
 344              	.LVL36:
 345 0038 0546     		mov	r5, r0
 346 003a 174B     		ldr	r3, .L33+16
 347 003c D860     		str	r0, [r3, #12]
  72:bro.c         ****         if (!dmc_packet_complete(current_packet) || discard_packet)
 348              		.loc 2 72 0
 349 003e 2468     		ldr	r4, [r4]
 350 0040 2046     		mov	r0, r4
 351 0042 FFF7FEFF 		bl	dmc_packet_complete
 352              	.LVL37:
 353 0046 E0B1     		cbz	r0, .L26
 354              		.loc 2 72 0 is_stmt 0 discriminator 1
 355 0048 DDB9     		cbnz	r5, .L26
  73:bro.c         ****             return;
  74:bro.c         ****         
  75:bro.c         ****         job_enqueue_packet(current_packet);
 356              		.loc 2 75 0 is_stmt 1
 357 004a 2046     		mov	r0, r4
 358 004c FFF7FEFF 		bl	job_enqueue_packet
 359              	.LVL38:
  76:bro.c         ****         current_packet = NULL;
 360              		.loc 2 76 0
 361 0050 0022     		movs	r2, #0
 362 0052 0E4B     		ldr	r3, .L33+4
 363 0054 1A60     		str	r2, [r3]
  77:bro.c         ****         return;  
 364              		.loc 2 77 0
 365 0056 14E0     		b	.L26
 366              	.L27:
  78:bro.c         ****     }
  79:bro.c         ****    
ARM GAS  C:\Users\Runeg\AppData\Local\Temp\ccfHeXfw.s 			page 11


  80:bro.c         ****     //Append byterecived to current_packet
  81:bro.c         ****     dmc_packet_append_byte(current_packet, (unsigned char)byteReceived);
 367              		.loc 2 81 0
 368 0058 2146     		mov	r1, r4
 369 005a FFF7FEFF 		bl	dmc_packet_append_byte
 370              	.LVL39:
  82:bro.c         ****     
  83:bro.c         ****     //Push packet to job_queue if payload is complete
  84:bro.c         ****     if (dmc_packet_complete(current_packet))
 371              		.loc 2 84 0
 372 005e 0B4B     		ldr	r3, .L33+4
 373 0060 1868     		ldr	r0, [r3]
 374 0062 FFF7FEFF 		bl	dmc_packet_complete
 375              	.LVL40:
 376 0066 60B1     		cbz	r0, .L26
  85:bro.c         ****     {
  86:bro.c         ****         uart_pc_PutString("dmc packet complete\r\n");
 377              		.loc 2 86 0
 378 0068 0C48     		ldr	r0, .L33+20
 379 006a FFF7FEFF 		bl	uart_pc_PutString
 380              	.LVL41:
  87:bro.c         ****         if (!discard_packet)
 381              		.loc 2 87 0
 382 006e 0A4B     		ldr	r3, .L33+16
 383 0070 DB68     		ldr	r3, [r3, #12]
 384 0072 1BB9     		cbnz	r3, .L30
  88:bro.c         ****             job_enqueue_packet(current_packet);
 385              		.loc 2 88 0
 386 0074 054B     		ldr	r3, .L33+4
 387 0076 1868     		ldr	r0, [r3]
 388 0078 FFF7FEFF 		bl	job_enqueue_packet
 389              	.LVL42:
 390              	.L30:
  89:bro.c         ****         current_packet = NULL;
 391              		.loc 2 89 0
 392 007c 0022     		movs	r2, #0
 393 007e 034B     		ldr	r3, .L33+4
 394 0080 1A60     		str	r2, [r3]
 395              	.L26:
  90:bro.c         ****     }
  91:bro.c         **** }
 396              		.loc 2 91 0
 397 0082 41B0     		add	sp, sp, #260
 398              		.cfi_def_cfa_offset 12
 399              		@ sp needed
 400 0084 30BD     		pop	{r4, r5, pc}
 401              	.L34:
 402 0086 00BF     		.align	2
 403              	.L33:
 404 0088 08000000 		.word	.LC2
 405 008c 00000000 		.word	current_packet
 406 0090 30000000 		.word	.LC3
 407 0094 00000000 		.word	raise_flag_handler
 408 0098 00000000 		.word	.LANCHOR0
 409 009c 44000000 		.word	.LC4
 410              		.cfi_endproc
 411              	.LFE79:
ARM GAS  C:\Users\Runeg\AppData\Local\Temp\ccfHeXfw.s 			page 12


 412              		.size	handleByteReceived, .-handleByteReceived
 413              		.section	.text.ISR_uart_rpi_rx_handler,"ax",%progbits
 414              		.align	2
 415              		.global	ISR_uart_rpi_rx_handler
 416              		.thumb
 417              		.thumb_func
 418              		.type	ISR_uart_rpi_rx_handler, %function
 419              	ISR_uart_rpi_rx_handler:
 420              	.LFB80:
  92:bro.c         **** 
  93:bro.c         **** 
  94:bro.c         **** CY_ISR(ISR_uart_rpi_rx_handler)
  95:bro.c         **** {
 421              		.loc 2 95 0
 422              		.cfi_startproc
 423              		@ args = 0, pretend = 0, frame = 0
 424              		@ frame_needed = 0, uses_anonymous_args = 0
 425 0000 38B5     		push	{r3, r4, r5, lr}
 426              		.cfi_def_cfa_offset 16
 427              		.cfi_offset 3, -16
 428              		.cfi_offset 4, -12
 429              		.cfi_offset 5, -8
 430              		.cfi_offset 14, -4
  96:bro.c         ****     uint8_t bytesToRead = uart_rpi_GetRxBufferSize();
 431              		.loc 2 96 0
 432 0002 FFF7FEFF 		bl	uart_rpi_GetRxBufferSize
 433              	.LVL43:
 434 0006 0446     		mov	r4, r0
 435              	.LVL44:
  97:bro.c         ****     while (bytesToRead > 0)
 436              		.loc 2 97 0
 437 0008 09E0     		b	.L36
 438              	.L37:
 439              	.LBB2:
  98:bro.c         ****     {
  99:bro.c         ****         uint8_t byteReceived = uart_rpi_ReadRxData();
 440              		.loc 2 99 0
 441 000a FFF7FEFF 		bl	uart_rpi_ReadRxData
 442              	.LVL45:
 443 000e 0546     		mov	r5, r0
 444              	.LVL46:
 100:bro.c         ****         uart_pc_WriteTxData(byteReceived); // echo into PC for debugging - program sometime be bugg
 445              		.loc 2 100 0
 446 0010 FFF7FEFF 		bl	uart_pc_WriteTxData
 447              	.LVL47:
 101:bro.c         ****         
 102:bro.c         ****         handleByteReceived(byteReceived);
 448              		.loc 2 102 0
 449 0014 2846     		mov	r0, r5
 450 0016 FFF7FEFF 		bl	handleByteReceived
 451              	.LVL48:
 103:bro.c         ****         
 104:bro.c         ****         bytesToRead--;
 452              		.loc 2 104 0
 453 001a 013C     		subs	r4, r4, #1
 454              	.LVL49:
 455 001c E4B2     		uxtb	r4, r4
ARM GAS  C:\Users\Runeg\AppData\Local\Temp\ccfHeXfw.s 			page 13


 456              	.LVL50:
 457              	.L36:
 458              	.LBE2:
  97:bro.c         ****     {
 459              		.loc 2 97 0
 460 001e 002C     		cmp	r4, #0
 461 0020 F3D1     		bne	.L37
 105:bro.c         ****     }
 106:bro.c         **** }
 462              		.loc 2 106 0
 463 0022 38BD     		pop	{r3, r4, r5, pc}
 464              		.cfi_endproc
 465              	.LFE80:
 466              		.size	ISR_uart_rpi_rx_handler, .-ISR_uart_rpi_rx_handler
 467              		.comm	raise_flag_handler,4,4
 468              		.global	discard_packet
 469              		.comm	current_packet,4,4
 470              		.section	.rodata.str1.4,"aMS",%progbits,1
 471              		.align	2
 472              	.LC0:
 473 0000 3100     		.ascii	"1\000"
 474 0002 0000     		.space	2
 475              	.LC1:
 476 0004 3000     		.ascii	"0\000"
 477 0006 0000     		.space	2
 478              	.LC2:
 479 0008 43616C6C 		.ascii	"Calling handleByteRecived. byte = %s\015\012\000"
 479      696E6720 
 479      68616E64 
 479      6C654279 
 479      74655265 
 480 002f 00       		.space	1
 481              	.LC3:
 482 0030 4E554C4C 		.ascii	"NULL packet found\015\012\000"
 482      20706163 
 482      6B657420 
 482      666F756E 
 482      640D0A00 
 483              	.LC4:
 484 0044 646D6320 		.ascii	"dmc packet complete\015\012\000"
 484      7061636B 
 484      65742063 
 484      6F6D706C 
 484      6574650D 
 485              		.bss
 486              		.align	2
 487              		.set	.LANCHOR0,. + 0
 488              		.type	b.7591, %object
 489              		.size	b.7591, 9
 490              	b.7591:
 491 0000 00000000 		.space	9
 491      00000000 
 491      00
 492 0009 000000   		.space	3
 493              		.type	discard_packet, %object
 494              		.size	discard_packet, 4
 495              	discard_packet:
ARM GAS  C:\Users\Runeg\AppData\Local\Temp\ccfHeXfw.s 			page 14


 496 000c 00000000 		.space	4
 497              		.text
 498              	.Letext0:
 499              		.file 3 "c:\\program files (x86)\\cypress\\psoc creator\\4.4\\psoc creator\\import\\gnu\\arm\\5.4.
 500              		.file 4 "c:\\program files (x86)\\cypress\\psoc creator\\4.4\\psoc creator\\import\\gnu\\arm\\5.4.
 501              		.file 5 "c:\\program files (x86)\\cypress\\psoc creator\\4.4\\psoc creator\\import\\gnu\\arm\\5.4.
 502              		.file 6 "Generated_Source\\PSoC5/core_cm3.h"
 503              		.file 7 "c:\\program files (x86)\\cypress\\psoc creator\\4.4\\psoc creator\\import\\gnu\\arm\\5.4.
 504              		.file 8 "Generated_Source\\PSoC5/isr_uart_rpi_rx.h"
 505              		.file 9 "Generated_Source\\PSoC5/uart_rpi.h"
 506              		.file 10 "c:\\program files (x86)\\cypress\\psoc creator\\4.4\\psoc creator\\import\\gnu\\arm\\5.4
 507              		.file 11 "Generated_Source\\PSoC5/uart_pc.h"
 508              		.file 12 "job_queue.h"
 509              		.file 13 "<built-in>"