ARM GAS  C:\Users\Runeg\AppData\Local\Temp\ccCxA2E3.s 			page 1


   1              		.syntax unified
   2              		.cpu cortex-m3
   3              		.fpu softvfp
   4              		.eabi_attribute 20, 1
   5              		.eabi_attribute 21, 1
   6              		.eabi_attribute 23, 3
   7              		.eabi_attribute 24, 1
   8              		.eabi_attribute 25, 1
   9              		.eabi_attribute 26, 1
  10              		.eabi_attribute 30, 1
  11              		.eabi_attribute 34, 1
  12              		.eabi_attribute 18, 4
  13              		.thumb
  14              		.syntax unified
  15              		.file	"cyfitter_cfg.c"
  16              		.text
  17              	.Ltext0:
  18              		.cfi_sections	.debug_frame
  19              		.section	.text.CyClockStartupError,"ax",%progbits
  20              		.align	2
  21              		.thumb
  22              		.thumb_func
  23              		.type	CyClockStartupError, %function
  24              	CyClockStartupError:
  25              	.LFB3:
  26              		.file 1 "Generated_Source\\PSoC5\\cyfitter_cfg.c"
   1:Generated_Source\PSoC5/cyfitter_cfg.c **** 
   2:Generated_Source\PSoC5/cyfitter_cfg.c **** /*******************************************************************************
   3:Generated_Source\PSoC5/cyfitter_cfg.c **** * File Name: cyfitter_cfg.c
   4:Generated_Source\PSoC5/cyfitter_cfg.c **** * 
   5:Generated_Source\PSoC5/cyfitter_cfg.c **** * PSoC Creator  4.4
   6:Generated_Source\PSoC5/cyfitter_cfg.c **** *
   7:Generated_Source\PSoC5/cyfitter_cfg.c **** * Description:
   8:Generated_Source\PSoC5/cyfitter_cfg.c **** * This file contains device initialization code.
   9:Generated_Source\PSoC5/cyfitter_cfg.c **** * Except for the user defined sections in CyClockStartupError(), this file should not be modified.
  10:Generated_Source\PSoC5/cyfitter_cfg.c **** * This file is automatically generated by PSoC Creator.
  11:Generated_Source\PSoC5/cyfitter_cfg.c **** *
  12:Generated_Source\PSoC5/cyfitter_cfg.c **** ********************************************************************************
  13:Generated_Source\PSoC5/cyfitter_cfg.c **** * Copyright (c) 2007-2020 Cypress Semiconductor.  All rights reserved.
  14:Generated_Source\PSoC5/cyfitter_cfg.c **** * You may use this file only in accordance with the license, terms, conditions, 
  15:Generated_Source\PSoC5/cyfitter_cfg.c **** * disclaimers, and limitations in the end user license agreement accompanying 
  16:Generated_Source\PSoC5/cyfitter_cfg.c **** * the software package with which this file was provided.
  17:Generated_Source\PSoC5/cyfitter_cfg.c **** ********************************************************************************/
  18:Generated_Source\PSoC5/cyfitter_cfg.c **** 
  19:Generated_Source\PSoC5/cyfitter_cfg.c **** #include <string.h>
  20:Generated_Source\PSoC5/cyfitter_cfg.c **** #include "cytypes.h"
  21:Generated_Source\PSoC5/cyfitter_cfg.c **** #include "cydevice_trm.h"
  22:Generated_Source\PSoC5/cyfitter_cfg.c **** #include "cyfitter.h"
  23:Generated_Source\PSoC5/cyfitter_cfg.c **** #include "CyLib.h"
  24:Generated_Source\PSoC5/cyfitter_cfg.c **** #include "cyfitter_cfg.h"
  25:Generated_Source\PSoC5/cyfitter_cfg.c **** #include "cyapicallbacks.h"
  26:Generated_Source\PSoC5/cyfitter_cfg.c **** 
  27:Generated_Source\PSoC5/cyfitter_cfg.c **** #define CY_NEED_CYCLOCKSTARTUPERROR 1
  28:Generated_Source\PSoC5/cyfitter_cfg.c **** 
  29:Generated_Source\PSoC5/cyfitter_cfg.c **** 
  30:Generated_Source\PSoC5/cyfitter_cfg.c **** #if defined(__GNUC__) || defined(__ARMCC_VERSION)
  31:Generated_Source\PSoC5/cyfitter_cfg.c ****     #define CYPACKED 
ARM GAS  C:\Users\Runeg\AppData\Local\Temp\ccCxA2E3.s 			page 2


  32:Generated_Source\PSoC5/cyfitter_cfg.c ****     #define CYPACKED_ATTR __attribute__ ((packed))
  33:Generated_Source\PSoC5/cyfitter_cfg.c ****     #define CYALIGNED __attribute__ ((aligned))
  34:Generated_Source\PSoC5/cyfitter_cfg.c ****     #define CY_CFG_UNUSED __attribute__ ((unused))
  35:Generated_Source\PSoC5/cyfitter_cfg.c ****     #ifndef CY_CFG_SECTION
  36:Generated_Source\PSoC5/cyfitter_cfg.c ****         #define CY_CFG_SECTION __attribute__ ((section(".psocinit")))
  37:Generated_Source\PSoC5/cyfitter_cfg.c ****     #endif
  38:Generated_Source\PSoC5/cyfitter_cfg.c ****     
  39:Generated_Source\PSoC5/cyfitter_cfg.c ****     #if defined(__ARMCC_VERSION)
  40:Generated_Source\PSoC5/cyfitter_cfg.c ****         #define CY_CFG_MEMORY_BARRIER() __memory_changed()
  41:Generated_Source\PSoC5/cyfitter_cfg.c ****     #else
  42:Generated_Source\PSoC5/cyfitter_cfg.c ****         #define CY_CFG_MEMORY_BARRIER() __sync_synchronize()
  43:Generated_Source\PSoC5/cyfitter_cfg.c ****     #endif
  44:Generated_Source\PSoC5/cyfitter_cfg.c ****     
  45:Generated_Source\PSoC5/cyfitter_cfg.c **** #elif defined(__ICCARM__)
  46:Generated_Source\PSoC5/cyfitter_cfg.c ****     #include <intrinsics.h>
  47:Generated_Source\PSoC5/cyfitter_cfg.c **** 
  48:Generated_Source\PSoC5/cyfitter_cfg.c ****     #define CYPACKED __packed
  49:Generated_Source\PSoC5/cyfitter_cfg.c ****     #define CYPACKED_ATTR 
  50:Generated_Source\PSoC5/cyfitter_cfg.c ****     #define CYALIGNED _Pragma("data_alignment=4")
  51:Generated_Source\PSoC5/cyfitter_cfg.c ****     #define CY_CFG_UNUSED _Pragma("diag_suppress=Pe177")
  52:Generated_Source\PSoC5/cyfitter_cfg.c ****     #define CY_CFG_SECTION _Pragma("location=\".psocinit\"")
  53:Generated_Source\PSoC5/cyfitter_cfg.c ****     
  54:Generated_Source\PSoC5/cyfitter_cfg.c ****     #define CY_CFG_MEMORY_BARRIER() __DMB()
  55:Generated_Source\PSoC5/cyfitter_cfg.c ****     
  56:Generated_Source\PSoC5/cyfitter_cfg.c **** #else
  57:Generated_Source\PSoC5/cyfitter_cfg.c ****     #error Unsupported toolchain
  58:Generated_Source\PSoC5/cyfitter_cfg.c **** #endif
  59:Generated_Source\PSoC5/cyfitter_cfg.c **** 
  60:Generated_Source\PSoC5/cyfitter_cfg.c **** #ifndef CYCODE
  61:Generated_Source\PSoC5/cyfitter_cfg.c ****     #define CYCODE
  62:Generated_Source\PSoC5/cyfitter_cfg.c **** #endif
  63:Generated_Source\PSoC5/cyfitter_cfg.c **** #ifndef CYDATA
  64:Generated_Source\PSoC5/cyfitter_cfg.c ****     #define CYDATA
  65:Generated_Source\PSoC5/cyfitter_cfg.c **** #endif
  66:Generated_Source\PSoC5/cyfitter_cfg.c **** #ifndef CYFAR
  67:Generated_Source\PSoC5/cyfitter_cfg.c ****     #define CYFAR
  68:Generated_Source\PSoC5/cyfitter_cfg.c **** #endif
  69:Generated_Source\PSoC5/cyfitter_cfg.c **** #ifndef CYXDATA
  70:Generated_Source\PSoC5/cyfitter_cfg.c ****     #define CYXDATA
  71:Generated_Source\PSoC5/cyfitter_cfg.c **** #endif
  72:Generated_Source\PSoC5/cyfitter_cfg.c **** 
  73:Generated_Source\PSoC5/cyfitter_cfg.c **** 
  74:Generated_Source\PSoC5/cyfitter_cfg.c **** CY_CFG_UNUSED
  75:Generated_Source\PSoC5/cyfitter_cfg.c **** static void CYMEMZERO(void *s, size_t n);
  76:Generated_Source\PSoC5/cyfitter_cfg.c **** CY_CFG_UNUSED
  77:Generated_Source\PSoC5/cyfitter_cfg.c **** static void CYMEMZERO(void *s, size_t n)
  78:Generated_Source\PSoC5/cyfitter_cfg.c **** {
  79:Generated_Source\PSoC5/cyfitter_cfg.c **** 	(void)memset(s, 0, n);
  80:Generated_Source\PSoC5/cyfitter_cfg.c **** }
  81:Generated_Source\PSoC5/cyfitter_cfg.c **** CY_CFG_UNUSED
  82:Generated_Source\PSoC5/cyfitter_cfg.c **** static void CYCONFIGCPY(void *dest, const void *src, size_t n);
  83:Generated_Source\PSoC5/cyfitter_cfg.c **** CY_CFG_UNUSED
  84:Generated_Source\PSoC5/cyfitter_cfg.c **** static void CYCONFIGCPY(void *dest, const void *src, size_t n)
  85:Generated_Source\PSoC5/cyfitter_cfg.c **** {
  86:Generated_Source\PSoC5/cyfitter_cfg.c **** 	(void)memcpy(dest, src, n);
  87:Generated_Source\PSoC5/cyfitter_cfg.c **** }
  88:Generated_Source\PSoC5/cyfitter_cfg.c **** CY_CFG_UNUSED
ARM GAS  C:\Users\Runeg\AppData\Local\Temp\ccCxA2E3.s 			page 3


  89:Generated_Source\PSoC5/cyfitter_cfg.c **** static void CYCONFIGCPYCODE(void *dest, const void *src, size_t n);
  90:Generated_Source\PSoC5/cyfitter_cfg.c **** CY_CFG_UNUSED
  91:Generated_Source\PSoC5/cyfitter_cfg.c **** static void CYCONFIGCPYCODE(void *dest, const void *src, size_t n)
  92:Generated_Source\PSoC5/cyfitter_cfg.c **** {
  93:Generated_Source\PSoC5/cyfitter_cfg.c **** 	(void)memcpy(dest, src, n);
  94:Generated_Source\PSoC5/cyfitter_cfg.c **** }
  95:Generated_Source\PSoC5/cyfitter_cfg.c **** 
  96:Generated_Source\PSoC5/cyfitter_cfg.c **** 
  97:Generated_Source\PSoC5/cyfitter_cfg.c **** 
  98:Generated_Source\PSoC5/cyfitter_cfg.c **** 
  99:Generated_Source\PSoC5/cyfitter_cfg.c **** /* Clock startup error codes                                                   */
 100:Generated_Source\PSoC5/cyfitter_cfg.c **** #define CYCLOCKSTART_NO_ERROR    0u
 101:Generated_Source\PSoC5/cyfitter_cfg.c **** #define CYCLOCKSTART_XTAL_ERROR  1u
 102:Generated_Source\PSoC5/cyfitter_cfg.c **** #define CYCLOCKSTART_32KHZ_ERROR 2u
 103:Generated_Source\PSoC5/cyfitter_cfg.c **** #define CYCLOCKSTART_PLL_ERROR   3u
 104:Generated_Source\PSoC5/cyfitter_cfg.c **** #define CYCLOCKSTART_FLL_ERROR   4u
 105:Generated_Source\PSoC5/cyfitter_cfg.c **** #define CYCLOCKSTART_WCO_ERROR   5u
 106:Generated_Source\PSoC5/cyfitter_cfg.c **** 
 107:Generated_Source\PSoC5/cyfitter_cfg.c **** 
 108:Generated_Source\PSoC5/cyfitter_cfg.c **** #ifdef CY_NEED_CYCLOCKSTARTUPERROR
 109:Generated_Source\PSoC5/cyfitter_cfg.c **** /*******************************************************************************
 110:Generated_Source\PSoC5/cyfitter_cfg.c **** * Function Name: CyClockStartupError
 111:Generated_Source\PSoC5/cyfitter_cfg.c **** ********************************************************************************
 112:Generated_Source\PSoC5/cyfitter_cfg.c **** * Summary:
 113:Generated_Source\PSoC5/cyfitter_cfg.c **** *  If an error is encountered during clock configuration (crystal startup error,
 114:Generated_Source\PSoC5/cyfitter_cfg.c **** *  PLL lock error, etc.), the system will end up here.  Unless reimplemented by
 115:Generated_Source\PSoC5/cyfitter_cfg.c **** *  the customer, this function will stop in an infinite loop.
 116:Generated_Source\PSoC5/cyfitter_cfg.c **** *
 117:Generated_Source\PSoC5/cyfitter_cfg.c **** * Parameters:
 118:Generated_Source\PSoC5/cyfitter_cfg.c **** *   void
 119:Generated_Source\PSoC5/cyfitter_cfg.c **** *
 120:Generated_Source\PSoC5/cyfitter_cfg.c **** * Return:
 121:Generated_Source\PSoC5/cyfitter_cfg.c **** *   void
 122:Generated_Source\PSoC5/cyfitter_cfg.c **** *
 123:Generated_Source\PSoC5/cyfitter_cfg.c **** *******************************************************************************/
 124:Generated_Source\PSoC5/cyfitter_cfg.c **** CY_CFG_UNUSED
 125:Generated_Source\PSoC5/cyfitter_cfg.c **** static void CyClockStartupError(uint8 errorCode);
 126:Generated_Source\PSoC5/cyfitter_cfg.c **** CY_CFG_UNUSED
 127:Generated_Source\PSoC5/cyfitter_cfg.c **** static void CyClockStartupError(uint8 errorCode)
 128:Generated_Source\PSoC5/cyfitter_cfg.c **** {
  27              		.loc 1 128 0
  28              		.cfi_startproc
  29              		@ Volatile: function does not return.
  30              		@ args = 0, pretend = 0, frame = 0
  31              		@ frame_needed = 0, uses_anonymous_args = 0
  32              		@ link register save eliminated.
  33              	.LVL0:
  34              	.L2:
  35 0000 FEE7     		b	.L2
  36              		.cfi_endproc
  37              	.LFE3:
  38              		.size	CyClockStartupError, .-CyClockStartupError
  39 0002 00BF     		.section	.text.cfg_write_bytes32,"ax",%progbits
  40              		.align	2
  41              		.thumb
  42              		.thumb_func
  43              		.type	cfg_write_bytes32, %function
ARM GAS  C:\Users\Runeg\AppData\Local\Temp\ccCxA2E3.s 			page 4


  44              	cfg_write_bytes32:
  45              	.LFB4:
 129:Generated_Source\PSoC5/cyfitter_cfg.c ****     /* To remove the compiler warning if errorCode not used.                */
 130:Generated_Source\PSoC5/cyfitter_cfg.c ****     errorCode = errorCode;
 131:Generated_Source\PSoC5/cyfitter_cfg.c **** 
 132:Generated_Source\PSoC5/cyfitter_cfg.c ****     /* If we have a clock startup error (bad MHz crystal, PLL lock, etc.),  */
 133:Generated_Source\PSoC5/cyfitter_cfg.c ****     /* we will end up here to allow the customer to implement something to  */
 134:Generated_Source\PSoC5/cyfitter_cfg.c ****     /* deal with the clock condition.                                       */
 135:Generated_Source\PSoC5/cyfitter_cfg.c **** 
 136:Generated_Source\PSoC5/cyfitter_cfg.c **** #ifdef CY_CFG_CLOCK_STARTUP_ERROR_CALLBACK
 137:Generated_Source\PSoC5/cyfitter_cfg.c ****     CY_CFG_Clock_Startup_ErrorCallback();
 138:Generated_Source\PSoC5/cyfitter_cfg.c **** #else
 139:Generated_Source\PSoC5/cyfitter_cfg.c ****     /*  If not using CY_CFG_CLOCK_STARTUP_ERROR_CALLBACK, place your clock startup code here. */
 140:Generated_Source\PSoC5/cyfitter_cfg.c ****     /* `#START CyClockStartupError` */
 141:Generated_Source\PSoC5/cyfitter_cfg.c **** 
 142:Generated_Source\PSoC5/cyfitter_cfg.c **** 
 143:Generated_Source\PSoC5/cyfitter_cfg.c **** 
 144:Generated_Source\PSoC5/cyfitter_cfg.c ****     /* `#END` */
 145:Generated_Source\PSoC5/cyfitter_cfg.c **** 
 146:Generated_Source\PSoC5/cyfitter_cfg.c ****     while(1) {}
 147:Generated_Source\PSoC5/cyfitter_cfg.c **** #endif /* CY_CFG_CLOCK_STARTUP_ERROR_CALLBACK */
 148:Generated_Source\PSoC5/cyfitter_cfg.c **** }
 149:Generated_Source\PSoC5/cyfitter_cfg.c **** #endif
 150:Generated_Source\PSoC5/cyfitter_cfg.c **** 
 151:Generated_Source\PSoC5/cyfitter_cfg.c **** #define CY_CFG_BASE_ADDR_COUNT 21u
 152:Generated_Source\PSoC5/cyfitter_cfg.c **** CYPACKED typedef struct
 153:Generated_Source\PSoC5/cyfitter_cfg.c **** {
 154:Generated_Source\PSoC5/cyfitter_cfg.c **** 	uint8 offset;
 155:Generated_Source\PSoC5/cyfitter_cfg.c **** 	uint8 value;
 156:Generated_Source\PSoC5/cyfitter_cfg.c **** } CYPACKED_ATTR cy_cfg_addrvalue_t;
 157:Generated_Source\PSoC5/cyfitter_cfg.c **** 
 158:Generated_Source\PSoC5/cyfitter_cfg.c **** #define cy_cfg_addr_table ((const uint32 CYFAR *)0x48000000u)
 159:Generated_Source\PSoC5/cyfitter_cfg.c **** #define cy_cfg_data_table ((const cy_cfg_addrvalue_t CYFAR *)0x48000054u)
 160:Generated_Source\PSoC5/cyfitter_cfg.c **** 
 161:Generated_Source\PSoC5/cyfitter_cfg.c **** /* IOPORT_7 Address: CYDEV_PRTDSI_PRT12_BASE Size (bytes): 6 */
 162:Generated_Source\PSoC5/cyfitter_cfg.c **** #define BS_IOPORT_7_VAL ((const uint8 CYFAR *)0x480002C8u)
 163:Generated_Source\PSoC5/cyfitter_cfg.c **** 
 164:Generated_Source\PSoC5/cyfitter_cfg.c **** /* UDB_0_0_0_CONFIG Address: CYDEV_UCFG_B1_P5_U0_BASE Size (bytes): 128 */
 165:Generated_Source\PSoC5/cyfitter_cfg.c **** #define BS_UDB_0_0_0_CONFIG_VAL ((const uint8 CYFAR *)0x480002D0u)
 166:Generated_Source\PSoC5/cyfitter_cfg.c **** 
 167:Generated_Source\PSoC5/cyfitter_cfg.c **** /* IOPINS0_0 Address: CYREG_PRT0_DM0 Size (bytes): 8 */
 168:Generated_Source\PSoC5/cyfitter_cfg.c **** #define BS_IOPINS0_0_VAL ((const uint8 CYFAR *)0x48000350u)
 169:Generated_Source\PSoC5/cyfitter_cfg.c **** 
 170:Generated_Source\PSoC5/cyfitter_cfg.c **** /* IOPINS0_7 Address: CYREG_PRT12_DR Size (bytes): 10 */
 171:Generated_Source\PSoC5/cyfitter_cfg.c **** #define BS_IOPINS0_7_VAL ((const uint8 CYFAR *)0x48000358u)
 172:Generated_Source\PSoC5/cyfitter_cfg.c **** 
 173:Generated_Source\PSoC5/cyfitter_cfg.c **** /* IOPINS0_1 Address: CYREG_PRT1_DM0 Size (bytes): 8 */
 174:Generated_Source\PSoC5/cyfitter_cfg.c **** #define BS_IOPINS0_1_VAL ((const uint8 CYFAR *)0x48000364u)
 175:Generated_Source\PSoC5/cyfitter_cfg.c **** 
 176:Generated_Source\PSoC5/cyfitter_cfg.c **** /* IOPINS0_2 Address: CYREG_PRT2_DM0 Size (bytes): 8 */
 177:Generated_Source\PSoC5/cyfitter_cfg.c **** #define BS_IOPINS0_2_VAL ((const uint8 CYFAR *)0x4800036Cu)
 178:Generated_Source\PSoC5/cyfitter_cfg.c **** 
 179:Generated_Source\PSoC5/cyfitter_cfg.c **** /* IOPINS0_3 Address: CYREG_PRT3_DM0 Size (bytes): 8 */
 180:Generated_Source\PSoC5/cyfitter_cfg.c **** #define BS_IOPINS0_3_VAL ((const uint8 CYFAR *)0x48000374u)
 181:Generated_Source\PSoC5/cyfitter_cfg.c **** 
 182:Generated_Source\PSoC5/cyfitter_cfg.c **** /* CYDEV_CLKDIST_ACFG0_CFG0 Address: CYREG_CLKDIST_ACFG0_CFG0 Size (bytes): 4 */
 183:Generated_Source\PSoC5/cyfitter_cfg.c **** #define BS_CYDEV_CLKDIST_ACFG0_CFG0_VAL ((const uint8 CYFAR *)0x4800037Cu)
ARM GAS  C:\Users\Runeg\AppData\Local\Temp\ccCxA2E3.s 			page 5


 184:Generated_Source\PSoC5/cyfitter_cfg.c **** 
 185:Generated_Source\PSoC5/cyfitter_cfg.c **** 
 186:Generated_Source\PSoC5/cyfitter_cfg.c **** /*******************************************************************************
 187:Generated_Source\PSoC5/cyfitter_cfg.c **** * Function Name: cfg_write_bytes32
 188:Generated_Source\PSoC5/cyfitter_cfg.c **** ********************************************************************************
 189:Generated_Source\PSoC5/cyfitter_cfg.c **** * Summary:
 190:Generated_Source\PSoC5/cyfitter_cfg.c **** *  This function is used for setting up the chip configuration areas that
 191:Generated_Source\PSoC5/cyfitter_cfg.c **** *  contain relatively sparse data.
 192:Generated_Source\PSoC5/cyfitter_cfg.c **** *
 193:Generated_Source\PSoC5/cyfitter_cfg.c **** * Parameters:
 194:Generated_Source\PSoC5/cyfitter_cfg.c **** *   void
 195:Generated_Source\PSoC5/cyfitter_cfg.c **** *
 196:Generated_Source\PSoC5/cyfitter_cfg.c **** * Return:
 197:Generated_Source\PSoC5/cyfitter_cfg.c **** *   void
 198:Generated_Source\PSoC5/cyfitter_cfg.c **** *
 199:Generated_Source\PSoC5/cyfitter_cfg.c **** *******************************************************************************/
 200:Generated_Source\PSoC5/cyfitter_cfg.c **** static void cfg_write_bytes32(const uint32 addr_table[], const cy_cfg_addrvalue_t data_table[]);
 201:Generated_Source\PSoC5/cyfitter_cfg.c **** static void cfg_write_bytes32(const uint32 addr_table[], const cy_cfg_addrvalue_t data_table[])
 202:Generated_Source\PSoC5/cyfitter_cfg.c **** {
  46              		.loc 1 202 0
  47              		.cfi_startproc
  48              		@ args = 0, pretend = 0, frame = 0
  49              		@ frame_needed = 0, uses_anonymous_args = 0
  50              		@ link register save eliminated.
  51              	.LVL1:
  52              		.loc 1 202 0
  53 0000 F0B4     		push	{r4, r5, r6, r7}
  54              		.cfi_def_cfa_offset 16
  55              		.cfi_offset 4, -16
  56              		.cfi_offset 5, -12
  57              		.cfi_offset 6, -8
  58              		.cfi_offset 7, -4
  59              	.LVL2:
 203:Generated_Source\PSoC5/cyfitter_cfg.c **** 	/* For 32-bit little-endian architectures */
 204:Generated_Source\PSoC5/cyfitter_cfg.c **** 	uint32 i, j = 0u;
  60              		.loc 1 204 0
  61 0002 0022     		movs	r2, #0
 205:Generated_Source\PSoC5/cyfitter_cfg.c **** 	for (i = 0u; i < CY_CFG_BASE_ADDR_COUNT; i++)
  62              		.loc 1 205 0
  63 0004 1746     		mov	r7, r2
  64 0006 11E0     		b	.L4
  65              	.LVL3:
  66              	.L7:
  67              	.LBB2:
 206:Generated_Source\PSoC5/cyfitter_cfg.c **** 	{
 207:Generated_Source\PSoC5/cyfitter_cfg.c **** 		uint32 baseAddr = addr_table[i];
  68              		.loc 1 207 0
  69 0008 50F82760 		ldr	r6, [r0, r7, lsl #2]
  70              	.LVL4:
 208:Generated_Source\PSoC5/cyfitter_cfg.c **** 		uint8 count = (uint8)baseAddr;
  71              		.loc 1 208 0
  72 000c F3B2     		uxtb	r3, r6
  73              	.LVL5:
 209:Generated_Source\PSoC5/cyfitter_cfg.c **** 		baseAddr &= 0xFFFFFF00u;
  74              		.loc 1 209 0
  75 000e 26F0FF06 		bic	r6, r6, #255
  76              	.LVL6:
ARM GAS  C:\Users\Runeg\AppData\Local\Temp\ccCxA2E3.s 			page 6


 210:Generated_Source\PSoC5/cyfitter_cfg.c **** 		while (count != 0u)
  77              		.loc 1 210 0
  78 0012 08E0     		b	.L5
  79              	.L6:
 211:Generated_Source\PSoC5/cyfitter_cfg.c **** 		{
 212:Generated_Source\PSoC5/cyfitter_cfg.c **** 			CY_SET_REG8((void *)(baseAddr + data_table[j].offset), data_table[j].value);
  80              		.loc 1 212 0
  81 0014 01EB4205 		add	r5, r1, r2, lsl #1
  82 0018 11F81240 		ldrb	r4, [r1, r2, lsl #1]	@ zero_extendqisi2
  83 001c 6D78     		ldrb	r5, [r5, #1]	@ zero_extendqisi2
  84 001e A555     		strb	r5, [r4, r6]
 213:Generated_Source\PSoC5/cyfitter_cfg.c **** 			j++;
  85              		.loc 1 213 0
  86 0020 0132     		adds	r2, r2, #1
  87              	.LVL7:
 214:Generated_Source\PSoC5/cyfitter_cfg.c **** 			count--;
  88              		.loc 1 214 0
  89 0022 013B     		subs	r3, r3, #1
  90              	.LVL8:
  91 0024 DBB2     		uxtb	r3, r3
  92              	.LVL9:
  93              	.L5:
 210:Generated_Source\PSoC5/cyfitter_cfg.c **** 		{
  94              		.loc 1 210 0
  95 0026 002B     		cmp	r3, #0
  96 0028 F4D1     		bne	.L6
  97              	.LBE2:
 205:Generated_Source\PSoC5/cyfitter_cfg.c **** 	{
  98              		.loc 1 205 0 discriminator 2
  99 002a 0137     		adds	r7, r7, #1
 100              	.LVL10:
 101              	.L4:
 205:Generated_Source\PSoC5/cyfitter_cfg.c **** 	{
 102              		.loc 1 205 0 is_stmt 0 discriminator 1
 103 002c 142F     		cmp	r7, #20
 104 002e EBD9     		bls	.L7
 215:Generated_Source\PSoC5/cyfitter_cfg.c **** 		}
 216:Generated_Source\PSoC5/cyfitter_cfg.c **** 	}
 217:Generated_Source\PSoC5/cyfitter_cfg.c **** }
 105              		.loc 1 217 0 is_stmt 1
 106 0030 F0BC     		pop	{r4, r5, r6, r7}
 107              		.cfi_restore 7
 108              		.cfi_restore 6
 109              		.cfi_restore 5
 110              		.cfi_restore 4
 111              		.cfi_def_cfa_offset 0
 112              	.LVL11:
 113 0032 7047     		bx	lr
 114              		.cfi_endproc
 115              	.LFE4:
 116              		.size	cfg_write_bytes32, .-cfg_write_bytes32
 117              		.section	.text.AnalogSetDefault,"ax",%progbits
 118              		.align	2
 119              		.thumb
 120              		.thumb_func
 121              		.type	AnalogSetDefault, %function
 122              	AnalogSetDefault:
ARM GAS  C:\Users\Runeg\AppData\Local\Temp\ccCxA2E3.s 			page 7


 123              	.LFB6:
 218:Generated_Source\PSoC5/cyfitter_cfg.c **** 
 219:Generated_Source\PSoC5/cyfitter_cfg.c **** /*******************************************************************************
 220:Generated_Source\PSoC5/cyfitter_cfg.c **** * Function Name: ClockSetup
 221:Generated_Source\PSoC5/cyfitter_cfg.c **** ********************************************************************************
 222:Generated_Source\PSoC5/cyfitter_cfg.c **** *
 223:Generated_Source\PSoC5/cyfitter_cfg.c **** * Summary:
 224:Generated_Source\PSoC5/cyfitter_cfg.c **** *  Performs the initialization of all of the clocks in the device based on the
 225:Generated_Source\PSoC5/cyfitter_cfg.c **** *  settings in the Clock tab of the DWR.  This includes enabling the requested
 226:Generated_Source\PSoC5/cyfitter_cfg.c **** *  clocks and setting the necessary dividers to produce the desired frequency. 
 227:Generated_Source\PSoC5/cyfitter_cfg.c **** *
 228:Generated_Source\PSoC5/cyfitter_cfg.c **** * Parameters:
 229:Generated_Source\PSoC5/cyfitter_cfg.c **** *  void
 230:Generated_Source\PSoC5/cyfitter_cfg.c **** *
 231:Generated_Source\PSoC5/cyfitter_cfg.c **** * Return:
 232:Generated_Source\PSoC5/cyfitter_cfg.c **** *  void
 233:Generated_Source\PSoC5/cyfitter_cfg.c **** *
 234:Generated_Source\PSoC5/cyfitter_cfg.c **** *******************************************************************************/
 235:Generated_Source\PSoC5/cyfitter_cfg.c **** static void ClockSetup(void);
 236:Generated_Source\PSoC5/cyfitter_cfg.c **** static void ClockSetup(void)
 237:Generated_Source\PSoC5/cyfitter_cfg.c **** {
 238:Generated_Source\PSoC5/cyfitter_cfg.c **** 	uint32 timeout;
 239:Generated_Source\PSoC5/cyfitter_cfg.c **** 	uint8 pllLock;
 240:Generated_Source\PSoC5/cyfitter_cfg.c **** 
 241:Generated_Source\PSoC5/cyfitter_cfg.c **** 
 242:Generated_Source\PSoC5/cyfitter_cfg.c **** 	/* Configure Digital Clocks based on settings from Clock DWR */
 243:Generated_Source\PSoC5/cyfitter_cfg.c **** 	CY_SET_XTND_REG16((void CYFAR *)(CYREG_CLKDIST_DCFG0_CFG0), 0x5DBFu);
 244:Generated_Source\PSoC5/cyfitter_cfg.c **** 	CY_SET_XTND_REG8((void CYFAR *)(CYREG_CLKDIST_DCFG0_CFG0 + 0x2u), 0x18u);
 245:Generated_Source\PSoC5/cyfitter_cfg.c **** 	CY_SET_XTND_REG16((void CYFAR *)(CYREG_CLKDIST_DCFG1_CFG0), 0xEA5Fu);
 246:Generated_Source\PSoC5/cyfitter_cfg.c **** 	CY_SET_XTND_REG8((void CYFAR *)(CYREG_CLKDIST_DCFG1_CFG0 + 0x2u), 0x18u);
 247:Generated_Source\PSoC5/cyfitter_cfg.c **** 	CY_SET_XTND_REG16((void CYFAR *)(CYREG_CLKDIST_DCFG2_CFG0), 0xEA5Fu);
 248:Generated_Source\PSoC5/cyfitter_cfg.c **** 	CY_SET_XTND_REG8((void CYFAR *)(CYREG_CLKDIST_DCFG2_CFG0 + 0x2u), 0x18u);
 249:Generated_Source\PSoC5/cyfitter_cfg.c **** 	CY_SET_XTND_REG16((void CYFAR *)(CYREG_CLKDIST_DCFG3_CFG0), 0xEA5Fu);
 250:Generated_Source\PSoC5/cyfitter_cfg.c **** 	CY_SET_XTND_REG8((void CYFAR *)(CYREG_CLKDIST_DCFG3_CFG0 + 0x2u), 0x18u);
 251:Generated_Source\PSoC5/cyfitter_cfg.c **** 	CY_SET_XTND_REG16((void CYFAR *)(CYREG_CLKDIST_DCFG4_CFG0), 0x0033u);
 252:Generated_Source\PSoC5/cyfitter_cfg.c **** 	CY_SET_XTND_REG8((void CYFAR *)(CYREG_CLKDIST_DCFG4_CFG0 + 0x2u), 0x18u);
 253:Generated_Source\PSoC5/cyfitter_cfg.c **** 
 254:Generated_Source\PSoC5/cyfitter_cfg.c **** 	/* Configure Analog Clocks based on settings from Clock DWR */
 255:Generated_Source\PSoC5/cyfitter_cfg.c **** 	CYCONFIGCPY((void CYFAR *)(CYREG_CLKDIST_ACFG0_CFG0), (const void CYFAR *)(BS_CYDEV_CLKDIST_ACFG0_
 256:Generated_Source\PSoC5/cyfitter_cfg.c **** 
 257:Generated_Source\PSoC5/cyfitter_cfg.c **** 	/* Configure ILO based on settings from Clock DWR */
 258:Generated_Source\PSoC5/cyfitter_cfg.c **** 	CY_SET_XTND_REG8((void CYFAR *)(CYREG_SLOWCLK_ILO_CR0), 0x02u);
 259:Generated_Source\PSoC5/cyfitter_cfg.c **** 	CY_SET_XTND_REG8((void CYFAR *)(CYREG_CLKDIST_CR), 0x08u);
 260:Generated_Source\PSoC5/cyfitter_cfg.c **** 
 261:Generated_Source\PSoC5/cyfitter_cfg.c **** 	/* Configure IMO based on settings from Clock DWR */
 262:Generated_Source\PSoC5/cyfitter_cfg.c **** 	CY_SET_XTND_REG8((void CYFAR *)(CYREG_FASTCLK_IMO_CR), 0x03u);
 263:Generated_Source\PSoC5/cyfitter_cfg.c **** 	CY_SET_XTND_REG8((void CYFAR *)(CYREG_IMO_TR1), (CY_GET_XTND_REG8((void CYFAR *)CYREG_FLSHID_CUST_
 264:Generated_Source\PSoC5/cyfitter_cfg.c **** 
 265:Generated_Source\PSoC5/cyfitter_cfg.c **** 	/* Configure PLL based on settings from Clock DWR */
 266:Generated_Source\PSoC5/cyfitter_cfg.c **** 	CY_SET_XTND_REG16((void CYFAR *)(CYREG_FASTCLK_PLL_P), 0x0008u);
 267:Generated_Source\PSoC5/cyfitter_cfg.c **** 	CY_SET_XTND_REG16((void CYFAR *)(CYREG_FASTCLK_PLL_CFG0), 0x1251u);
 268:Generated_Source\PSoC5/cyfitter_cfg.c **** 	/* Wait up to 250us for the PLL to lock */
 269:Generated_Source\PSoC5/cyfitter_cfg.c **** 	pllLock = 0u;
 270:Generated_Source\PSoC5/cyfitter_cfg.c **** 	for (timeout = 250u / 10u; (timeout > 0u) && (pllLock != 0x03u); timeout--)
 271:Generated_Source\PSoC5/cyfitter_cfg.c **** 	{ 
 272:Generated_Source\PSoC5/cyfitter_cfg.c **** 		pllLock = 0x03u & ((uint8)((uint8)pllLock << 1) | ((CY_GET_XTND_REG8((void CYFAR *)CYREG_FASTCLK_
 273:Generated_Source\PSoC5/cyfitter_cfg.c **** 		CyDelayCycles(10u * 48u); /* Delay 10us based on 48MHz clock */
ARM GAS  C:\Users\Runeg\AppData\Local\Temp\ccCxA2E3.s 			page 8


 274:Generated_Source\PSoC5/cyfitter_cfg.c **** 	}
 275:Generated_Source\PSoC5/cyfitter_cfg.c **** 	/* If we ran out of time the PLL didn't lock so go to the error function */
 276:Generated_Source\PSoC5/cyfitter_cfg.c **** 	if (timeout == 0u)
 277:Generated_Source\PSoC5/cyfitter_cfg.c **** 	{
 278:Generated_Source\PSoC5/cyfitter_cfg.c **** 		CyClockStartupError(CYCLOCKSTART_PLL_ERROR);
 279:Generated_Source\PSoC5/cyfitter_cfg.c **** 	}
 280:Generated_Source\PSoC5/cyfitter_cfg.c **** 
 281:Generated_Source\PSoC5/cyfitter_cfg.c **** 	/* Configure Bus/Master Clock based on settings from Clock DWR */
 282:Generated_Source\PSoC5/cyfitter_cfg.c **** 	CY_SET_XTND_REG16((void CYFAR *)(CYREG_CLKDIST_MSTR0), 0x0100u);
 283:Generated_Source\PSoC5/cyfitter_cfg.c **** 	CY_SET_XTND_REG8((void CYFAR *)(CYREG_CLKDIST_MSTR0), 0x07u);
 284:Generated_Source\PSoC5/cyfitter_cfg.c **** 	CY_SET_XTND_REG8((void CYFAR *)(CYREG_CLKDIST_BCFG0), 0x00u);
 285:Generated_Source\PSoC5/cyfitter_cfg.c **** 	CY_SET_XTND_REG8((void CYFAR *)(CYREG_CLKDIST_BCFG2), 0x48u);
 286:Generated_Source\PSoC5/cyfitter_cfg.c **** 	CY_SET_XTND_REG8((void CYFAR *)(CYREG_CLKDIST_MSTR0), 0x00u);
 287:Generated_Source\PSoC5/cyfitter_cfg.c **** 	CY_SET_XTND_REG8((void CYFAR *)(CYREG_CLKDIST_LD), 0x02u);
 288:Generated_Source\PSoC5/cyfitter_cfg.c **** 	CY_SET_XTND_REG8((void CYFAR *)(CYREG_CLKDIST_DLY1), 0x04u);
 289:Generated_Source\PSoC5/cyfitter_cfg.c **** 
 290:Generated_Source\PSoC5/cyfitter_cfg.c **** 	CY_SET_XTND_REG8((void CYFAR *)(CYREG_PM_ACT_CFG2), ((CY_GET_XTND_REG8((void CYFAR *)CYREG_PM_ACT_
 291:Generated_Source\PSoC5/cyfitter_cfg.c **** 	CY_SET_XTND_REG8((void CYFAR *)(CYREG_PM_ACT_CFG1), ((CY_GET_XTND_REG8((void CYFAR *)CYREG_PM_ACT_
 292:Generated_Source\PSoC5/cyfitter_cfg.c **** 	CY_SET_XTND_REG8((void CYFAR *)(CYREG_PM_ACT_CFG0), ((CY_GET_XTND_REG8((void CYFAR *)CYREG_PM_ACT_
 293:Generated_Source\PSoC5/cyfitter_cfg.c **** }
 294:Generated_Source\PSoC5/cyfitter_cfg.c **** 
 295:Generated_Source\PSoC5/cyfitter_cfg.c **** 
 296:Generated_Source\PSoC5/cyfitter_cfg.c **** /* Analog API Functions */
 297:Generated_Source\PSoC5/cyfitter_cfg.c **** 
 298:Generated_Source\PSoC5/cyfitter_cfg.c **** 
 299:Generated_Source\PSoC5/cyfitter_cfg.c **** /*******************************************************************************
 300:Generated_Source\PSoC5/cyfitter_cfg.c **** * Function Name: AnalogSetDefault
 301:Generated_Source\PSoC5/cyfitter_cfg.c **** ********************************************************************************
 302:Generated_Source\PSoC5/cyfitter_cfg.c **** *
 303:Generated_Source\PSoC5/cyfitter_cfg.c **** * Summary:
 304:Generated_Source\PSoC5/cyfitter_cfg.c **** *  Sets up the analog portions of the chip to default values based on chip
 305:Generated_Source\PSoC5/cyfitter_cfg.c **** *  configuration options from the project.
 306:Generated_Source\PSoC5/cyfitter_cfg.c **** *
 307:Generated_Source\PSoC5/cyfitter_cfg.c **** * Parameters:
 308:Generated_Source\PSoC5/cyfitter_cfg.c **** *  void
 309:Generated_Source\PSoC5/cyfitter_cfg.c **** *
 310:Generated_Source\PSoC5/cyfitter_cfg.c **** * Return:
 311:Generated_Source\PSoC5/cyfitter_cfg.c **** *  void
 312:Generated_Source\PSoC5/cyfitter_cfg.c **** *
 313:Generated_Source\PSoC5/cyfitter_cfg.c **** *******************************************************************************/
 314:Generated_Source\PSoC5/cyfitter_cfg.c **** static void AnalogSetDefault(void);
 315:Generated_Source\PSoC5/cyfitter_cfg.c **** static void AnalogSetDefault(void)
 316:Generated_Source\PSoC5/cyfitter_cfg.c **** {
 124              		.loc 1 316 0
 125              		.cfi_startproc
 126              		@ args = 0, pretend = 0, frame = 0
 127              		@ frame_needed = 0, uses_anonymous_args = 0
 128              		@ link register save eliminated.
 317:Generated_Source\PSoC5/cyfitter_cfg.c **** 	uint8 bg_xover_inl_trim = CY_GET_XTND_REG8((void CYFAR *)(CYREG_FLSHID_MFG_CFG_BG_XOVER_INL_TRIM +
 129              		.loc 1 317 0
 130 0000 0D4B     		ldr	r3, .L10
 131 0002 1B78     		ldrb	r3, [r3]	@ zero_extendqisi2
 132 0004 DBB2     		uxtb	r3, r3
 133              	.LVL12:
 318:Generated_Source\PSoC5/cyfitter_cfg.c **** 	CY_SET_XTND_REG8((void CYFAR *)(CYREG_BG_DFT0), (bg_xover_inl_trim & 0x07u));
 134              		.loc 1 318 0
 135 0006 03F00701 		and	r1, r3, #7
ARM GAS  C:\Users\Runeg\AppData\Local\Temp\ccCxA2E3.s 			page 9


 136 000a 0C4A     		ldr	r2, .L10+4
 137 000c 1170     		strb	r1, [r2]
 319:Generated_Source\PSoC5/cyfitter_cfg.c **** 	CY_SET_XTND_REG8((void CYFAR *)(CYREG_BG_DFT1), ((bg_xover_inl_trim >> 4) & 0x0Fu));
 138              		.loc 1 319 0
 139 000e 1B09     		lsrs	r3, r3, #4
 140              	.LVL13:
 141 0010 0132     		adds	r2, r2, #1
 142 0012 1370     		strb	r3, [r2]
 320:Generated_Source\PSoC5/cyfitter_cfg.c **** 	CY_SET_XTND_REG8((void CYFAR *)CYREG_DSM0_SW0, 0x01u);
 143              		.loc 1 320 0
 144 0014 0122     		movs	r2, #1
 145 0016 0A4B     		ldr	r3, .L10+8
 146 0018 1A70     		strb	r2, [r3]
 321:Generated_Source\PSoC5/cyfitter_cfg.c **** 	CY_SET_XTND_REG8((void CYFAR *)CYREG_SAR1_SW0, 0x02u);
 147              		.loc 1 321 0
 148 001a 0222     		movs	r2, #2
 149 001c 2833     		adds	r3, r3, #40
 150 001e 1A70     		strb	r2, [r3]
 322:Generated_Source\PSoC5/cyfitter_cfg.c **** 	CY_SET_XTND_REG8((void CYFAR *)CYREG_SAR1_SW3, 0x20u);
 151              		.loc 1 322 0
 152 0020 2022     		movs	r2, #32
 153 0022 0333     		adds	r3, r3, #3
 154 0024 1A70     		strb	r2, [r3]
 323:Generated_Source\PSoC5/cyfitter_cfg.c **** 	CY_SET_XTND_REG8((void CYFAR *)CYREG_BUS_SW0, 0x06u);
 155              		.loc 1 323 0
 156 0026 0622     		movs	r2, #6
 157 0028 2D33     		adds	r3, r3, #45
 158 002a 1A70     		strb	r2, [r3]
 324:Generated_Source\PSoC5/cyfitter_cfg.c **** 	CY_SET_XTND_REG8((void CYFAR *)CYREG_PUMP_CR0, 0x44u);
 159              		.loc 1 324 0
 160 002c 4422     		movs	r2, #68
 161 002e A3F2E223 		subw	r3, r3, #738
 162 0032 1A70     		strb	r2, [r3]
 163 0034 7047     		bx	lr
 164              	.L11:
 165 0036 00BF     		.align	2
 166              	.L10:
 167 0038 CF010049 		.word	1224737231
 168 003c 6E580040 		.word	1073764462
 169 0040 005B0040 		.word	1073765120
 170              		.cfi_endproc
 171              	.LFE6:
 172              		.size	AnalogSetDefault, .-AnalogSetDefault
 173              		.section	.text.CYMEMZERO,"ax",%progbits
 174              		.align	2
 175              		.thumb
 176              		.thumb_func
 177              		.type	CYMEMZERO, %function
 178              	CYMEMZERO:
 179              	.LFB0:
  78:Generated_Source\PSoC5/cyfitter_cfg.c **** 	(void)memset(s, 0, n);
 180              		.loc 1 78 0
 181              		.cfi_startproc
 182              		@ args = 0, pretend = 0, frame = 0
 183              		@ frame_needed = 0, uses_anonymous_args = 0
 184              	.LVL14:
 185 0000 08B5     		push	{r3, lr}
ARM GAS  C:\Users\Runeg\AppData\Local\Temp\ccCxA2E3.s 			page 10


 186              		.cfi_def_cfa_offset 8
 187              		.cfi_offset 3, -8
 188              		.cfi_offset 14, -4
  79:Generated_Source\PSoC5/cyfitter_cfg.c **** }
 189              		.loc 1 79 0
 190 0002 0A46     		mov	r2, r1
 191 0004 0021     		movs	r1, #0
 192              	.LVL15:
 193 0006 FFF7FEFF 		bl	memset
 194              	.LVL16:
 195 000a 08BD     		pop	{r3, pc}
 196              		.cfi_endproc
 197              	.LFE0:
 198              		.size	CYMEMZERO, .-CYMEMZERO
 199              		.section	.text.CYCONFIGCPY,"ax",%progbits
 200              		.align	2
 201              		.thumb
 202              		.thumb_func
 203              		.type	CYCONFIGCPY, %function
 204              	CYCONFIGCPY:
 205              	.LFB1:
  85:Generated_Source\PSoC5/cyfitter_cfg.c **** 	(void)memcpy(dest, src, n);
 206              		.loc 1 85 0
 207              		.cfi_startproc
 208              		@ args = 0, pretend = 0, frame = 0
 209              		@ frame_needed = 0, uses_anonymous_args = 0
 210              	.LVL17:
 211 0000 08B5     		push	{r3, lr}
 212              		.cfi_def_cfa_offset 8
 213              		.cfi_offset 3, -8
 214              		.cfi_offset 14, -4
  86:Generated_Source\PSoC5/cyfitter_cfg.c **** }
 215              		.loc 1 86 0
 216 0002 FFF7FEFF 		bl	memcpy
 217              	.LVL18:
 218 0006 08BD     		pop	{r3, pc}
 219              		.cfi_endproc
 220              	.LFE1:
 221              		.size	CYCONFIGCPY, .-CYCONFIGCPY
 222              		.section	.text.ClockSetup,"ax",%progbits
 223              		.align	2
 224              		.thumb
 225              		.thumb_func
 226              		.type	ClockSetup, %function
 227              	ClockSetup:
 228              	.LFB5:
 237:Generated_Source\PSoC5/cyfitter_cfg.c **** 	uint32 timeout;
 229              		.loc 1 237 0
 230              		.cfi_startproc
 231              		@ args = 0, pretend = 0, frame = 0
 232              		@ frame_needed = 0, uses_anonymous_args = 0
 233 0000 38B5     		push	{r3, r4, r5, lr}
 234              		.cfi_def_cfa_offset 16
 235              		.cfi_offset 3, -16
 236              		.cfi_offset 4, -12
 237              		.cfi_offset 5, -8
 238              		.cfi_offset 14, -4
ARM GAS  C:\Users\Runeg\AppData\Local\Temp\ccCxA2E3.s 			page 11


 243:Generated_Source\PSoC5/cyfitter_cfg.c **** 	CY_SET_XTND_REG8((void CYFAR *)(CYREG_CLKDIST_DCFG0_CFG0 + 0x2u), 0x18u);
 239              		.loc 1 243 0
 240 0002 45F6BF52 		movw	r2, #23999
 241 0006 364B     		ldr	r3, .L22
 242 0008 1A80     		strh	r2, [r3]	@ movhi
 244:Generated_Source\PSoC5/cyfitter_cfg.c **** 	CY_SET_XTND_REG16((void CYFAR *)(CYREG_CLKDIST_DCFG1_CFG0), 0xEA5Fu);
 243              		.loc 1 244 0
 244 000a 1823     		movs	r3, #24
 245 000c 354A     		ldr	r2, .L22+4
 246 000e 1370     		strb	r3, [r2]
 245:Generated_Source\PSoC5/cyfitter_cfg.c **** 	CY_SET_XTND_REG8((void CYFAR *)(CYREG_CLKDIST_DCFG1_CFG0 + 0x2u), 0x18u);
 247              		.loc 1 245 0
 248 0010 4EF65F22 		movw	r2, #59999
 249 0014 3449     		ldr	r1, .L22+8
 250 0016 0A80     		strh	r2, [r1]	@ movhi
 246:Generated_Source\PSoC5/cyfitter_cfg.c **** 	CY_SET_XTND_REG16((void CYFAR *)(CYREG_CLKDIST_DCFG2_CFG0), 0xEA5Fu);
 251              		.loc 1 246 0
 252 0018 0231     		adds	r1, r1, #2
 253 001a 0B70     		strb	r3, [r1]
 247:Generated_Source\PSoC5/cyfitter_cfg.c **** 	CY_SET_XTND_REG8((void CYFAR *)(CYREG_CLKDIST_DCFG2_CFG0 + 0x2u), 0x18u);
 254              		.loc 1 247 0
 255 001c 0231     		adds	r1, r1, #2
 256 001e 0A80     		strh	r2, [r1]	@ movhi
 248:Generated_Source\PSoC5/cyfitter_cfg.c **** 	CY_SET_XTND_REG16((void CYFAR *)(CYREG_CLKDIST_DCFG3_CFG0), 0xEA5Fu);
 257              		.loc 1 248 0
 258 0020 0231     		adds	r1, r1, #2
 259 0022 0B70     		strb	r3, [r1]
 249:Generated_Source\PSoC5/cyfitter_cfg.c **** 	CY_SET_XTND_REG8((void CYFAR *)(CYREG_CLKDIST_DCFG3_CFG0 + 0x2u), 0x18u);
 260              		.loc 1 249 0
 261 0024 0231     		adds	r1, r1, #2
 262 0026 0A80     		strh	r2, [r1]	@ movhi
 250:Generated_Source\PSoC5/cyfitter_cfg.c **** 	CY_SET_XTND_REG16((void CYFAR *)(CYREG_CLKDIST_DCFG4_CFG0), 0x0033u);
 263              		.loc 1 250 0
 264 0028 304A     		ldr	r2, .L22+12
 265 002a 1370     		strb	r3, [r2]
 251:Generated_Source\PSoC5/cyfitter_cfg.c **** 	CY_SET_XTND_REG8((void CYFAR *)(CYREG_CLKDIST_DCFG4_CFG0 + 0x2u), 0x18u);
 266              		.loc 1 251 0
 267 002c 3321     		movs	r1, #51
 268 002e 0232     		adds	r2, r2, #2
 269 0030 1180     		strh	r1, [r2]	@ movhi
 252:Generated_Source\PSoC5/cyfitter_cfg.c **** 
 270              		.loc 1 252 0
 271 0032 0232     		adds	r2, r2, #2
 272 0034 1370     		strb	r3, [r2]
 255:Generated_Source\PSoC5/cyfitter_cfg.c **** 
 273              		.loc 1 255 0
 274 0036 0422     		movs	r2, #4
 275 0038 2D49     		ldr	r1, .L22+16
 276 003a 2E48     		ldr	r0, .L22+20
 277 003c FFF7FEFF 		bl	CYCONFIGCPY
 278              	.LVL19:
 258:Generated_Source\PSoC5/cyfitter_cfg.c **** 	CY_SET_XTND_REG8((void CYFAR *)(CYREG_CLKDIST_CR), 0x08u);
 279              		.loc 1 258 0
 280 0040 0222     		movs	r2, #2
 281 0042 2D4B     		ldr	r3, .L22+24
 282 0044 1A70     		strb	r2, [r3]
 259:Generated_Source\PSoC5/cyfitter_cfg.c **** 
ARM GAS  C:\Users\Runeg\AppData\Local\Temp\ccCxA2E3.s 			page 12


 283              		.loc 1 259 0
 284 0046 0822     		movs	r2, #8
 285 0048 4FF04023 		mov	r3, #1073758208
 286 004c 1A70     		strb	r2, [r3]
 262:Generated_Source\PSoC5/cyfitter_cfg.c **** 	CY_SET_XTND_REG8((void CYFAR *)(CYREG_IMO_TR1), (CY_GET_XTND_REG8((void CYFAR *)CYREG_FLSHID_CUST_
 287              		.loc 1 262 0
 288 004e 0321     		movs	r1, #3
 289 0050 03F50073 		add	r3, r3, #512
 290 0054 1970     		strb	r1, [r3]
 263:Generated_Source\PSoC5/cyfitter_cfg.c **** 
 291              		.loc 1 263 0
 292 0056 294B     		ldr	r3, .L22+28
 293 0058 1B78     		ldrb	r3, [r3]	@ zero_extendqisi2
 294 005a DBB2     		uxtb	r3, r3
 295 005c 2849     		ldr	r1, .L22+32
 296 005e 0B70     		strb	r3, [r1]
 266:Generated_Source\PSoC5/cyfitter_cfg.c **** 	CY_SET_XTND_REG16((void CYFAR *)(CYREG_FASTCLK_PLL_CFG0), 0x1251u);
 297              		.loc 1 266 0
 298 0060 284B     		ldr	r3, .L22+36
 299 0062 1A80     		strh	r2, [r3]	@ movhi
 267:Generated_Source\PSoC5/cyfitter_cfg.c **** 	/* Wait up to 250us for the PLL to lock */
 300              		.loc 1 267 0
 301 0064 41F25122 		movw	r2, #4689
 302 0068 023B     		subs	r3, r3, #2
 303 006a 1A80     		strh	r2, [r3]	@ movhi
 304              	.LVL20:
 269:Generated_Source\PSoC5/cyfitter_cfg.c **** 	for (timeout = 250u / 10u; (timeout > 0u) && (pllLock != 0x03u); timeout--)
 305              		.loc 1 269 0
 306 006c 0024     		movs	r4, #0
 270:Generated_Source\PSoC5/cyfitter_cfg.c **** 	{ 
 307              		.loc 1 270 0
 308 006e 1925     		movs	r5, #25
 309 0070 0CE0     		b	.L17
 310              	.LVL21:
 311              	.L19:
 272:Generated_Source\PSoC5/cyfitter_cfg.c **** 		CyDelayCycles(10u * 48u); /* Delay 10us based on 48MHz clock */
 312              		.loc 1 272 0 discriminator 4
 313 0072 254B     		ldr	r3, .L22+40
 314 0074 1B78     		ldrb	r3, [r3]	@ zero_extendqisi2
 315 0076 03F00103 		and	r3, r3, #1
 316 007a 43EA4404 		orr	r4, r3, r4, lsl #1
 317              	.LVL22:
 318 007e 04F00304 		and	r4, r4, #3
 319              	.LVL23:
 273:Generated_Source\PSoC5/cyfitter_cfg.c **** 	}
 320              		.loc 1 273 0 discriminator 4
 321 0082 4FF4F070 		mov	r0, #480
 322 0086 FFF7FEFF 		bl	CyDelayCycles
 323              	.LVL24:
 270:Generated_Source\PSoC5/cyfitter_cfg.c **** 	{ 
 324              		.loc 1 270 0 discriminator 4
 325 008a 013D     		subs	r5, r5, #1
 326              	.LVL25:
 327              	.L17:
 270:Generated_Source\PSoC5/cyfitter_cfg.c **** 	{ 
 328              		.loc 1 270 0 is_stmt 0 discriminator 1
 329 008c 0DB1     		cbz	r5, .L18
ARM GAS  C:\Users\Runeg\AppData\Local\Temp\ccCxA2E3.s 			page 13


 270:Generated_Source\PSoC5/cyfitter_cfg.c **** 	{ 
 330              		.loc 1 270 0 discriminator 3
 331 008e 032C     		cmp	r4, #3
 332 0090 EFD1     		bne	.L19
 333              	.L18:
 276:Generated_Source\PSoC5/cyfitter_cfg.c **** 	{
 334              		.loc 1 276 0 is_stmt 1
 335 0092 15B9     		cbnz	r5, .L20
 278:Generated_Source\PSoC5/cyfitter_cfg.c **** 	}
 336              		.loc 1 278 0
 337 0094 0320     		movs	r0, #3
 338 0096 FFF7FEFF 		bl	CyClockStartupError
 339              	.LVL26:
 340              	.L20:
 282:Generated_Source\PSoC5/cyfitter_cfg.c **** 	CY_SET_XTND_REG8((void CYFAR *)(CYREG_CLKDIST_MSTR0), 0x07u);
 341              		.loc 1 282 0
 342 009a 1C4B     		ldr	r3, .L22+44
 343 009c 4FF48072 		mov	r2, #256
 344 00a0 1A80     		strh	r2, [r3]	@ movhi
 283:Generated_Source\PSoC5/cyfitter_cfg.c **** 	CY_SET_XTND_REG8((void CYFAR *)(CYREG_CLKDIST_BCFG0), 0x00u);
 345              		.loc 1 283 0
 346 00a2 0722     		movs	r2, #7
 347 00a4 1A70     		strb	r2, [r3]
 284:Generated_Source\PSoC5/cyfitter_cfg.c **** 	CY_SET_XTND_REG8((void CYFAR *)(CYREG_CLKDIST_BCFG2), 0x48u);
 348              		.loc 1 284 0
 349 00a6 0022     		movs	r2, #0
 350 00a8 1949     		ldr	r1, .L22+48
 351 00aa 0A70     		strb	r2, [r1]
 285:Generated_Source\PSoC5/cyfitter_cfg.c **** 	CY_SET_XTND_REG8((void CYFAR *)(CYREG_CLKDIST_MSTR0), 0x00u);
 352              		.loc 1 285 0
 353 00ac 4820     		movs	r0, #72
 354 00ae 0231     		adds	r1, r1, #2
 355 00b0 0870     		strb	r0, [r1]
 286:Generated_Source\PSoC5/cyfitter_cfg.c **** 	CY_SET_XTND_REG8((void CYFAR *)(CYREG_CLKDIST_LD), 0x02u);
 356              		.loc 1 286 0
 357 00b2 1A70     		strb	r2, [r3]
 287:Generated_Source\PSoC5/cyfitter_cfg.c **** 	CY_SET_XTND_REG8((void CYFAR *)(CYREG_CLKDIST_DLY1), 0x04u);
 358              		.loc 1 287 0
 359 00b4 0222     		movs	r2, #2
 360 00b6 033B     		subs	r3, r3, #3
 361 00b8 1A70     		strb	r2, [r3]
 288:Generated_Source\PSoC5/cyfitter_cfg.c **** 
 362              		.loc 1 288 0
 363 00ba 0422     		movs	r2, #4
 364 00bc 0A33     		adds	r3, r3, #10
 365 00be 1A70     		strb	r2, [r3]
 290:Generated_Source\PSoC5/cyfitter_cfg.c **** 	CY_SET_XTND_REG8((void CYFAR *)(CYREG_PM_ACT_CFG1), ((CY_GET_XTND_REG8((void CYFAR *)CYREG_PM_ACT_
 366              		.loc 1 290 0
 367 00c0 144A     		ldr	r2, .L22+52
 368 00c2 1378     		ldrb	r3, [r2]	@ zero_extendqisi2
 369 00c4 43F01F03 		orr	r3, r3, #31
 370 00c8 1370     		strb	r3, [r2]
 291:Generated_Source\PSoC5/cyfitter_cfg.c **** 	CY_SET_XTND_REG8((void CYFAR *)(CYREG_PM_ACT_CFG0), ((CY_GET_XTND_REG8((void CYFAR *)CYREG_PM_ACT_
 371              		.loc 1 291 0
 372 00ca 013A     		subs	r2, r2, #1
 373 00cc 1378     		ldrb	r3, [r2]	@ zero_extendqisi2
 374 00ce 43F00103 		orr	r3, r3, #1
ARM GAS  C:\Users\Runeg\AppData\Local\Temp\ccCxA2E3.s 			page 14


 375 00d2 1370     		strb	r3, [r2]
 292:Generated_Source\PSoC5/cyfitter_cfg.c **** }
 376              		.loc 1 292 0
 377 00d4 013A     		subs	r2, r2, #1
 378 00d6 1378     		ldrb	r3, [r2]	@ zero_extendqisi2
 379 00d8 43F08003 		orr	r3, r3, #128
 380 00dc 1370     		strb	r3, [r2]
 381 00de 38BD     		pop	{r3, r4, r5, pc}
 382              	.LVL27:
 383              	.L23:
 384              		.align	2
 385              	.L22:
 386 00e0 80400040 		.word	1073758336
 387 00e4 82400040 		.word	1073758338
 388 00e8 84400040 		.word	1073758340
 389 00ec 8E400040 		.word	1073758350
 390 00f0 7C030048 		.word	1207960444
 391 00f4 00410040 		.word	1073758464
 392 00f8 00430040 		.word	1073758976
 393 00fc 08010049 		.word	1224737032
 394 0100 A1460040 		.word	1073759905
 395 0104 22420040 		.word	1073758754
 396 0108 25420040 		.word	1073758757
 397 010c 04400040 		.word	1073758212
 398 0110 06400040 		.word	1073758214
 399 0114 A2430040 		.word	1073759138
 400              		.cfi_endproc
 401              	.LFE5:
 402              		.size	ClockSetup, .-ClockSetup
 403              		.section	.text.SetAnalogRoutingPumps,"ax",%progbits
 404              		.align	2
 405              		.global	SetAnalogRoutingPumps
 406              		.thumb
 407              		.thumb_func
 408              		.type	SetAnalogRoutingPumps, %function
 409              	SetAnalogRoutingPumps:
 410              	.LFB7:
 325:Generated_Source\PSoC5/cyfitter_cfg.c **** }
 326:Generated_Source\PSoC5/cyfitter_cfg.c **** 
 327:Generated_Source\PSoC5/cyfitter_cfg.c **** 
 328:Generated_Source\PSoC5/cyfitter_cfg.c **** /*******************************************************************************
 329:Generated_Source\PSoC5/cyfitter_cfg.c **** * Function Name: SetAnalogRoutingPumps
 330:Generated_Source\PSoC5/cyfitter_cfg.c **** ********************************************************************************
 331:Generated_Source\PSoC5/cyfitter_cfg.c **** *
 332:Generated_Source\PSoC5/cyfitter_cfg.c **** * Summary:
 333:Generated_Source\PSoC5/cyfitter_cfg.c **** * Enables or disables the analog pumps feeding analog routing switches.
 334:Generated_Source\PSoC5/cyfitter_cfg.c **** * Intended to be called at startup, based on the Vdda system configuration;
 335:Generated_Source\PSoC5/cyfitter_cfg.c **** * may be called during operation when the user informs us that the Vdda voltage
 336:Generated_Source\PSoC5/cyfitter_cfg.c **** * crossed the pump threshold.
 337:Generated_Source\PSoC5/cyfitter_cfg.c **** *
 338:Generated_Source\PSoC5/cyfitter_cfg.c **** * Parameters:
 339:Generated_Source\PSoC5/cyfitter_cfg.c **** *  enabled - 1 to enable the pumps, 0 to disable the pumps
 340:Generated_Source\PSoC5/cyfitter_cfg.c **** *
 341:Generated_Source\PSoC5/cyfitter_cfg.c **** * Return:
 342:Generated_Source\PSoC5/cyfitter_cfg.c **** *  void
 343:Generated_Source\PSoC5/cyfitter_cfg.c **** *
 344:Generated_Source\PSoC5/cyfitter_cfg.c **** *******************************************************************************/
ARM GAS  C:\Users\Runeg\AppData\Local\Temp\ccCxA2E3.s 			page 15


 345:Generated_Source\PSoC5/cyfitter_cfg.c **** void SetAnalogRoutingPumps(uint8 enabled)
 346:Generated_Source\PSoC5/cyfitter_cfg.c **** {
 411              		.loc 1 346 0
 412              		.cfi_startproc
 413              		@ args = 0, pretend = 0, frame = 0
 414              		@ frame_needed = 0, uses_anonymous_args = 0
 415              		@ link register save eliminated.
 416              	.LVL28:
 347:Generated_Source\PSoC5/cyfitter_cfg.c **** 	uint8 regValue = CY_GET_XTND_REG8((void CYFAR *)CYREG_PUMP_CR0);
 417              		.loc 1 347 0
 418 0000 054B     		ldr	r3, .L27
 419 0002 1B78     		ldrb	r3, [r3]	@ zero_extendqisi2
 420 0004 DBB2     		uxtb	r3, r3
 421              	.LVL29:
 348:Generated_Source\PSoC5/cyfitter_cfg.c **** 	if (enabled != 0u)
 422              		.loc 1 348 0
 423 0006 10B1     		cbz	r0, .L25
 349:Generated_Source\PSoC5/cyfitter_cfg.c **** 	{
 350:Generated_Source\PSoC5/cyfitter_cfg.c **** 		regValue |= 0x22u;
 424              		.loc 1 350 0
 425 0008 43F02203 		orr	r3, r3, #34
 426              	.LVL30:
 427 000c 01E0     		b	.L26
 428              	.L25:
 351:Generated_Source\PSoC5/cyfitter_cfg.c **** 	}
 352:Generated_Source\PSoC5/cyfitter_cfg.c **** 	else
 353:Generated_Source\PSoC5/cyfitter_cfg.c **** 	{
 354:Generated_Source\PSoC5/cyfitter_cfg.c **** 		regValue &= (uint8)~0x22u;
 429              		.loc 1 354 0
 430 000e 03F0DD03 		and	r3, r3, #221
 431              	.LVL31:
 432              	.L26:
 355:Generated_Source\PSoC5/cyfitter_cfg.c **** 	}
 356:Generated_Source\PSoC5/cyfitter_cfg.c **** 	CY_SET_XTND_REG8((void CYFAR *)CYREG_PUMP_CR0, regValue);
 433              		.loc 1 356 0
 434 0012 014A     		ldr	r2, .L27
 435 0014 1370     		strb	r3, [r2]
 436 0016 7047     		bx	lr
 437              	.L28:
 438              		.align	2
 439              	.L27:
 440 0018 76580040 		.word	1073764470
 441              		.cfi_endproc
 442              	.LFE7:
 443              		.size	SetAnalogRoutingPumps, .-SetAnalogRoutingPumps
 444              		.section	.text.AMux_Set,"ax",%progbits
 445              		.align	2
 446              		.global	AMux_Set
 447              		.thumb
 448              		.thumb_func
 449              		.type	AMux_Set, %function
 450              	AMux_Set:
 451              	.LFB8:
 357:Generated_Source\PSoC5/cyfitter_cfg.c **** }
 358:Generated_Source\PSoC5/cyfitter_cfg.c **** 
 359:Generated_Source\PSoC5/cyfitter_cfg.c **** 
 360:Generated_Source\PSoC5/cyfitter_cfg.c **** #define CY_AMUX_UNUSED CYREG_BOOST_SR
ARM GAS  C:\Users\Runeg\AppData\Local\Temp\ccCxA2E3.s 			page 16


 361:Generated_Source\PSoC5/cyfitter_cfg.c **** /* This is an implementation detail of the AMux. Code that depends on it may be
 362:Generated_Source\PSoC5/cyfitter_cfg.c ****    incompatible with other versions of PSoC Creator. */
 363:Generated_Source\PSoC5/cyfitter_cfg.c **** uint8 CYXDATA * const CYCODE AMux__addrTable[6] = {
 364:Generated_Source\PSoC5/cyfitter_cfg.c **** 	(uint8 CYXDATA *)CYREG_PRT2_AG, (uint8 CYXDATA *)CYREG_DSM0_SW0, 
 365:Generated_Source\PSoC5/cyfitter_cfg.c **** 	(uint8 CYXDATA *)CYREG_PRT2_AG, (uint8 CYXDATA *)CY_AMUX_UNUSED, 
 366:Generated_Source\PSoC5/cyfitter_cfg.c **** 	(uint8 CYXDATA *)CYREG_PRT2_AG, (uint8 CYXDATA *)CYREG_SAR1_SW0, 
 367:Generated_Source\PSoC5/cyfitter_cfg.c **** };
 368:Generated_Source\PSoC5/cyfitter_cfg.c **** 
 369:Generated_Source\PSoC5/cyfitter_cfg.c **** /* This is an implementation detail of the AMux. Code that depends on it may be
 370:Generated_Source\PSoC5/cyfitter_cfg.c ****    incompatible with other versions of PSoC Creator. */
 371:Generated_Source\PSoC5/cyfitter_cfg.c **** const uint8 CYCODE AMux__maskTable[6] = {
 372:Generated_Source\PSoC5/cyfitter_cfg.c **** 	0x01u, 0x02u, 
 373:Generated_Source\PSoC5/cyfitter_cfg.c **** 	0x02u, 0x00u, 
 374:Generated_Source\PSoC5/cyfitter_cfg.c **** 	0x04u, 0x04u, 
 375:Generated_Source\PSoC5/cyfitter_cfg.c **** };
 376:Generated_Source\PSoC5/cyfitter_cfg.c **** 
 377:Generated_Source\PSoC5/cyfitter_cfg.c **** /*******************************************************************************
 378:Generated_Source\PSoC5/cyfitter_cfg.c **** * Function Name: AMux_Set
 379:Generated_Source\PSoC5/cyfitter_cfg.c **** ********************************************************************************
 380:Generated_Source\PSoC5/cyfitter_cfg.c **** * Summary:
 381:Generated_Source\PSoC5/cyfitter_cfg.c **** *  This function is used to set a particular channel as active on the AMux.
 382:Generated_Source\PSoC5/cyfitter_cfg.c **** *
 383:Generated_Source\PSoC5/cyfitter_cfg.c **** * Parameters:  
 384:Generated_Source\PSoC5/cyfitter_cfg.c **** *   channel - The mux channel input to set as active
 385:Generated_Source\PSoC5/cyfitter_cfg.c **** *
 386:Generated_Source\PSoC5/cyfitter_cfg.c **** * Return:
 387:Generated_Source\PSoC5/cyfitter_cfg.c **** *   void
 388:Generated_Source\PSoC5/cyfitter_cfg.c **** *
 389:Generated_Source\PSoC5/cyfitter_cfg.c **** *******************************************************************************/
 390:Generated_Source\PSoC5/cyfitter_cfg.c **** void AMux_Set(uint8 channel)
 391:Generated_Source\PSoC5/cyfitter_cfg.c **** {
 452              		.loc 1 391 0
 453              		.cfi_startproc
 454              		@ args = 0, pretend = 0, frame = 0
 455              		@ frame_needed = 0, uses_anonymous_args = 0
 456              		@ link register save eliminated.
 457              	.LVL32:
 392:Generated_Source\PSoC5/cyfitter_cfg.c **** 	if (channel < 3)
 458              		.loc 1 392 0
 459 0000 0228     		cmp	r0, #2
 460 0002 14D8     		bhi	.L33
 391:Generated_Source\PSoC5/cyfitter_cfg.c **** 	if (channel < 3)
 461              		.loc 1 391 0
 462 0004 10B4     		push	{r4}
 463              		.cfi_def_cfa_offset 4
 464              		.cfi_offset 4, -4
 393:Generated_Source\PSoC5/cyfitter_cfg.c **** 	{
 394:Generated_Source\PSoC5/cyfitter_cfg.c **** 		channel += channel;
 465              		.loc 1 394 0
 466 0006 4000     		lsls	r0, r0, #1
 467              	.LVL33:
 468 0008 C0B2     		uxtb	r0, r0
 469              	.LVL34:
 395:Generated_Source\PSoC5/cyfitter_cfg.c **** 		*AMux__addrTable[channel] |= AMux__maskTable[channel];
 470              		.loc 1 395 0
 471 000a 094B     		ldr	r3, .L34
 472 000c 53F82010 		ldr	r1, [r3, r0, lsl #2]
ARM GAS  C:\Users\Runeg\AppData\Local\Temp\ccCxA2E3.s 			page 17


 473 0010 1A18     		adds	r2, r3, r0
 474 0012 147E     		ldrb	r4, [r2, #24]	@ zero_extendqisi2
 475 0014 0A78     		ldrb	r2, [r1]	@ zero_extendqisi2
 476 0016 2243     		orrs	r2, r2, r4
 477 0018 0A70     		strb	r2, [r1]
 396:Generated_Source\PSoC5/cyfitter_cfg.c **** 		channel++;
 478              		.loc 1 396 0
 479 001a 0130     		adds	r0, r0, #1
 480              	.LVL35:
 481 001c C0B2     		uxtb	r0, r0
 482              	.LVL36:
 397:Generated_Source\PSoC5/cyfitter_cfg.c **** 		*AMux__addrTable[channel] |= AMux__maskTable[channel];
 483              		.loc 1 397 0
 484 001e 53F82020 		ldr	r2, [r3, r0, lsl #2]
 485 0022 1844     		add	r0, r0, r3
 486              	.LVL37:
 487 0024 017E     		ldrb	r1, [r0, #24]	@ zero_extendqisi2
 488 0026 1378     		ldrb	r3, [r2]	@ zero_extendqisi2
 489 0028 0B43     		orrs	r3, r3, r1
 490 002a 1370     		strb	r3, [r2]
 398:Generated_Source\PSoC5/cyfitter_cfg.c **** 	}
 399:Generated_Source\PSoC5/cyfitter_cfg.c **** }
 491              		.loc 1 399 0
 492 002c 10BC     		pop	{r4}
 493              		.cfi_restore 4
 494              		.cfi_def_cfa_offset 0
 495              	.LVL38:
 496              	.L33:
 497 002e 7047     		bx	lr
 498              	.L35:
 499              		.align	2
 500              	.L34:
 501 0030 00000000 		.word	.LANCHOR0
 502              		.cfi_endproc
 503              	.LFE8:
 504              		.size	AMux_Set, .-AMux_Set
 505              		.section	.text.AMux_Unset,"ax",%progbits
 506              		.align	2
 507              		.global	AMux_Unset
 508              		.thumb
 509              		.thumb_func
 510              		.type	AMux_Unset, %function
 511              	AMux_Unset:
 512              	.LFB9:
 400:Generated_Source\PSoC5/cyfitter_cfg.c **** 
 401:Generated_Source\PSoC5/cyfitter_cfg.c **** /*******************************************************************************
 402:Generated_Source\PSoC5/cyfitter_cfg.c **** * Function Name: AMux_Unset
 403:Generated_Source\PSoC5/cyfitter_cfg.c **** ********************************************************************************
 404:Generated_Source\PSoC5/cyfitter_cfg.c **** * Summary:
 405:Generated_Source\PSoC5/cyfitter_cfg.c **** *  This function is used to clear a particular channel from being active on the
 406:Generated_Source\PSoC5/cyfitter_cfg.c **** *  AMux.
 407:Generated_Source\PSoC5/cyfitter_cfg.c **** *
 408:Generated_Source\PSoC5/cyfitter_cfg.c **** * Parameters:  
 409:Generated_Source\PSoC5/cyfitter_cfg.c **** *   channel - The mux channel input to mark inactive
 410:Generated_Source\PSoC5/cyfitter_cfg.c **** *
 411:Generated_Source\PSoC5/cyfitter_cfg.c **** * Return:
 412:Generated_Source\PSoC5/cyfitter_cfg.c **** *   void
ARM GAS  C:\Users\Runeg\AppData\Local\Temp\ccCxA2E3.s 			page 18


 413:Generated_Source\PSoC5/cyfitter_cfg.c **** *
 414:Generated_Source\PSoC5/cyfitter_cfg.c **** *******************************************************************************/
 415:Generated_Source\PSoC5/cyfitter_cfg.c **** void AMux_Unset(uint8 channel)
 416:Generated_Source\PSoC5/cyfitter_cfg.c **** {
 513              		.loc 1 416 0
 514              		.cfi_startproc
 515              		@ args = 0, pretend = 0, frame = 0
 516              		@ frame_needed = 0, uses_anonymous_args = 0
 517              		@ link register save eliminated.
 518              	.LVL39:
 417:Generated_Source\PSoC5/cyfitter_cfg.c **** 	if (channel < 3)
 519              		.loc 1 417 0
 520 0000 0228     		cmp	r0, #2
 521 0002 16D8     		bhi	.L40
 416:Generated_Source\PSoC5/cyfitter_cfg.c **** 	if (channel < 3)
 522              		.loc 1 416 0
 523 0004 10B4     		push	{r4}
 524              		.cfi_def_cfa_offset 4
 525              		.cfi_offset 4, -4
 418:Generated_Source\PSoC5/cyfitter_cfg.c **** 	{
 419:Generated_Source\PSoC5/cyfitter_cfg.c **** 		channel += channel;
 526              		.loc 1 419 0
 527 0006 4000     		lsls	r0, r0, #1
 528              	.LVL40:
 529 0008 C0B2     		uxtb	r0, r0
 530              	.LVL41:
 420:Generated_Source\PSoC5/cyfitter_cfg.c **** 		*AMux__addrTable[channel] &= (uint8)~AMux__maskTable[channel];
 531              		.loc 1 420 0
 532 000a 0A4B     		ldr	r3, .L41
 533 000c 53F82010 		ldr	r1, [r3, r0, lsl #2]
 534 0010 1A18     		adds	r2, r3, r0
 535 0012 147E     		ldrb	r4, [r2, #24]	@ zero_extendqisi2
 536 0014 0A78     		ldrb	r2, [r1]	@ zero_extendqisi2
 537 0016 22EA0402 		bic	r2, r2, r4
 538 001a 0A70     		strb	r2, [r1]
 421:Generated_Source\PSoC5/cyfitter_cfg.c **** 		channel++;
 539              		.loc 1 421 0
 540 001c 0130     		adds	r0, r0, #1
 541              	.LVL42:
 542 001e C0B2     		uxtb	r0, r0
 543              	.LVL43:
 422:Generated_Source\PSoC5/cyfitter_cfg.c **** 		*AMux__addrTable[channel] &= (uint8)~AMux__maskTable[channel];
 544              		.loc 1 422 0
 545 0020 53F82020 		ldr	r2, [r3, r0, lsl #2]
 546 0024 1844     		add	r0, r0, r3
 547              	.LVL44:
 548 0026 017E     		ldrb	r1, [r0, #24]	@ zero_extendqisi2
 549 0028 1378     		ldrb	r3, [r2]	@ zero_extendqisi2
 550 002a 23EA0103 		bic	r3, r3, r1
 551 002e 1370     		strb	r3, [r2]
 423:Generated_Source\PSoC5/cyfitter_cfg.c **** 	}
 424:Generated_Source\PSoC5/cyfitter_cfg.c **** }
 552              		.loc 1 424 0
 553 0030 10BC     		pop	{r4}
 554              		.cfi_restore 4
 555              		.cfi_def_cfa_offset 0
 556              	.LVL45:
ARM GAS  C:\Users\Runeg\AppData\Local\Temp\ccCxA2E3.s 			page 19


 557              	.L40:
 558 0032 7047     		bx	lr
 559              	.L42:
 560              		.align	2
 561              	.L41:
 562 0034 00000000 		.word	.LANCHOR0
 563              		.cfi_endproc
 564              	.LFE9:
 565              		.size	AMux_Unset, .-AMux_Unset
 566              		.section	.text.cyfitter_cfg,"ax",%progbits
 567              		.align	2
 568              		.global	cyfitter_cfg
 569              		.thumb
 570              		.thumb_func
 571              		.type	cyfitter_cfg, %function
 572              	cyfitter_cfg:
 573              	.LFB10:
 425:Generated_Source\PSoC5/cyfitter_cfg.c **** 
 426:Generated_Source\PSoC5/cyfitter_cfg.c **** 
 427:Generated_Source\PSoC5/cyfitter_cfg.c **** 
 428:Generated_Source\PSoC5/cyfitter_cfg.c **** /*******************************************************************************
 429:Generated_Source\PSoC5/cyfitter_cfg.c **** * Function Name: cyfitter_cfg
 430:Generated_Source\PSoC5/cyfitter_cfg.c **** ********************************************************************************
 431:Generated_Source\PSoC5/cyfitter_cfg.c **** * Summary:
 432:Generated_Source\PSoC5/cyfitter_cfg.c **** *  This function is called by the start-up code for the selected device. It
 433:Generated_Source\PSoC5/cyfitter_cfg.c **** *  performs all of the necessary device configuration based on the design
 434:Generated_Source\PSoC5/cyfitter_cfg.c **** *  settings.  This includes settings from the Design Wide Resources (DWR) such
 435:Generated_Source\PSoC5/cyfitter_cfg.c **** *  as Clocks and Pins as well as any component configuration that is necessary.
 436:Generated_Source\PSoC5/cyfitter_cfg.c **** *
 437:Generated_Source\PSoC5/cyfitter_cfg.c **** * Parameters:
 438:Generated_Source\PSoC5/cyfitter_cfg.c **** *   void
 439:Generated_Source\PSoC5/cyfitter_cfg.c **** *
 440:Generated_Source\PSoC5/cyfitter_cfg.c **** * Return:
 441:Generated_Source\PSoC5/cyfitter_cfg.c **** *   void
 442:Generated_Source\PSoC5/cyfitter_cfg.c **** *
 443:Generated_Source\PSoC5/cyfitter_cfg.c **** *******************************************************************************/
 444:Generated_Source\PSoC5/cyfitter_cfg.c **** 
 445:Generated_Source\PSoC5/cyfitter_cfg.c **** void cyfitter_cfg(void)
 446:Generated_Source\PSoC5/cyfitter_cfg.c **** {
 574              		.loc 1 446 0
 575              		.cfi_startproc
 576              		@ args = 0, pretend = 0, frame = 0
 577              		@ frame_needed = 0, uses_anonymous_args = 0
 578 0000 38B5     		push	{r3, r4, r5, lr}
 579              		.cfi_def_cfa_offset 16
 580              		.cfi_offset 3, -16
 581              		.cfi_offset 4, -12
 582              		.cfi_offset 5, -8
 583              		.cfi_offset 14, -4
 447:Generated_Source\PSoC5/cyfitter_cfg.c **** #ifdef CYGlobalIntDisable
 448:Generated_Source\PSoC5/cyfitter_cfg.c **** 	/* Disable interrupts by default. Let user enable if/when they want. */
 449:Generated_Source\PSoC5/cyfitter_cfg.c **** 	CYGlobalIntDisable
 584              		.loc 1 449 0
 585              		.syntax unified
 586              	@ 449 "Generated_Source\PSoC5\cyfitter_cfg.c" 1
 587 0002 72B6     		CPSID   i
 588              	@ 0 "" 2
ARM GAS  C:\Users\Runeg\AppData\Local\Temp\ccCxA2E3.s 			page 20


 450:Generated_Source\PSoC5/cyfitter_cfg.c **** #endif
 451:Generated_Source\PSoC5/cyfitter_cfg.c **** 
 452:Generated_Source\PSoC5/cyfitter_cfg.c **** 	/* Enable/Disable Debug functionality based on settings from System DWR */
 453:Generated_Source\PSoC5/cyfitter_cfg.c **** 	CY_SET_XTND_REG8((void CYFAR *)CYREG_MLOGIC_DEBUG, (CY_GET_XTND_REG8((void CYFAR *)CYREG_MLOGIC_DE
 589              		.loc 1 453 0
 590              		.thumb
 591              		.syntax unified
 592 0004 384A     		ldr	r2, .L49
 593 0006 1378     		ldrb	r3, [r2]	@ zero_extendqisi2
 594 0008 43F00403 		orr	r3, r3, #4
 595 000c 1370     		strb	r3, [r2]
 596              	.LVL46:
 597              	.LBB3:
 454:Generated_Source\PSoC5/cyfitter_cfg.c **** 
 455:Generated_Source\PSoC5/cyfitter_cfg.c **** 	{
 456:Generated_Source\PSoC5/cyfitter_cfg.c **** 
 457:Generated_Source\PSoC5/cyfitter_cfg.c **** 		CYPACKED typedef struct {
 458:Generated_Source\PSoC5/cyfitter_cfg.c **** 			void CYFAR *address;
 459:Generated_Source\PSoC5/cyfitter_cfg.c **** 			uint16 size;
 460:Generated_Source\PSoC5/cyfitter_cfg.c **** 		} CYPACKED_ATTR cfg_memset_t;
 461:Generated_Source\PSoC5/cyfitter_cfg.c **** 
 462:Generated_Source\PSoC5/cyfitter_cfg.c **** 
 463:Generated_Source\PSoC5/cyfitter_cfg.c **** 		CYPACKED typedef struct {
 464:Generated_Source\PSoC5/cyfitter_cfg.c **** 			void CYFAR *dest;
 465:Generated_Source\PSoC5/cyfitter_cfg.c **** 			const void CYFAR *src;
 466:Generated_Source\PSoC5/cyfitter_cfg.c **** 			uint16 size;
 467:Generated_Source\PSoC5/cyfitter_cfg.c **** 		} CYPACKED_ATTR cfg_memcpy_t;
 468:Generated_Source\PSoC5/cyfitter_cfg.c **** 
 469:Generated_Source\PSoC5/cyfitter_cfg.c **** 		static const cfg_memset_t CYCODE cfg_memset_list[] = {
 470:Generated_Source\PSoC5/cyfitter_cfg.c **** 			/* address, size */
 471:Generated_Source\PSoC5/cyfitter_cfg.c **** 			{(void CYFAR *)(CYREG_TMR0_CFG0), 48u},
 472:Generated_Source\PSoC5/cyfitter_cfg.c **** 			{(void CYFAR *)(CYREG_PRT4_DR), 48u},
 473:Generated_Source\PSoC5/cyfitter_cfg.c **** 			{(void CYFAR *)(CYREG_PRT15_DR), 16u},
 474:Generated_Source\PSoC5/cyfitter_cfg.c **** 			{(void CYFAR *)(CYDEV_UCFG_B0_P0_U0_BASE), 4096u},
 475:Generated_Source\PSoC5/cyfitter_cfg.c **** 			{(void CYFAR *)(CYDEV_UCFG_B1_P2_U0_BASE), 1536u},
 476:Generated_Source\PSoC5/cyfitter_cfg.c **** 			{(void CYFAR *)(CYDEV_UCFG_B1_P5_U1_BASE), 384u},
 477:Generated_Source\PSoC5/cyfitter_cfg.c **** 			{(void CYFAR *)(CYDEV_UCFG_DSI0_BASE), 2560u},
 478:Generated_Source\PSoC5/cyfitter_cfg.c **** 			{(void CYFAR *)(CYDEV_UCFG_DSI12_BASE), 512u},
 479:Generated_Source\PSoC5/cyfitter_cfg.c **** 			{(void CYFAR *)(CYREG_BCTL0_MDCLK_EN), 32u},
 480:Generated_Source\PSoC5/cyfitter_cfg.c **** 		};
 481:Generated_Source\PSoC5/cyfitter_cfg.c **** 
 482:Generated_Source\PSoC5/cyfitter_cfg.c **** 		static const cfg_memcpy_t CYCODE cfg_memcpy_list [] = {
 483:Generated_Source\PSoC5/cyfitter_cfg.c **** 			/* dest, src, size */
 484:Generated_Source\PSoC5/cyfitter_cfg.c **** 			{(void CYFAR *)(CYDEV_PRTDSI_PRT12_BASE), BS_IOPORT_7_VAL, 6u},
 485:Generated_Source\PSoC5/cyfitter_cfg.c **** 			{(void CYFAR *)(CYDEV_UCFG_B1_P5_U0_BASE), BS_UDB_0_0_0_CONFIG_VAL, 128u},
 486:Generated_Source\PSoC5/cyfitter_cfg.c **** 		};
 487:Generated_Source\PSoC5/cyfitter_cfg.c **** 
 488:Generated_Source\PSoC5/cyfitter_cfg.c **** 		uint8 CYDATA i;
 489:Generated_Source\PSoC5/cyfitter_cfg.c **** 
 490:Generated_Source\PSoC5/cyfitter_cfg.c **** 		/* Zero out critical memory blocks before beginning configuration */
 491:Generated_Source\PSoC5/cyfitter_cfg.c **** 		for (i = 0u; i < (sizeof(cfg_memset_list)/sizeof(cfg_memset_list[0])); i++)
 598              		.loc 1 491 0
 599 000e 0024     		movs	r4, #0
 600 0010 0BE0     		b	.L44
 601              	.LVL47:
 602              	.L45:
 603              	.LBB4:
ARM GAS  C:\Users\Runeg\AppData\Local\Temp\ccCxA2E3.s 			page 21


 492:Generated_Source\PSoC5/cyfitter_cfg.c **** 		{
 493:Generated_Source\PSoC5/cyfitter_cfg.c **** 			const cfg_memset_t CYCODE * CYDATA ms = &cfg_memset_list[i];
 494:Generated_Source\PSoC5/cyfitter_cfg.c **** 			CYMEMZERO(ms->address, (size_t)(uint32)(ms->size));
 604              		.loc 1 494 0 discriminator 3
 605 0012 3648     		ldr	r0, .L49+4
 606 0014 6300     		lsls	r3, r4, #1
 607 0016 1A19     		adds	r2, r3, r4
 608 0018 5100     		lsls	r1, r2, #1
 609 001a 0144     		add	r1, r1, r0
 610 001c 0A46     		mov	r2, r1
 611 001e 898C     		ldrh	r1, [r1, #36]
 612 0020 106A     		ldr	r0, [r2, #32]	@ unaligned
 613 0022 FFF7FEFF 		bl	CYMEMZERO
 614              	.LVL48:
 615              	.LBE4:
 491:Generated_Source\PSoC5/cyfitter_cfg.c **** 		{
 616              		.loc 1 491 0 discriminator 3
 617 0026 0134     		adds	r4, r4, #1
 618              	.LVL49:
 619 0028 E4B2     		uxtb	r4, r4
 620              	.LVL50:
 621              	.L44:
 491:Generated_Source\PSoC5/cyfitter_cfg.c **** 		{
 622              		.loc 1 491 0 is_stmt 0 discriminator 1
 623 002a 082C     		cmp	r4, #8
 624 002c F1D9     		bls	.L45
 625 002e 0024     		movs	r4, #0
 626              	.LVL51:
 627 0030 0CE0     		b	.L46
 628              	.LVL52:
 629              	.L47:
 630              	.LBB5:
 495:Generated_Source\PSoC5/cyfitter_cfg.c **** 		}
 496:Generated_Source\PSoC5/cyfitter_cfg.c **** 
 497:Generated_Source\PSoC5/cyfitter_cfg.c **** 		/* Copy device configuration data into registers */
 498:Generated_Source\PSoC5/cyfitter_cfg.c **** 		for (i = 0u; i < (sizeof(cfg_memcpy_list)/sizeof(cfg_memcpy_list[0])); i++)
 499:Generated_Source\PSoC5/cyfitter_cfg.c **** 		{
 500:Generated_Source\PSoC5/cyfitter_cfg.c **** 			const cfg_memcpy_t CYCODE * CYDATA mc = &cfg_memcpy_list[i];
 501:Generated_Source\PSoC5/cyfitter_cfg.c **** 			void * CYDATA destPtr = mc->dest;
 631              		.loc 1 501 0 is_stmt 1 discriminator 3
 632 0032 2E48     		ldr	r0, .L49+4
 633 0034 A200     		lsls	r2, r4, #2
 634 0036 1119     		adds	r1, r2, r4
 635 0038 4B00     		lsls	r3, r1, #1
 636 003a 0344     		add	r3, r3, r0
 637              	.LVL53:
 502:Generated_Source\PSoC5/cyfitter_cfg.c **** 			const void * CYDATA srcPtr = mc->src;
 503:Generated_Source\PSoC5/cyfitter_cfg.c **** 			uint16 CYDATA numBytes = mc->size;
 504:Generated_Source\PSoC5/cyfitter_cfg.c **** 			CYCONFIGCPY(destPtr, srcPtr, numBytes);
 638              		.loc 1 504 0 discriminator 3
 639 003c B3F86020 		ldrh	r2, [r3, #96]
 640 0040 D96D     		ldr	r1, [r3, #92]	@ unaligned
 641              	.LVL54:
 642 0042 986D     		ldr	r0, [r3, #88]	@ unaligned
 643              	.LVL55:
 644 0044 FFF7FEFF 		bl	CYCONFIGCPY
 645              	.LVL56:
ARM GAS  C:\Users\Runeg\AppData\Local\Temp\ccCxA2E3.s 			page 22


 646              	.LBE5:
 498:Generated_Source\PSoC5/cyfitter_cfg.c **** 		{
 647              		.loc 1 498 0 discriminator 3
 648 0048 0134     		adds	r4, r4, #1
 649              	.LVL57:
 650 004a E4B2     		uxtb	r4, r4
 651              	.LVL58:
 652              	.L46:
 498:Generated_Source\PSoC5/cyfitter_cfg.c **** 		{
 653              		.loc 1 498 0 is_stmt 0 discriminator 1
 654 004c 012C     		cmp	r4, #1
 655 004e F0D9     		bls	.L47
 505:Generated_Source\PSoC5/cyfitter_cfg.c **** 		}
 506:Generated_Source\PSoC5/cyfitter_cfg.c **** 
 507:Generated_Source\PSoC5/cyfitter_cfg.c **** 		cfg_write_bytes32(cy_cfg_addr_table, cy_cfg_data_table);
 656              		.loc 1 507 0 is_stmt 1
 657 0050 2749     		ldr	r1, .L49+8
 658 0052 4FF09040 		mov	r0, #1207959552
 659 0056 FFF7FEFF 		bl	cfg_write_bytes32
 660              	.LVL59:
 508:Generated_Source\PSoC5/cyfitter_cfg.c **** 
 509:Generated_Source\PSoC5/cyfitter_cfg.c **** 		/* Enable digital routing */
 510:Generated_Source\PSoC5/cyfitter_cfg.c **** 		CY_SET_XTND_REG8((void CYFAR *)CYREG_BCTL0_BANK_CTL, CY_GET_XTND_REG8((void CYFAR *)CYREG_BCTL0_B
 661              		.loc 1 510 0
 662 005a 264A     		ldr	r2, .L49+12
 663 005c 1378     		ldrb	r3, [r2]	@ zero_extendqisi2
 664 005e 43F00203 		orr	r3, r3, #2
 665 0062 1370     		strb	r3, [r2]
 511:Generated_Source\PSoC5/cyfitter_cfg.c **** 		CY_SET_XTND_REG8((void CYFAR *)CYREG_BCTL1_BANK_CTL, CY_GET_XTND_REG8((void CYFAR *)CYREG_BCTL1_B
 666              		.loc 1 511 0
 667 0064 1032     		adds	r2, r2, #16
 668 0066 1378     		ldrb	r3, [r2]	@ zero_extendqisi2
 669 0068 43F00203 		orr	r3, r3, #2
 670 006c 1370     		strb	r3, [r2]
 512:Generated_Source\PSoC5/cyfitter_cfg.c **** 
 513:Generated_Source\PSoC5/cyfitter_cfg.c **** 		/* Enable UDB array */
 514:Generated_Source\PSoC5/cyfitter_cfg.c **** 		CY_SET_XTND_REG8((void CYFAR *)CYREG_PM_ACT_CFG0, CY_GET_XTND_REG8((void CYFAR *)CYREG_PM_ACT_CFG
 671              		.loc 1 514 0
 672 006e 224C     		ldr	r4, .L49+16
 673              	.LVL60:
 674 0070 2378     		ldrb	r3, [r4]	@ zero_extendqisi2
 675 0072 43F04003 		orr	r3, r3, #64
 676 0076 2370     		strb	r3, [r4]
 515:Generated_Source\PSoC5/cyfitter_cfg.c **** 		CY_SET_XTND_REG8((void CYFAR *)CYREG_PM_AVAIL_CR2, CY_GET_XTND_REG8((void CYFAR *)CYREG_PM_AVAIL_
 677              		.loc 1 515 0
 678 0078 A2F58632 		sub	r2, r2, #68608
 679 007c 513A     		subs	r2, r2, #81
 680 007e 1378     		ldrb	r3, [r2]	@ zero_extendqisi2
 681 0080 43F01003 		orr	r3, r3, #16
 682 0084 1370     		strb	r3, [r2]
 683              	.LBE3:
 516:Generated_Source\PSoC5/cyfitter_cfg.c **** 	}
 517:Generated_Source\PSoC5/cyfitter_cfg.c **** 
 518:Generated_Source\PSoC5/cyfitter_cfg.c **** 
 519:Generated_Source\PSoC5/cyfitter_cfg.c **** 	/* Perform second pass device configuration. These items must be configured in specific order afte
 520:Generated_Source\PSoC5/cyfitter_cfg.c **** 	CYCONFIGCPY((void CYFAR *)(CYREG_PRT0_DM0), (const void CYFAR *)(BS_IOPINS0_0_VAL), 8u);
 684              		.loc 1 520 0
ARM GAS  C:\Users\Runeg\AppData\Local\Temp\ccCxA2E3.s 			page 23


 685 0086 0822     		movs	r2, #8
 686 0088 1C49     		ldr	r1, .L49+20
 687 008a 1D48     		ldr	r0, .L49+24
 688 008c FFF7FEFF 		bl	CYCONFIGCPY
 689              	.LVL61:
 521:Generated_Source\PSoC5/cyfitter_cfg.c **** 	CYCONFIGCPY((void CYFAR *)(CYREG_PRT12_DR), (const void CYFAR *)(BS_IOPINS0_7_VAL), 10u);
 690              		.loc 1 521 0
 691 0090 0A22     		movs	r2, #10
 692 0092 1C49     		ldr	r1, .L49+28
 693 0094 1C48     		ldr	r0, .L49+32
 694 0096 FFF7FEFF 		bl	CYCONFIGCPY
 695              	.LVL62:
 522:Generated_Source\PSoC5/cyfitter_cfg.c **** 	CYCONFIGCPY((void CYFAR *)(CYREG_PRT1_DM0), (const void CYFAR *)(BS_IOPINS0_1_VAL), 8u);
 696              		.loc 1 522 0
 697 009a 0822     		movs	r2, #8
 698 009c 1B49     		ldr	r1, .L49+36
 699 009e 1C48     		ldr	r0, .L49+40
 700 00a0 FFF7FEFF 		bl	CYCONFIGCPY
 701              	.LVL63:
 523:Generated_Source\PSoC5/cyfitter_cfg.c **** 	CYCONFIGCPY((void CYFAR *)(CYREG_PRT2_DM0), (const void CYFAR *)(BS_IOPINS0_2_VAL), 8u);
 702              		.loc 1 523 0
 703 00a4 0822     		movs	r2, #8
 704 00a6 1B49     		ldr	r1, .L49+44
 705 00a8 1B48     		ldr	r0, .L49+48
 706 00aa FFF7FEFF 		bl	CYCONFIGCPY
 707              	.LVL64:
 524:Generated_Source\PSoC5/cyfitter_cfg.c **** 	CYCONFIGCPY((void CYFAR *)(CYREG_PRT3_DM0), (const void CYFAR *)(BS_IOPINS0_3_VAL), 8u);
 708              		.loc 1 524 0
 709 00ae 0822     		movs	r2, #8
 710 00b0 1A49     		ldr	r1, .L49+52
 711 00b2 1B48     		ldr	r0, .L49+56
 712 00b4 FFF7FEFF 		bl	CYCONFIGCPY
 713              	.LVL65:
 525:Generated_Source\PSoC5/cyfitter_cfg.c **** 	/* Switch Boost to the precision bandgap reference from its internal reference */
 526:Generated_Source\PSoC5/cyfitter_cfg.c **** 	CY_SET_REG8((void CYXDATA *)CYREG_BOOST_CR2, (CY_GET_REG8((void CYXDATA *)CYREG_BOOST_CR2) | 0x08u
 714              		.loc 1 526 0
 715 00b8 1A4A     		ldr	r2, .L49+60
 716 00ba 1378     		ldrb	r3, [r2]	@ zero_extendqisi2
 717 00bc 43F00803 		orr	r3, r3, #8
 718 00c0 1370     		strb	r3, [r2]
 527:Generated_Source\PSoC5/cyfitter_cfg.c **** 
 528:Generated_Source\PSoC5/cyfitter_cfg.c **** 	/* Set Flash Cycles based on max possible frequency in case a glitch occurs during ClockSetup(). *
 529:Generated_Source\PSoC5/cyfitter_cfg.c **** 	CY_SET_XTND_REG8((void CYFAR *)(CYREG_CACHE_CC_CTL), (((CYDEV_INSTRUCT_CACHE_ENABLED) != 0) ? 0x61
 719              		.loc 1 529 0
 720 00c2 194D     		ldr	r5, .L49+64
 721 00c4 6123     		movs	r3, #97
 722 00c6 2B70     		strb	r3, [r5]
 530:Generated_Source\PSoC5/cyfitter_cfg.c **** 	/* Setup clocks based on selections from Clock DWR */
 531:Generated_Source\PSoC5/cyfitter_cfg.c **** 	ClockSetup();
 723              		.loc 1 531 0
 724 00c8 FFF7FEFF 		bl	ClockSetup
 725              	.LVL66:
 532:Generated_Source\PSoC5/cyfitter_cfg.c **** 	/* Set Flash Cycles based on newly configured 24.00MHz Bus Clock. */
 533:Generated_Source\PSoC5/cyfitter_cfg.c **** 	CY_SET_XTND_REG8((void CYFAR *)(CYREG_CACHE_CC_CTL), (((CYDEV_INSTRUCT_CACHE_ENABLED) != 0) ? 0x81
 726              		.loc 1 533 0
 727 00cc 8123     		movs	r3, #129
 728 00ce 2B70     		strb	r3, [r5]
ARM GAS  C:\Users\Runeg\AppData\Local\Temp\ccCxA2E3.s 			page 24


 534:Generated_Source\PSoC5/cyfitter_cfg.c **** 	CY_SET_XTND_REG8((void CYFAR *)(CYREG_PANTHER_WAITPIPE), 0x01u);
 729              		.loc 1 534 0
 730 00d0 0122     		movs	r2, #1
 731 00d2 164B     		ldr	r3, .L49+68
 732 00d4 1A70     		strb	r2, [r3]
 535:Generated_Source\PSoC5/cyfitter_cfg.c **** 
 536:Generated_Source\PSoC5/cyfitter_cfg.c **** 	/* Perform basic analog initialization to defaults */
 537:Generated_Source\PSoC5/cyfitter_cfg.c **** 	AnalogSetDefault();
 733              		.loc 1 537 0
 734 00d6 FFF7FEFF 		bl	AnalogSetDefault
 735              	.LVL67:
 538:Generated_Source\PSoC5/cyfitter_cfg.c **** 
 539:Generated_Source\PSoC5/cyfitter_cfg.c **** 	/* Configure alternate active mode */
 540:Generated_Source\PSoC5/cyfitter_cfg.c **** 	CYCONFIGCPY((void CYFAR *)CYDEV_PM_STBY_BASE, (const void CYFAR *)CYDEV_PM_ACT_BASE, 14u);
 736              		.loc 1 540 0
 737 00da 0E22     		movs	r2, #14
 738 00dc 2146     		mov	r1, r4
 739 00de 1448     		ldr	r0, .L49+72
 740 00e0 FFF7FEFF 		bl	CYCONFIGCPY
 741              	.LVL68:
 742 00e4 38BD     		pop	{r3, r4, r5, pc}
 743              	.L50:
 744 00e6 00BF     		.align	2
 745              	.L49:
 746 00e8 E8460040 		.word	1073759976
 747 00ec 00000000 		.word	.LANCHOR0
 748 00f0 54000048 		.word	1207959636
 749 00f4 03500140 		.word	1073827843
 750 00f8 A0430040 		.word	1073759136
 751 00fc 50030048 		.word	1207960400
 752 0100 02510040 		.word	1073762562
 753 0104 58030048 		.word	1207960408
 754 0108 C0510040 		.word	1073762752
 755 010c 64030048 		.word	1207960420
 756 0110 12510040 		.word	1073762578
 757 0114 6C030048 		.word	1207960428
 758 0118 22510040 		.word	1073762594
 759 011c 74030048 		.word	1207960436
 760 0120 32510040 		.word	1073762610
 761 0124 22430040 		.word	1073759010
 762 0128 00480040 		.word	1073760256
 763 012c 04000840 		.word	1074266116
 764 0130 B0430040 		.word	1073759152
 765              		.cfi_endproc
 766              	.LFE10:
 767              		.size	cyfitter_cfg, .-cyfitter_cfg
 768              		.global	AMux__maskTable
 769              		.global	AMux__addrTable
 770              		.section	.rodata
 771              		.align	2
 772              		.set	.LANCHOR0,. + 0
 773              		.type	AMux__addrTable, %object
 774              		.size	AMux__addrTable, 24
 775              	AMux__addrTable:
 776 0000 2D510040 		.word	1073762605
 777 0004 005B0040 		.word	1073765120
 778 0008 2D510040 		.word	1073762605
ARM GAS  C:\Users\Runeg\AppData\Local\Temp\ccCxA2E3.s 			page 25


 779 000c 24430040 		.word	1073759012
 780 0010 2D510040 		.word	1073762605
 781 0014 285B0040 		.word	1073765160
 782              		.type	AMux__maskTable, %object
 783              		.size	AMux__maskTable, 6
 784              	AMux__maskTable:
 785 0018 01       		.byte	1
 786 0019 02       		.byte	2
 787 001a 02       		.byte	2
 788 001b 00       		.byte	0
 789 001c 04       		.byte	4
 790 001d 04       		.byte	4
 791 001e 0000     		.space	2
 792              		.type	cfg_memset_list.5032, %object
 793              		.size	cfg_memset_list.5032, 54
 794              	cfg_memset_list.5032:
 795 0020 004F0040 		.word	1073762048
 796 0024 3000     		.short	48
 797 0026 40510040 		.4byte	1073762624
 798 002a 3000     		.short	48
 799 002c F0510040 		.word	1073762800
 800 0030 1000     		.short	16
 801 0032 00000140 		.4byte	1073807360
 802 0036 0010     		.short	4096
 803 0038 00140140 		.word	1073812480
 804 003c 0006     		.short	1536
 805 003e 801A0140 		.4byte	1073814144
 806 0042 8001     		.short	384
 807 0044 00400140 		.word	1073823744
 808 0048 000A     		.short	2560
 809 004a 004C0140 		.4byte	1073826816
 810 004e 0002     		.short	512
 811 0050 00500140 		.word	1073827840
 812 0054 2000     		.short	32
 813 0056 0000     		.space	2
 814              		.type	cfg_memcpy_list.5033, %object
 815              		.size	cfg_memcpy_list.5033, 20
 816              	cfg_memcpy_list.5033:
 817 0058 60520040 		.word	1073762912
 818 005c C8020048 		.word	1207960264
 819 0060 0600     		.short	6
 820 0062 001A0140 		.4byte	1073814016
 821 0066 D0020048 		.4byte	1207960272
 822 006a 8000     		.short	128
 823              		.text
 824              	.Letext0:
 825              		.file 2 "c:\\program files (x86)\\cypress\\psoc creator\\4.4\\psoc creator\\import\\gnu\\arm\\5.4.
 826              		.file 3 "Generated_Source\\PSoC5\\cytypes.h"
 827              		.file 4 "Generated_Source\\PSoC5\\CyLib.h"