ARM GAS  C:\Users\Runeg\AppData\Local\Temp\cccZjcli.s 			page 1


   1              		.syntax unified
   2              		.cpu cortex-m3
   3              		.fpu softvfp
   4              		.eabi_attribute 20, 1
   5              		.eabi_attribute 21, 1
   6              		.eabi_attribute 23, 3
   7              		.eabi_attribute 24, 1
   8              		.eabi_attribute 25, 1
   9              		.eabi_attribute 26, 1
  10              		.eabi_attribute 30, 6
  11              		.eabi_attribute 34, 1
  12              		.eabi_attribute 18, 4
  13              		.thumb
  14              		.syntax unified
  15              		.file	"dmc_weight.c"
  16              		.text
  17              	.Ltext0:
  18              		.cfi_sections	.debug_frame
  19              		.comm	weight1,14,4
  20              		.comm	weight2,14,4
  21              		.comm	weight3,14,4
  22              		.comm	current_weight,4,4
  23              		.global	NUM_OF_MEASUREMENTS
  24              		.data
  25              		.type	NUM_OF_MEASUREMENTS, %object
  26              		.size	NUM_OF_MEASUREMENTS, 1
  27              	NUM_OF_MEASUREMENTS:
  28 0000 03       		.byte	3
  29              		.section	.text.weight_init,"ax",%progbits
  30              		.align	2
  31              		.global	weight_init
  32              		.thumb
  33              		.thumb_func
  34              		.type	weight_init, %function
  35              	weight_init:
  36              	.LFB64:
  37              		.file 1 "dmc_weight.c"
   1:dmc_weight.c  **** /* ========================================
   2:dmc_weight.c  ****  *
   3:dmc_weight.c  ****  * Copyright YOUR COMPANY, THE YEAR
   4:dmc_weight.c  ****  * All Rights Reserved
   5:dmc_weight.c  ****  * UNPUBLISHED, LICENSED SOFTWARE.
   6:dmc_weight.c  ****  *
   7:dmc_weight.c  ****  * CONFIDENTIAL AND PROPRIETARY INFORMATION
   8:dmc_weight.c  ****  * WHICH IS THE PROPERTY OF your company.
   9:dmc_weight.c  ****  *
  10:dmc_weight.c  ****  * ========================================
  11:dmc_weight.c  **** */
  12:dmc_weight.c  **** 
  13:dmc_weight.c  **** /* [] END OF FILE */
  14:dmc_weight.c  **** 
  15:dmc_weight.c  **** 
  16:dmc_weight.c  ****     #include "dmc_weight.h"
  17:dmc_weight.c  ****     #include "project.h"
  18:dmc_weight.c  ****     #include <stdio.h>
  19:dmc_weight.c  ****     
  20:dmc_weight.c  ****     
ARM GAS  C:\Users\Runeg\AppData\Local\Temp\cccZjcli.s 			page 2


  21:dmc_weight.c  ****     uint8_t NUM_OF_MEASUREMENTS = 3;
  22:dmc_weight.c  ****  
  23:dmc_weight.c  **** void weight_init()
  24:dmc_weight.c  ****     {
  38              		.loc 1 24 0
  39              		.cfi_startproc
  40              		@ args = 0, pretend = 0, frame = 0
  41              		@ frame_needed = 1, uses_anonymous_args = 0
  42 0000 80B5     		push	{r7, lr}
  43              		.cfi_def_cfa_offset 8
  44              		.cfi_offset 7, -8
  45              		.cfi_offset 14, -4
  46 0002 00AF     		add	r7, sp, #0
  47              		.cfi_def_cfa_register 7
  25:dmc_weight.c  ****     weight_selector_Init();
  48              		.loc 1 25 0
  49 0004 FFF7FEFF 		bl	weight_selector_Start
  26:dmc_weight.c  ****     weight_adc_Start();
  50              		.loc 1 26 0
  51 0008 FFF7FEFF 		bl	weight_adc_Start
  27:dmc_weight.c  ****     weight_adc_StartConvert();
  52              		.loc 1 27 0
  53 000c FFF7FEFF 		bl	weight_adc_StartConvert
  28:dmc_weight.c  ****            
  29:dmc_weight.c  ****     weight1.adc_divider = 1849;
  54              		.loc 1 29 0
  55 0010 2D4B     		ldr	r3, .L2
  56 0012 40F23972 		movw	r2, #1849
  57 0016 DA80     		strh	r2, [r3, #6]	@ movhi
  30:dmc_weight.c  ****     weight2.adc_divider = 1097;
  58              		.loc 1 30 0
  59 0018 2C4B     		ldr	r3, .L2+4
  60 001a 40F24942 		movw	r2, #1097
  61 001e DA80     		strh	r2, [r3, #6]	@ movhi
  31:dmc_weight.c  ****     weight3.adc_divider = 1772;
  62              		.loc 1 31 0
  63 0020 2B4B     		ldr	r3, .L2+8
  64 0022 40F2EC62 		movw	r2, #1772
  65 0026 DA80     		strh	r2, [r3, #6]	@ movhi
  32:dmc_weight.c  ****     
  33:dmc_weight.c  ****     weight1.min = 740;
  66              		.loc 1 33 0
  67 0028 274B     		ldr	r3, .L2
  68 002a 4FF43972 		mov	r2, #740
  69 002e 1A81     		strh	r2, [r3, #8]	@ movhi
  34:dmc_weight.c  ****     weight2.min = 320;
  70              		.loc 1 34 0
  71 0030 264B     		ldr	r3, .L2+4
  72 0032 4FF4A072 		mov	r2, #320
  73 0036 1A81     		strh	r2, [r3, #8]	@ movhi
  35:dmc_weight.c  ****     weight3.min = 460;
  74              		.loc 1 35 0
  75 0038 254B     		ldr	r3, .L2+8
  76 003a 4FF4E672 		mov	r2, #460
  77 003e 1A81     		strh	r2, [r3, #8]	@ movhi
  36:dmc_weight.c  ****     
  37:dmc_weight.c  ****     weight1.max = 2040;
ARM GAS  C:\Users\Runeg\AppData\Local\Temp\cccZjcli.s 			page 3


  78              		.loc 1 37 0
  79 0040 214B     		ldr	r3, .L2
  80 0042 4FF4FF62 		mov	r2, #2040
  81 0046 5A81     		strh	r2, [r3, #10]	@ movhi
  38:dmc_weight.c  ****     weight2.max = 1051;
  82              		.loc 1 38 0
  83 0048 204B     		ldr	r3, .L2+4
  84 004a 40F21B42 		movw	r2, #1051
  85 004e 5A81     		strh	r2, [r3, #10]	@ movhi
  39:dmc_weight.c  ****     weight3.max = 1708;
  86              		.loc 1 39 0
  87 0050 1F4B     		ldr	r3, .L2+8
  88 0052 40F2AC62 		movw	r2, #1708
  89 0056 5A81     		strh	r2, [r3, #10]	@ movhi
  40:dmc_weight.c  ****     
  41:dmc_weight.c  ****     weight1.weight_number = WEIGHT_1;
  90              		.loc 1 41 0
  91 0058 1B4B     		ldr	r3, .L2
  92 005a 0122     		movs	r2, #1
  93 005c 1A70     		strb	r2, [r3]
  42:dmc_weight.c  ****     weight2.weight_number = WEIGHT_2;
  94              		.loc 1 42 0
  95 005e 1B4B     		ldr	r3, .L2+4
  96 0060 0222     		movs	r2, #2
  97 0062 1A70     		strb	r2, [r3]
  43:dmc_weight.c  ****     weight3.weight_number = WEIGHT_3;
  98              		.loc 1 43 0
  99 0064 1A4B     		ldr	r3, .L2+8
 100 0066 0322     		movs	r2, #3
 101 0068 1A70     		strb	r2, [r3]
  44:dmc_weight.c  ****     
  45:dmc_weight.c  ****     weight1.out_of_order = 0;
 102              		.loc 1 45 0
 103 006a 174B     		ldr	r3, .L2
 104 006c 0022     		movs	r2, #0
 105 006e 1A73     		strb	r2, [r3, #12]
  46:dmc_weight.c  ****     weight2.out_of_order = 0;
 106              		.loc 1 46 0
 107 0070 164B     		ldr	r3, .L2+4
 108 0072 0022     		movs	r2, #0
 109 0074 1A73     		strb	r2, [r3, #12]
  47:dmc_weight.c  ****     weight3.out_of_order = 0;
 110              		.loc 1 47 0
 111 0076 164B     		ldr	r3, .L2+8
 112 0078 0022     		movs	r2, #0
 113 007a 1A73     		strb	r2, [r3, #12]
  48:dmc_weight.c  ****     
  49:dmc_weight.c  ****     
  50:dmc_weight.c  ****     weight1.tara = 0;
 114              		.loc 1 50 0
 115 007c 124B     		ldr	r3, .L2
 116 007e 0022     		movs	r2, #0
 117 0080 9A80     		strh	r2, [r3, #4]	@ movhi
  51:dmc_weight.c  ****     weight2.tara = 0;
 118              		.loc 1 51 0
 119 0082 124B     		ldr	r3, .L2+4
 120 0084 0022     		movs	r2, #0
ARM GAS  C:\Users\Runeg\AppData\Local\Temp\cccZjcli.s 			page 4


 121 0086 9A80     		strh	r2, [r3, #4]	@ movhi
  52:dmc_weight.c  ****     weight3.tara = 0;
 122              		.loc 1 52 0
 123 0088 114B     		ldr	r3, .L2+8
 124 008a 0022     		movs	r2, #0
 125 008c 9A80     		strh	r2, [r3, #4]	@ movhi
  53:dmc_weight.c  ****     
  54:dmc_weight.c  ****     set_current_weight(WEIGHT_1);
 126              		.loc 1 54 0
 127 008e 0120     		movs	r0, #1
 128 0090 FFF7FEFF 		bl	set_current_weight
  55:dmc_weight.c  ****     weight1.result = measure_weight_value();
 129              		.loc 1 55 0
 130 0094 FFF7FEFF 		bl	measure_weight_value
 131 0098 0346     		mov	r3, r0
 132 009a 1A46     		mov	r2, r3
 133 009c 0A4B     		ldr	r3, .L2
 134 009e 5A80     		strh	r2, [r3, #2]	@ movhi
  56:dmc_weight.c  ****     set_current_weight(WEIGHT_2);
 135              		.loc 1 56 0
 136 00a0 0220     		movs	r0, #2
 137 00a2 FFF7FEFF 		bl	set_current_weight
  57:dmc_weight.c  ****     weight2.result = measure_weight_value();
 138              		.loc 1 57 0
 139 00a6 FFF7FEFF 		bl	measure_weight_value
 140 00aa 0346     		mov	r3, r0
 141 00ac 1A46     		mov	r2, r3
 142 00ae 074B     		ldr	r3, .L2+4
 143 00b0 5A80     		strh	r2, [r3, #2]	@ movhi
  58:dmc_weight.c  ****     set_current_weight(WEIGHT_3);
 144              		.loc 1 58 0
 145 00b2 0320     		movs	r0, #3
 146 00b4 FFF7FEFF 		bl	set_current_weight
  59:dmc_weight.c  ****     weight3.result = measure_weight_value();
 147              		.loc 1 59 0
 148 00b8 FFF7FEFF 		bl	measure_weight_value
 149 00bc 0346     		mov	r3, r0
 150 00be 1A46     		mov	r2, r3
 151 00c0 034B     		ldr	r3, .L2+8
 152 00c2 5A80     		strh	r2, [r3, #2]	@ movhi
  60:dmc_weight.c  ****     
  61:dmc_weight.c  ****     }
 153              		.loc 1 61 0
 154 00c4 00BF     		nop
 155 00c6 80BD     		pop	{r7, pc}
 156              	.L3:
 157              		.align	2
 158              	.L2:
 159 00c8 00000000 		.word	weight1
 160 00cc 00000000 		.word	weight2
 161 00d0 00000000 		.word	weight3
 162              		.cfi_endproc
 163              	.LFE64:
 164              		.size	weight_init, .-weight_init
 165              		.section	.text.set_current_weight,"ax",%progbits
 166              		.align	2
 167              		.global	set_current_weight
ARM GAS  C:\Users\Runeg\AppData\Local\Temp\cccZjcli.s 			page 5


 168              		.thumb
 169              		.thumb_func
 170              		.type	set_current_weight, %function
 171              	set_current_weight:
 172              	.LFB65:
  62:dmc_weight.c  ****     
  63:dmc_weight.c  **** void set_current_weight(enum dmc_weight_number weight_number)
  64:dmc_weight.c  **** {
 173              		.loc 1 64 0
 174              		.cfi_startproc
 175              		@ args = 0, pretend = 0, frame = 8
 176              		@ frame_needed = 1, uses_anonymous_args = 0
 177 0000 80B5     		push	{r7, lr}
 178              		.cfi_def_cfa_offset 8
 179              		.cfi_offset 7, -8
 180              		.cfi_offset 14, -4
 181 0002 82B0     		sub	sp, sp, #8
 182              		.cfi_def_cfa_offset 16
 183 0004 00AF     		add	r7, sp, #0
 184              		.cfi_def_cfa_register 7
 185 0006 0346     		mov	r3, r0
 186 0008 FB71     		strb	r3, [r7, #7]
  65:dmc_weight.c  ****     switch(weight_number)
 187              		.loc 1 65 0
 188 000a FB79     		ldrb	r3, [r7, #7]	@ zero_extendqisi2
 189 000c 022B     		cmp	r3, #2
 190 000e 0AD0     		beq	.L6
 191 0010 032B     		cmp	r3, #3
 192 0012 0FD0     		beq	.L7
 193 0014 012B     		cmp	r3, #1
 194 0016 14D1     		bne	.L4
  66:dmc_weight.c  ****     {
  67:dmc_weight.c  ****         case WEIGHT_1:
  68:dmc_weight.c  ****     {
  69:dmc_weight.c  ****         current_weight = &weight1;
 195              		.loc 1 69 0
 196 0018 0B4B     		ldr	r3, .L9
 197 001a 0C4A     		ldr	r2, .L9+4
 198 001c 1A60     		str	r2, [r3]
  70:dmc_weight.c  ****         weight_selector_Select(0);
 199              		.loc 1 70 0
 200 001e 0020     		movs	r0, #0
 201 0020 FFF7FEFF 		bl	weight_selector_Select
  71:dmc_weight.c  ****         return;
 202              		.loc 1 71 0
 203 0024 0DE0     		b	.L4
 204              	.L6:
  72:dmc_weight.c  ****     }
  73:dmc_weight.c  ****         case WEIGHT_2:
  74:dmc_weight.c  ****     {
  75:dmc_weight.c  ****         current_weight = &weight2;
 205              		.loc 1 75 0
 206 0026 084B     		ldr	r3, .L9
 207 0028 094A     		ldr	r2, .L9+8
 208 002a 1A60     		str	r2, [r3]
  76:dmc_weight.c  ****         weight_selector_Select(1);
 209              		.loc 1 76 0
ARM GAS  C:\Users\Runeg\AppData\Local\Temp\cccZjcli.s 			page 6


 210 002c 0120     		movs	r0, #1
 211 002e FFF7FEFF 		bl	weight_selector_Select
  77:dmc_weight.c  ****         return;
 212              		.loc 1 77 0
 213 0032 06E0     		b	.L4
 214              	.L7:
  78:dmc_weight.c  ****     }
  79:dmc_weight.c  ****         case WEIGHT_3:
  80:dmc_weight.c  ****     {
  81:dmc_weight.c  ****         current_weight = &weight3;
 215              		.loc 1 81 0
 216 0034 044B     		ldr	r3, .L9
 217 0036 074A     		ldr	r2, .L9+12
 218 0038 1A60     		str	r2, [r3]
  82:dmc_weight.c  ****         weight_selector_Select(2);
 219              		.loc 1 82 0
 220 003a 0220     		movs	r0, #2
 221 003c FFF7FEFF 		bl	weight_selector_Select
  83:dmc_weight.c  ****         return;
 222              		.loc 1 83 0
 223 0040 00BF     		nop
 224              	.L4:
  84:dmc_weight.c  ****     }
  85:dmc_weight.c  ****     }
  86:dmc_weight.c  **** }
 225              		.loc 1 86 0
 226 0042 0837     		adds	r7, r7, #8
 227              		.cfi_def_cfa_offset 8
 228 0044 BD46     		mov	sp, r7
 229              		.cfi_def_cfa_register 13
 230              		@ sp needed
 231 0046 80BD     		pop	{r7, pc}
 232              	.L10:
 233              		.align	2
 234              	.L9:
 235 0048 00000000 		.word	current_weight
 236 004c 00000000 		.word	weight1
 237 0050 00000000 		.word	weight2
 238 0054 00000000 		.word	weight3
 239              		.cfi_endproc
 240              	.LFE65:
 241              		.size	set_current_weight, .-set_current_weight
 242              		.section	.text.measure_weight_value,"ax",%progbits
 243              		.align	2
 244              		.global	measure_weight_value
 245              		.thumb
 246              		.thumb_func
 247              		.type	measure_weight_value, %function
 248              	measure_weight_value:
 249              	.LFB66:
  87:dmc_weight.c  **** 
  88:dmc_weight.c  **** 
  89:dmc_weight.c  ****     
  90:dmc_weight.c  **** uint16_t measure_weight_value()
  91:dmc_weight.c  **** {
 250              		.loc 1 91 0
 251              		.cfi_startproc
ARM GAS  C:\Users\Runeg\AppData\Local\Temp\cccZjcli.s 			page 7


 252              		@ args = 0, pretend = 0, frame = 8
 253              		@ frame_needed = 1, uses_anonymous_args = 0
 254 0000 80B5     		push	{r7, lr}
 255              		.cfi_def_cfa_offset 8
 256              		.cfi_offset 7, -8
 257              		.cfi_offset 14, -4
 258 0002 82B0     		sub	sp, sp, #8
 259              		.cfi_def_cfa_offset 16
 260 0004 00AF     		add	r7, sp, #0
 261              		.cfi_def_cfa_register 7
  92:dmc_weight.c  ****     uint32_t result = 0;
 262              		.loc 1 92 0
 263 0006 0023     		movs	r3, #0
 264 0008 7B60     		str	r3, [r7, #4]
 265              	.LBB2:
  93:dmc_weight.c  ****     for (int8_t i = 0; i < NUM_OF_MEASUREMENTS; i++)
 266              		.loc 1 93 0
 267 000a 0023     		movs	r3, #0
 268 000c FB70     		strb	r3, [r7, #3]
 269 000e 12E0     		b	.L12
 270              	.L14:
  94:dmc_weight.c  ****     {
  95:dmc_weight.c  ****         
  96:dmc_weight.c  ****         if (weight_adc_IsEndConversion(weight_adc_WAIT_FOR_RESULT))
 271              		.loc 1 96 0
 272 0010 0020     		movs	r0, #0
 273 0012 FFF7FEFF 		bl	weight_adc_IsEndConversion
 274 0016 0346     		mov	r3, r0
 275 0018 002B     		cmp	r3, #0
 276 001a 06D0     		beq	.L13
  97:dmc_weight.c  ****             {
  98:dmc_weight.c  ****                 result += weight_adc_GetResult16();
 277              		.loc 1 98 0
 278 001c FFF7FEFF 		bl	weight_adc_GetResult16
 279 0020 0346     		mov	r3, r0
 280 0022 1A46     		mov	r2, r3
 281 0024 7B68     		ldr	r3, [r7, #4]
 282 0026 1344     		add	r3, r3, r2
 283 0028 7B60     		str	r3, [r7, #4]
 284              	.L13:
  93:dmc_weight.c  ****     {
 285              		.loc 1 93 0 discriminator 2
 286 002a 97F90330 		ldrsb	r3, [r7, #3]
 287 002e DBB2     		uxtb	r3, r3
 288 0030 0133     		adds	r3, r3, #1
 289 0032 DBB2     		uxtb	r3, r3
 290 0034 FB70     		strb	r3, [r7, #3]
 291              	.L12:
  93:dmc_weight.c  ****     {
 292              		.loc 1 93 0 is_stmt 0 discriminator 1
 293 0036 97F90330 		ldrsb	r3, [r7, #3]
 294 003a 074A     		ldr	r2, .L16
 295 003c 1278     		ldrb	r2, [r2]	@ zero_extendqisi2
 296 003e 9342     		cmp	r3, r2
 297 0040 E6DB     		blt	.L14
 298              	.LBE2:
  99:dmc_weight.c  ****             }
ARM GAS  C:\Users\Runeg\AppData\Local\Temp\cccZjcli.s 			page 8


 100:dmc_weight.c  ****     }
 101:dmc_weight.c  ****     return result/NUM_OF_MEASUREMENTS;
 299              		.loc 1 101 0 is_stmt 1
 300 0042 054B     		ldr	r3, .L16
 301 0044 1B78     		ldrb	r3, [r3]	@ zero_extendqisi2
 302 0046 1A46     		mov	r2, r3
 303 0048 7B68     		ldr	r3, [r7, #4]
 304 004a B3FBF2F3 		udiv	r3, r3, r2
 305 004e 9BB2     		uxth	r3, r3
 102:dmc_weight.c  **** };
 306              		.loc 1 102 0
 307 0050 1846     		mov	r0, r3
 308 0052 0837     		adds	r7, r7, #8
 309              		.cfi_def_cfa_offset 8
 310 0054 BD46     		mov	sp, r7
 311              		.cfi_def_cfa_register 13
 312              		@ sp needed
 313 0056 80BD     		pop	{r7, pc}
 314              	.L17:
 315              		.align	2
 316              	.L16:
 317 0058 00000000 		.word	NUM_OF_MEASUREMENTS
 318              		.cfi_endproc
 319              	.LFE66:
 320              		.size	measure_weight_value, .-measure_weight_value
 321              		.text
 322              	.Letext0:
 323              		.file 2 "c:\\program files (x86)\\cypress\\psoc creator\\4.4\\psoc creator\\import\\gnu\\arm\\5.4.
 324              		.file 3 "c:\\program files (x86)\\cypress\\psoc creator\\4.4\\psoc creator\\import\\gnu\\arm\\5.4.
 325              		.file 4 "dmc_weight.h"
 326              		.file 5 "Generated_Source\\PSoC5/core_cm3.h"