ARM GAS  C:\Users\Runeg\AppData\Local\Temp\cci0HMiU.s 			page 1


   1              		.syntax unified
   2              		.cpu cortex-m3
   3              		.fpu softvfp
   4              		.eabi_attribute 20, 1
   5              		.eabi_attribute 21, 1
   6              		.eabi_attribute 23, 3
   7              		.eabi_attribute 24, 1
   8              		.eabi_attribute 25, 1
   9              		.eabi_attribute 26, 1
  10              		.eabi_attribute 30, 6
  11              		.eabi_attribute 34, 1
  12              		.eabi_attribute 18, 4
  13              		.thumb
  14              		.syntax unified
  15              		.file	"dmc_controller.c"
  16              		.text
  17              	.Ltext0:
  18              		.cfi_sections	.debug_frame
  19              		.section	.text.dmc_packet_init,"ax",%progbits
  20              		.align	2
  21              		.thumb
  22              		.thumb_func
  23              		.type	dmc_packet_init, %function
  24              	dmc_packet_init:
  25              	.LFB63:
  26              		.file 1 "..\\..\\..\\common\\hw\\include\\base_packet.h"
   1:..\..\..\common\hw\include/base_packet.h **** #ifndef DMC_BASE_PACKET_H
   2:..\..\..\common\hw\include/base_packet.h **** #define DMC_BASE_PACKET_H
   3:..\..\..\common\hw\include/base_packet.h **** 
   4:..\..\..\common\hw\include/base_packet.h **** #ifdef MODULE // Include kernel space memory allocation with kmalloc
   5:..\..\..\common\hw\include/base_packet.h **** #include <linux/slab.h>
   6:..\..\..\common\hw\include/base_packet.h **** #else
   7:..\..\..\common\hw\include/base_packet.h **** #include <stdlib.h>
   8:..\..\..\common\hw\include/base_packet.h **** #endif
   9:..\..\..\common\hw\include/base_packet.h **** 
  10:..\..\..\common\hw\include/base_packet.h **** /**
  11:..\..\..\common\hw\include/base_packet.h ****  * @brief Type of packet. (MAYBE: MSB is required to be 1 as this signals a
  12:..\..\..\common\hw\include/base_packet.h ****  * header byte)
  13:..\..\..\common\hw\include/base_packet.h ****  */
  14:..\..\..\common\hw\include/base_packet.h **** enum dmc_packet_type
  15:..\..\..\common\hw\include/base_packet.h **** {
  16:..\..\..\common\hw\include/base_packet.h ****   DMC_PACKET_OUT_OF_ORDER              = 0b10000001,
  17:..\..\..\common\hw\include/base_packet.h ****   DMC_PACKET_CONTAINER_VOLUME_MEASURED = 0b10010010,
  18:..\..\..\common\hw\include/base_packet.h ****   DMC_PACKET_USER_CONFIRM              = 0b10100000,
  19:..\..\..\common\hw\include/base_packet.h ****   DMC_PACKET_FLUID_POUR_REQUESTED      = 0b10110010,
  20:..\..\..\common\hw\include/base_packet.h ****   DMC_PACKET_DEBUG                     = 0b11000010,
  21:..\..\..\common\hw\include/base_packet.h ****   DMC_PACKET_MACHINE_OK                = 0b11010000,
  22:..\..\..\common\hw\include/base_packet.h **** };
  23:..\..\..\common\hw\include/base_packet.h **** 
  24:..\..\..\common\hw\include/base_packet.h **** struct dmc_packet
  25:..\..\..\common\hw\include/base_packet.h **** {
  26:..\..\..\common\hw\include/base_packet.h ****   /**
  27:..\..\..\common\hw\include/base_packet.h ****    * @brief Type of packet. This is the first byte received.
  28:..\..\..\common\hw\include/base_packet.h ****    */
  29:..\..\..\common\hw\include/base_packet.h ****   enum dmc_packet_type type;
  30:..\..\..\common\hw\include/base_packet.h **** 
  31:..\..\..\common\hw\include/base_packet.h ****   /**
ARM GAS  C:\Users\Runeg\AppData\Local\Temp\cci0HMiU.s 			page 2


  32:..\..\..\common\hw\include/base_packet.h ****    * @brief Data payload of packet
  33:..\..\..\common\hw\include/base_packet.h ****    */
  34:..\..\..\common\hw\include/base_packet.h ****   char *data;
  35:..\..\..\common\hw\include/base_packet.h **** 
  36:..\..\..\common\hw\include/base_packet.h ****   /**
  37:..\..\..\common\hw\include/base_packet.h ****    * @brief Length of payload in bytes.
  38:..\..\..\common\hw\include/base_packet.h ****    */
  39:..\..\..\common\hw\include/base_packet.h ****   size_t data_len;
  40:..\..\..\common\hw\include/base_packet.h **** };
  41:..\..\..\common\hw\include/base_packet.h **** 
  42:..\..\..\common\hw\include/base_packet.h **** /**
  43:..\..\..\common\hw\include/base_packet.h ****  * @brief Allocates and initializes a packet with a type. Primarily
  44:..\..\..\common\hw\include/base_packet.h ****  * used when starting to read data from a given source.
  45:..\..\..\common\hw\include/base_packet.h ****  */
  46:..\..\..\common\hw\include/base_packet.h **** static struct dmc_packet *dmc_packet_init(enum dmc_packet_type type)
  47:..\..\..\common\hw\include/base_packet.h **** {
  27              		.loc 1 47 0
  28              		.cfi_startproc
  29              		@ args = 0, pretend = 0, frame = 16
  30              		@ frame_needed = 1, uses_anonymous_args = 0
  31 0000 80B5     		push	{r7, lr}
  32              		.cfi_def_cfa_offset 8
  33              		.cfi_offset 7, -8
  34              		.cfi_offset 14, -4
  35 0002 84B0     		sub	sp, sp, #16
  36              		.cfi_def_cfa_offset 24
  37 0004 00AF     		add	r7, sp, #0
  38              		.cfi_def_cfa_register 7
  39 0006 0346     		mov	r3, r0
  40 0008 FB71     		strb	r3, [r7, #7]
  48:..\..\..\common\hw\include/base_packet.h ****   unsigned char data_bytes = type & 0b00001111;
  41              		.loc 1 48 0
  42 000a FB79     		ldrb	r3, [r7, #7]
  43 000c 03F00F03 		and	r3, r3, #15
  44 0010 FB73     		strb	r3, [r7, #15]
  49:..\..\..\common\hw\include/base_packet.h **** 
  50:..\..\..\common\hw\include/base_packet.h ****   // Allocate and initialize packet with default values
  51:..\..\..\common\hw\include/base_packet.h ****   struct dmc_packet *packet;
  52:..\..\..\common\hw\include/base_packet.h **** #ifdef MODULE // Differeniate between kernel and use space allocations
  53:..\..\..\common\hw\include/base_packet.h ****   packet = (struct dmc_packet *)kmalloc(sizeof(struct dmc_packet), GFP_KERNEL);
  54:..\..\..\common\hw\include/base_packet.h **** #else
  55:..\..\..\common\hw\include/base_packet.h ****   packet = (struct dmc_packet *)malloc(sizeof(struct dmc_packet));
  45              		.loc 1 55 0
  46 0012 0C20     		movs	r0, #12
  47 0014 FFF7FEFF 		bl	malloc
  48 0018 0346     		mov	r3, r0
  49 001a BB60     		str	r3, [r7, #8]
  56:..\..\..\common\hw\include/base_packet.h **** #endif
  57:..\..\..\common\hw\include/base_packet.h ****   packet->type     = type;
  50              		.loc 1 57 0
  51 001c BB68     		ldr	r3, [r7, #8]
  52 001e FA79     		ldrb	r2, [r7, #7]
  53 0020 1A70     		strb	r2, [r3]
  58:..\..\..\common\hw\include/base_packet.h ****   packet->data_len = 0;
  54              		.loc 1 58 0
  55 0022 BB68     		ldr	r3, [r7, #8]
  56 0024 0022     		movs	r2, #0
ARM GAS  C:\Users\Runeg\AppData\Local\Temp\cci0HMiU.s 			page 3


  57 0026 9A60     		str	r2, [r3, #8]
  59:..\..\..\common\hw\include/base_packet.h ****   packet->data     = NULL;
  58              		.loc 1 59 0
  59 0028 BB68     		ldr	r3, [r7, #8]
  60 002a 0022     		movs	r2, #0
  61 002c 5A60     		str	r2, [r3, #4]
  60:..\..\..\common\hw\include/base_packet.h **** 
  61:..\..\..\common\hw\include/base_packet.h ****   // Allocate packet data if needed
  62:..\..\..\common\hw\include/base_packet.h ****   if (data_bytes > 0)
  62              		.loc 1 62 0
  63 002e FB7B     		ldrb	r3, [r7, #15]	@ zero_extendqisi2
  64 0030 002B     		cmp	r3, #0
  65 0032 07D0     		beq	.L2
  63:..\..\..\common\hw\include/base_packet.h ****   {
  64:..\..\..\common\hw\include/base_packet.h **** #ifdef MODULE // Differeniate between kernel and use space allocations
  65:..\..\..\common\hw\include/base_packet.h ****     packet->data = (char *)kmalloc(sizeof(char) * data_bytes, GFP_KERNEL);
  66:..\..\..\common\hw\include/base_packet.h **** #else
  67:..\..\..\common\hw\include/base_packet.h ****     packet->data = (char *)malloc(sizeof(char) * data_bytes);
  66              		.loc 1 67 0
  67 0034 FB7B     		ldrb	r3, [r7, #15]	@ zero_extendqisi2
  68 0036 1846     		mov	r0, r3
  69 0038 FFF7FEFF 		bl	malloc
  70 003c 0346     		mov	r3, r0
  71 003e 1A46     		mov	r2, r3
  72 0040 BB68     		ldr	r3, [r7, #8]
  73 0042 5A60     		str	r2, [r3, #4]
  74              	.L2:
  68:..\..\..\common\hw\include/base_packet.h **** #endif
  69:..\..\..\common\hw\include/base_packet.h ****   }
  70:..\..\..\common\hw\include/base_packet.h **** 
  71:..\..\..\common\hw\include/base_packet.h ****   return packet;
  75              		.loc 1 71 0
  76 0044 BB68     		ldr	r3, [r7, #8]
  72:..\..\..\common\hw\include/base_packet.h **** }
  77              		.loc 1 72 0
  78 0046 1846     		mov	r0, r3
  79 0048 1037     		adds	r7, r7, #16
  80              		.cfi_def_cfa_offset 8
  81 004a BD46     		mov	sp, r7
  82              		.cfi_def_cfa_register 13
  83              		@ sp needed
  84 004c 80BD     		pop	{r7, pc}
  85              		.cfi_endproc
  86              	.LFE63:
  87              		.size	dmc_packet_init, .-dmc_packet_init
  88 004e 00BF     		.section	.text.dmc_packet_free,"ax",%progbits
  89              		.align	2
  90              		.thumb
  91              		.thumb_func
  92              		.type	dmc_packet_free, %function
  93              	dmc_packet_free:
  94              	.LFB64:
  73:..\..\..\common\hw\include/base_packet.h **** 
  74:..\..\..\common\hw\include/base_packet.h **** /**
  75:..\..\..\common\hw\include/base_packet.h ****  * @brief De-allocate packet and its data
  76:..\..\..\common\hw\include/base_packet.h ****  */
  77:..\..\..\common\hw\include/base_packet.h **** static void dmc_packet_free(struct dmc_packet *packet)
ARM GAS  C:\Users\Runeg\AppData\Local\Temp\cci0HMiU.s 			page 4


  78:..\..\..\common\hw\include/base_packet.h **** {
  95              		.loc 1 78 0
  96              		.cfi_startproc
  97              		@ args = 0, pretend = 0, frame = 8
  98              		@ frame_needed = 1, uses_anonymous_args = 0
  99 0000 80B5     		push	{r7, lr}
 100              		.cfi_def_cfa_offset 8
 101              		.cfi_offset 7, -8
 102              		.cfi_offset 14, -4
 103 0002 82B0     		sub	sp, sp, #8
 104              		.cfi_def_cfa_offset 16
 105 0004 00AF     		add	r7, sp, #0
 106              		.cfi_def_cfa_register 7
 107 0006 7860     		str	r0, [r7, #4]
  79:..\..\..\common\hw\include/base_packet.h **** #ifdef MODULE // Differeniate between kernel and use space de-allocations
  80:..\..\..\common\hw\include/base_packet.h ****   kfree((void *)packet->data);
  81:..\..\..\common\hw\include/base_packet.h ****   kfree((void *)packet);
  82:..\..\..\common\hw\include/base_packet.h **** #else
  83:..\..\..\common\hw\include/base_packet.h ****   free((void *)packet->data);
 108              		.loc 1 83 0
 109 0008 7B68     		ldr	r3, [r7, #4]
 110 000a 5B68     		ldr	r3, [r3, #4]
 111 000c 1846     		mov	r0, r3
 112 000e FFF7FEFF 		bl	free
  84:..\..\..\common\hw\include/base_packet.h ****   free((void *)packet);
 113              		.loc 1 84 0
 114 0012 7868     		ldr	r0, [r7, #4]
 115 0014 FFF7FEFF 		bl	free
  85:..\..\..\common\hw\include/base_packet.h **** #endif
  86:..\..\..\common\hw\include/base_packet.h **** }
 116              		.loc 1 86 0
 117 0018 00BF     		nop
 118 001a 0837     		adds	r7, r7, #8
 119              		.cfi_def_cfa_offset 8
 120 001c BD46     		mov	sp, r7
 121              		.cfi_def_cfa_register 13
 122              		@ sp needed
 123 001e 80BD     		pop	{r7, pc}
 124              		.cfi_endproc
 125              	.LFE64:
 126              		.size	dmc_packet_free, .-dmc_packet_free
 127              		.section	.text.dmc_packet_complete,"ax",%progbits
 128              		.align	2
 129              		.thumb
 130              		.thumb_func
 131              		.type	dmc_packet_complete, %function
 132              	dmc_packet_complete:
 133              	.LFB65:
  87:..\..\..\common\hw\include/base_packet.h **** 
  88:..\..\..\common\hw\include/base_packet.h **** /**
  89:..\..\..\common\hw\include/base_packet.h ****  * @brief Checks if a packet is fully complete, in the sense that all intended
  90:..\..\..\common\hw\include/base_packet.h ****  * data is received
  91:..\..\..\common\hw\include/base_packet.h ****  * @returns True, if packet is complete.
  92:..\..\..\common\hw\include/base_packet.h ****  */
  93:..\..\..\common\hw\include/base_packet.h **** static unsigned char dmc_packet_complete(struct dmc_packet *packet)
  94:..\..\..\common\hw\include/base_packet.h **** {
 134              		.loc 1 94 0
ARM GAS  C:\Users\Runeg\AppData\Local\Temp\cci0HMiU.s 			page 5


 135              		.cfi_startproc
 136              		@ args = 0, pretend = 0, frame = 16
 137              		@ frame_needed = 1, uses_anonymous_args = 0
 138              		@ link register save eliminated.
 139 0000 80B4     		push	{r7}
 140              		.cfi_def_cfa_offset 4
 141              		.cfi_offset 7, -4
 142 0002 85B0     		sub	sp, sp, #20
 143              		.cfi_def_cfa_offset 24
 144 0004 00AF     		add	r7, sp, #0
 145              		.cfi_def_cfa_register 7
 146 0006 7860     		str	r0, [r7, #4]
  95:..\..\..\common\hw\include/base_packet.h ****   unsigned char data_bytes = packet->type & 0b00001111;
 147              		.loc 1 95 0
 148 0008 7B68     		ldr	r3, [r7, #4]
 149 000a 1B78     		ldrb	r3, [r3]	@ zero_extendqisi2
 150 000c 03F00F03 		and	r3, r3, #15
 151 0010 FB73     		strb	r3, [r7, #15]
  96:..\..\..\common\hw\include/base_packet.h ****   return data_bytes == packet->data_len;
 152              		.loc 1 96 0
 153 0012 FA7B     		ldrb	r2, [r7, #15]	@ zero_extendqisi2
 154 0014 7B68     		ldr	r3, [r7, #4]
 155 0016 9B68     		ldr	r3, [r3, #8]
 156 0018 9A42     		cmp	r2, r3
 157 001a 0CBF     		ite	eq
 158 001c 0123     		moveq	r3, #1
 159 001e 0023     		movne	r3, #0
 160 0020 DBB2     		uxtb	r3, r3
  97:..\..\..\common\hw\include/base_packet.h **** }
 161              		.loc 1 97 0
 162 0022 1846     		mov	r0, r3
 163 0024 1437     		adds	r7, r7, #20
 164              		.cfi_def_cfa_offset 4
 165 0026 BD46     		mov	sp, r7
 166              		.cfi_def_cfa_register 13
 167              		@ sp needed
 168 0028 80BC     		pop	{r7}
 169              		.cfi_restore 7
 170              		.cfi_def_cfa_offset 0
 171 002a 7047     		bx	lr
 172              		.cfi_endproc
 173              	.LFE65:
 174              		.size	dmc_packet_complete, .-dmc_packet_complete
 175              		.section	.text.dmc_packet_append_byte,"ax",%progbits
 176              		.align	2
 177              		.thumb
 178              		.thumb_func
 179              		.type	dmc_packet_append_byte, %function
 180              	dmc_packet_append_byte:
 181              	.LFB66:
  98:..\..\..\common\hw\include/base_packet.h **** 
  99:..\..\..\common\hw\include/base_packet.h **** /**
 100:..\..\..\common\hw\include/base_packet.h ****  * @brief Appends data byte to packet payload.
 101:..\..\..\common\hw\include/base_packet.h ****  * @returns 0 if successful, 1 if payload is already at capacity.
 102:..\..\..\common\hw\include/base_packet.h ****  */
 103:..\..\..\common\hw\include/base_packet.h **** static unsigned char dmc_packet_append_byte(struct dmc_packet *packet,
 104:..\..\..\common\hw\include/base_packet.h ****                                             unsigned char      data)
ARM GAS  C:\Users\Runeg\AppData\Local\Temp\cci0HMiU.s 			page 6


 105:..\..\..\common\hw\include/base_packet.h **** {
 182              		.loc 1 105 0
 183              		.cfi_startproc
 184              		@ args = 0, pretend = 0, frame = 16
 185              		@ frame_needed = 1, uses_anonymous_args = 0
 186              		@ link register save eliminated.
 187 0000 80B4     		push	{r7}
 188              		.cfi_def_cfa_offset 4
 189              		.cfi_offset 7, -4
 190 0002 85B0     		sub	sp, sp, #20
 191              		.cfi_def_cfa_offset 24
 192 0004 00AF     		add	r7, sp, #0
 193              		.cfi_def_cfa_register 7
 194 0006 7860     		str	r0, [r7, #4]
 195 0008 0B46     		mov	r3, r1
 196 000a FB70     		strb	r3, [r7, #3]
 106:..\..\..\common\hw\include/base_packet.h ****   unsigned char data_bytes = packet->type & 0b00001111;
 197              		.loc 1 106 0
 198 000c 7B68     		ldr	r3, [r7, #4]
 199 000e 1B78     		ldrb	r3, [r3]	@ zero_extendqisi2
 200 0010 03F00F03 		and	r3, r3, #15
 201 0014 FB73     		strb	r3, [r7, #15]
 107:..\..\..\common\hw\include/base_packet.h ****   if (data_bytes == packet->data_len)
 202              		.loc 1 107 0
 203 0016 FA7B     		ldrb	r2, [r7, #15]	@ zero_extendqisi2
 204 0018 7B68     		ldr	r3, [r7, #4]
 205 001a 9B68     		ldr	r3, [r3, #8]
 206 001c 9A42     		cmp	r2, r3
 207 001e 01D1     		bne	.L8
 108:..\..\..\common\hw\include/base_packet.h ****   {
 109:..\..\..\common\hw\include/base_packet.h ****     return 1;
 208              		.loc 1 109 0
 209 0020 0123     		movs	r3, #1
 210 0022 0AE0     		b	.L9
 211              	.L8:
 110:..\..\..\common\hw\include/base_packet.h ****   }
 111:..\..\..\common\hw\include/base_packet.h **** 
 112:..\..\..\common\hw\include/base_packet.h ****   packet->data[packet->data_len++] = data;
 212              		.loc 1 112 0
 213 0024 7B68     		ldr	r3, [r7, #4]
 214 0026 5A68     		ldr	r2, [r3, #4]
 215 0028 7B68     		ldr	r3, [r7, #4]
 216 002a 9B68     		ldr	r3, [r3, #8]
 217 002c 581C     		adds	r0, r3, #1
 218 002e 7968     		ldr	r1, [r7, #4]
 219 0030 8860     		str	r0, [r1, #8]
 220 0032 1344     		add	r3, r3, r2
 221 0034 FA78     		ldrb	r2, [r7, #3]
 222 0036 1A70     		strb	r2, [r3]
 113:..\..\..\common\hw\include/base_packet.h ****   return 0;
 223              		.loc 1 113 0
 224 0038 0023     		movs	r3, #0
 225              	.L9:
 114:..\..\..\common\hw\include/base_packet.h **** }
 226              		.loc 1 114 0
 227 003a 1846     		mov	r0, r3
 228 003c 1437     		adds	r7, r7, #20
ARM GAS  C:\Users\Runeg\AppData\Local\Temp\cci0HMiU.s 			page 7


 229              		.cfi_def_cfa_offset 4
 230 003e BD46     		mov	sp, r7
 231              		.cfi_def_cfa_register 13
 232              		@ sp needed
 233 0040 80BC     		pop	{r7}
 234              		.cfi_restore 7
 235              		.cfi_def_cfa_offset 0
 236 0042 7047     		bx	lr
 237              		.cfi_endproc
 238              	.LFE66:
 239              		.size	dmc_packet_append_byte, .-dmc_packet_append_byte
 240              		.section	.text.dmc_packet_unmarshal_out_of_order,"ax",%progbits
 241              		.align	2
 242              		.thumb
 243              		.thumb_func
 244              		.type	dmc_packet_unmarshal_out_of_order, %function
 245              	dmc_packet_unmarshal_out_of_order:
 246              	.LFB67:
 247              		.file 2 "..\\..\\..\\common\\hw\\include\\packet.h"
   1:..\..\..\common\hw\include/packet.h **** #ifndef DMC_PACKET_H
   2:..\..\..\common\hw\include/packet.h **** #define DMC_PACKET_H
   3:..\..\..\common\hw\include/packet.h **** 
   4:..\..\..\common\hw\include/packet.h **** #include "base_packet.h"
   5:..\..\..\common\hw\include/packet.h **** 
   6:..\..\..\common\hw\include/packet.h **** #ifdef MODULE
   7:..\..\..\common\hw\include/packet.h **** #include <linux/types.h>
   8:..\..\..\common\hw\include/packet.h **** #else
   9:..\..\..\common\hw\include/packet.h **** #include <stdint.h>
  10:..\..\..\common\hw\include/packet.h **** #endif
  11:..\..\..\common\hw\include/packet.h **** 
  12:..\..\..\common\hw\include/packet.h **** /**
  13:..\..\..\common\hw\include/packet.h ****  * @brief Reason codes for why the machine is out of order
  14:..\..\..\common\hw\include/packet.h ****  */
  15:..\..\..\common\hw\include/packet.h **** enum dmc_packet_out_of_order_reason
  16:..\..\..\common\hw\include/packet.h **** {
  17:..\..\..\common\hw\include/packet.h ****   /**
  18:..\..\..\common\hw\include/packet.h ****    * @brief An unknown error has occured
  19:..\..\..\common\hw\include/packet.h ****    */
  20:..\..\..\common\hw\include/packet.h ****   DMC_PACKET_OUT_OF_ORDER_REASON_UNKNOWN = 0,
  21:..\..\..\common\hw\include/packet.h **** 
  22:..\..\..\common\hw\include/packet.h ****   /**
  23:..\..\..\common\hw\include/packet.h ****    * @brief The machine detected that a fluid container 1
  24:..\..\..\common\hw\include/packet.h ****    * was removed from the machine
  25:..\..\..\common\hw\include/packet.h ****    */
  26:..\..\..\common\hw\include/packet.h ****   DMC_PACKET_OUT_OF_ORDER_REASON_FLUID_CONTAINER_1_REMOVED = 1,
  27:..\..\..\common\hw\include/packet.h **** 
  28:..\..\..\common\hw\include/packet.h ****   /**
  29:..\..\..\common\hw\include/packet.h ****    * @brief The machine detected that a fluid container 2
  30:..\..\..\common\hw\include/packet.h ****    * was removed from the machine
  31:..\..\..\common\hw\include/packet.h ****    */
  32:..\..\..\common\hw\include/packet.h ****   DMC_PACKET_OUT_OF_ORDER_REASON_FLUID_CONTAINER_2_REMOVED = 2,
  33:..\..\..\common\hw\include/packet.h **** 
  34:..\..\..\common\hw\include/packet.h ****   /**
  35:..\..\..\common\hw\include/packet.h ****    * @brief The machine detected that a fluid container 3
  36:..\..\..\common\hw\include/packet.h ****    * was removed from the machine
  37:..\..\..\common\hw\include/packet.h ****    */
  38:..\..\..\common\hw\include/packet.h ****   DMC_PACKET_OUT_OF_ORDER_REASON_FLUID_CONTAINER_3_REMOVED = 3,
ARM GAS  C:\Users\Runeg\AppData\Local\Temp\cci0HMiU.s 			page 8


  39:..\..\..\common\hw\include/packet.h **** };
  40:..\..\..\common\hw\include/packet.h **** 
  41:..\..\..\common\hw\include/packet.h **** /**
  42:..\..\..\common\hw\include/packet.h ****  * @brief Packet declaring machine is out of order with a reason code. So errors
  43:..\..\..\common\hw\include/packet.h ****  * can be viewed on the touch screen UI.
  44:..\..\..\common\hw\include/packet.h ****  *
  45:..\..\..\common\hw\include/packet.h ****  * Direction: PSoC -> RPi
  46:..\..\..\common\hw\include/packet.h ****  */
  47:..\..\..\common\hw\include/packet.h **** struct dmc_packet_out_of_order
  48:..\..\..\common\hw\include/packet.h **** {
  49:..\..\..\common\hw\include/packet.h ****   /**
  50:..\..\..\common\hw\include/packet.h ****    * @brief The reason code for the machine to be out of order. See enum
  51:..\..\..\common\hw\include/packet.h ****    * dmc_packet_out_of_order_reason for what the codes mean
  52:..\..\..\common\hw\include/packet.h ****    */
  53:..\..\..\common\hw\include/packet.h ****   enum dmc_packet_out_of_order_reason reason;
  54:..\..\..\common\hw\include/packet.h **** };
  55:..\..\..\common\hw\include/packet.h **** 
  56:..\..\..\common\hw\include/packet.h **** /**
  57:..\..\..\common\hw\include/packet.h ****  * @brief Unmarshal data into out of order packet from base packet
  58:..\..\..\common\hw\include/packet.h ****  */
  59:..\..\..\common\hw\include/packet.h **** static int
  60:..\..\..\common\hw\include/packet.h **** dmc_packet_unmarshal_out_of_order(struct dmc_packet_out_of_order *packet,
  61:..\..\..\common\hw\include/packet.h ****                                   struct dmc_packet              *from)
  62:..\..\..\common\hw\include/packet.h **** {
 248              		.loc 2 62 0
 249              		.cfi_startproc
 250              		@ args = 0, pretend = 0, frame = 16
 251              		@ frame_needed = 1, uses_anonymous_args = 0
 252              		@ link register save eliminated.
 253 0000 80B4     		push	{r7}
 254              		.cfi_def_cfa_offset 4
 255              		.cfi_offset 7, -4
 256 0002 85B0     		sub	sp, sp, #20
 257              		.cfi_def_cfa_offset 24
 258 0004 00AF     		add	r7, sp, #0
 259              		.cfi_def_cfa_register 7
 260 0006 7860     		str	r0, [r7, #4]
 261 0008 3960     		str	r1, [r7]
  63:..\..\..\common\hw\include/packet.h ****   if (from->type != DMC_PACKET_OUT_OF_ORDER)
 262              		.loc 2 63 0
 263 000a 3B68     		ldr	r3, [r7]
 264 000c 1B78     		ldrb	r3, [r3]	@ zero_extendqisi2
 265 000e 812B     		cmp	r3, #129
 266 0010 02D0     		beq	.L11
  64:..\..\..\common\hw\include/packet.h ****   {
  65:..\..\..\common\hw\include/packet.h ****     return -1;
 267              		.loc 2 65 0
 268 0012 4FF0FF33 		mov	r3, #-1
 269 0016 09E0     		b	.L12
 270              	.L11:
  66:..\..\..\common\hw\include/packet.h ****   }
  67:..\..\..\common\hw\include/packet.h **** 
  68:..\..\..\common\hw\include/packet.h ****   uint8_t offset = 0;
 271              		.loc 2 68 0
 272 0018 0023     		movs	r3, #0
 273 001a FB73     		strb	r3, [r7, #15]
  69:..\..\..\common\hw\include/packet.h ****   packet->reason = *(uint8_t *)(from->data + offset);
ARM GAS  C:\Users\Runeg\AppData\Local\Temp\cci0HMiU.s 			page 9


 274              		.loc 2 69 0
 275 001c 3B68     		ldr	r3, [r7]
 276 001e 5A68     		ldr	r2, [r3, #4]
 277 0020 FB7B     		ldrb	r3, [r7, #15]	@ zero_extendqisi2
 278 0022 1344     		add	r3, r3, r2
 279 0024 1A78     		ldrb	r2, [r3]	@ zero_extendqisi2
 280 0026 7B68     		ldr	r3, [r7, #4]
 281 0028 1A70     		strb	r2, [r3]
  70:..\..\..\common\hw\include/packet.h **** 
  71:..\..\..\common\hw\include/packet.h ****   return 0;
 282              		.loc 2 71 0
 283 002a 0023     		movs	r3, #0
 284              	.L12:
  72:..\..\..\common\hw\include/packet.h **** }
 285              		.loc 2 72 0
 286 002c 1846     		mov	r0, r3
 287 002e 1437     		adds	r7, r7, #20
 288              		.cfi_def_cfa_offset 4
 289 0030 BD46     		mov	sp, r7
 290              		.cfi_def_cfa_register 13
 291              		@ sp needed
 292 0032 80BC     		pop	{r7}
 293              		.cfi_restore 7
 294              		.cfi_def_cfa_offset 0
 295 0034 7047     		bx	lr
 296              		.cfi_endproc
 297              	.LFE67:
 298              		.size	dmc_packet_unmarshal_out_of_order, .-dmc_packet_unmarshal_out_of_order
 299 0036 00BF     		.section	.text.dmc_packet_marshal_out_of_order,"ax",%progbits
 300              		.align	2
 301              		.thumb
 302              		.thumb_func
 303              		.type	dmc_packet_marshal_out_of_order, %function
 304              	dmc_packet_marshal_out_of_order:
 305              	.LFB68:
  73:..\..\..\common\hw\include/packet.h **** 
  74:..\..\..\common\hw\include/packet.h **** /**
  75:..\..\..\common\hw\include/packet.h ****  * @brief Marshal out of order packet struct into base packet
  76:..\..\..\common\hw\include/packet.h ****  */
  77:..\..\..\common\hw\include/packet.h **** static int
  78:..\..\..\common\hw\include/packet.h **** dmc_packet_marshal_out_of_order(struct dmc_packet             **to,
  79:..\..\..\common\hw\include/packet.h ****                                 struct dmc_packet_out_of_order *packet)
  80:..\..\..\common\hw\include/packet.h **** {
 306              		.loc 2 80 0
 307              		.cfi_startproc
 308              		@ args = 0, pretend = 0, frame = 16
 309              		@ frame_needed = 1, uses_anonymous_args = 0
 310 0000 80B5     		push	{r7, lr}
 311              		.cfi_def_cfa_offset 8
 312              		.cfi_offset 7, -8
 313              		.cfi_offset 14, -4
 314 0002 84B0     		sub	sp, sp, #16
 315              		.cfi_def_cfa_offset 24
 316 0004 00AF     		add	r7, sp, #0
 317              		.cfi_def_cfa_register 7
 318 0006 7860     		str	r0, [r7, #4]
 319 0008 3960     		str	r1, [r7]
ARM GAS  C:\Users\Runeg\AppData\Local\Temp\cci0HMiU.s 			page 10


  81:..\..\..\common\hw\include/packet.h ****   if (to == NULL)
 320              		.loc 2 81 0
 321 000a 7B68     		ldr	r3, [r7, #4]
 322 000c 002B     		cmp	r3, #0
 323 000e 02D1     		bne	.L14
  82:..\..\..\common\hw\include/packet.h ****   {
  83:..\..\..\common\hw\include/packet.h ****     // Pointer to the pointer must not be null
  84:..\..\..\common\hw\include/packet.h ****     return -1;
 324              		.loc 2 84 0
 325 0010 4FF0FF33 		mov	r3, #-1
 326 0014 20E0     		b	.L15
 327              	.L14:
  85:..\..\..\common\hw\include/packet.h ****   }
  86:..\..\..\common\hw\include/packet.h ****   if (*to == NULL)
 328              		.loc 2 86 0
 329 0016 7B68     		ldr	r3, [r7, #4]
 330 0018 1B68     		ldr	r3, [r3]
 331 001a 002B     		cmp	r3, #0
 332 001c 05D1     		bne	.L16
  87:..\..\..\common\hw\include/packet.h ****   {
  88:..\..\..\common\hw\include/packet.h ****     *to = dmc_packet_init(DMC_PACKET_OUT_OF_ORDER);
 333              		.loc 2 88 0
 334 001e 8120     		movs	r0, #129
 335 0020 FFF7FEFF 		bl	dmc_packet_init
 336 0024 0246     		mov	r2, r0
 337 0026 7B68     		ldr	r3, [r7, #4]
 338 0028 1A60     		str	r2, [r3]
 339              	.L16:
  89:..\..\..\common\hw\include/packet.h ****   }
  90:..\..\..\common\hw\include/packet.h ****   if ((*to)->type != DMC_PACKET_OUT_OF_ORDER)
 340              		.loc 2 90 0
 341 002a 7B68     		ldr	r3, [r7, #4]
 342 002c 1B68     		ldr	r3, [r3]
 343 002e 1B78     		ldrb	r3, [r3]	@ zero_extendqisi2
 344 0030 812B     		cmp	r3, #129
 345 0032 02D0     		beq	.L17
  91:..\..\..\common\hw\include/packet.h ****   {
  92:..\..\..\common\hw\include/packet.h ****     return -2;
 346              		.loc 2 92 0
 347 0034 6FF00103 		mvn	r3, #1
 348 0038 0EE0     		b	.L15
 349              	.L17:
  93:..\..\..\common\hw\include/packet.h ****   }
  94:..\..\..\common\hw\include/packet.h **** 
  95:..\..\..\common\hw\include/packet.h ****   uint8_t offset                     = 0;
 350              		.loc 2 95 0
 351 003a 0023     		movs	r3, #0
 352 003c FB73     		strb	r3, [r7, #15]
  96:..\..\..\common\hw\include/packet.h ****   *(uint8_t *)((*to)->data + offset) = packet->reason;
 353              		.loc 2 96 0
 354 003e 7B68     		ldr	r3, [r7, #4]
 355 0040 1B68     		ldr	r3, [r3]
 356 0042 5A68     		ldr	r2, [r3, #4]
 357 0044 FB7B     		ldrb	r3, [r7, #15]	@ zero_extendqisi2
 358 0046 1344     		add	r3, r3, r2
 359 0048 3A68     		ldr	r2, [r7]
 360 004a 1278     		ldrb	r2, [r2]	@ zero_extendqisi2
ARM GAS  C:\Users\Runeg\AppData\Local\Temp\cci0HMiU.s 			page 11


 361 004c 1A70     		strb	r2, [r3]
  97:..\..\..\common\hw\include/packet.h **** 
  98:..\..\..\common\hw\include/packet.h ****   (*to)->data_len = 1;
 362              		.loc 2 98 0
 363 004e 7B68     		ldr	r3, [r7, #4]
 364 0050 1B68     		ldr	r3, [r3]
 365 0052 0122     		movs	r2, #1
 366 0054 9A60     		str	r2, [r3, #8]
  99:..\..\..\common\hw\include/packet.h ****   return 0;
 367              		.loc 2 99 0
 368 0056 0023     		movs	r3, #0
 369              	.L15:
 100:..\..\..\common\hw\include/packet.h **** }
 370              		.loc 2 100 0
 371 0058 1846     		mov	r0, r3
 372 005a 1037     		adds	r7, r7, #16
 373              		.cfi_def_cfa_offset 8
 374 005c BD46     		mov	sp, r7
 375              		.cfi_def_cfa_register 13
 376              		@ sp needed
 377 005e 80BD     		pop	{r7, pc}
 378              		.cfi_endproc
 379              	.LFE68:
 380              		.size	dmc_packet_marshal_out_of_order, .-dmc_packet_marshal_out_of_order
 381              		.section	.text.dmc_packet_unmarshal_container_volume_measured,"ax",%progbits
 382              		.align	2
 383              		.thumb
 384              		.thumb_func
 385              		.type	dmc_packet_unmarshal_container_volume_measured, %function
 386              	dmc_packet_unmarshal_container_volume_measured:
 387              	.LFB69:
 101:..\..\..\common\hw\include/packet.h **** 
 102:..\..\..\common\hw\include/packet.h **** /**
 103:..\..\..\common\hw\include/packet.h ****  * @brief Packet declaring that a new weight measurement has been made.
 104:..\..\..\common\hw\include/packet.h ****  *
 105:..\..\..\common\hw\include/packet.h ****  * Direction: PSoC -> RPi
 106:..\..\..\common\hw\include/packet.h ****  */
 107:..\..\..\common\hw\include/packet.h **** struct dmc_packet_container_volume_measured
 108:..\..\..\common\hw\include/packet.h **** {
 109:..\..\..\common\hw\include/packet.h ****   /**
 110:..\..\..\common\hw\include/packet.h ****    * @brief The container the measurement was from. Ranging from 0-2
 111:..\..\..\common\hw\include/packet.h ****    */
 112:..\..\..\common\hw\include/packet.h ****   uint8_t container;
 113:..\..\..\common\hw\include/packet.h **** 
 114:..\..\..\common\hw\include/packet.h ****   /**
 115:..\..\..\common\hw\include/packet.h ****    * @brief Volume measured in centiliters
 116:..\..\..\common\hw\include/packet.h ****    */
 117:..\..\..\common\hw\include/packet.h ****   int16_t volume;
 118:..\..\..\common\hw\include/packet.h **** };
 119:..\..\..\common\hw\include/packet.h **** 
 120:..\..\..\common\hw\include/packet.h **** /**
 121:..\..\..\common\hw\include/packet.h ****  * @brief Unmarshal data into container volume measured packet from base packet
 122:..\..\..\common\hw\include/packet.h ****  */
 123:..\..\..\common\hw\include/packet.h **** static int dmc_packet_unmarshal_container_volume_measured(
 124:..\..\..\common\hw\include/packet.h ****     struct dmc_packet_container_volume_measured *packet,
 125:..\..\..\common\hw\include/packet.h ****     struct dmc_packet                           *from)
 126:..\..\..\common\hw\include/packet.h **** {
ARM GAS  C:\Users\Runeg\AppData\Local\Temp\cci0HMiU.s 			page 12


 388              		.loc 2 126 0
 389              		.cfi_startproc
 390              		@ args = 0, pretend = 0, frame = 16
 391              		@ frame_needed = 1, uses_anonymous_args = 0
 392              		@ link register save eliminated.
 393 0000 80B4     		push	{r7}
 394              		.cfi_def_cfa_offset 4
 395              		.cfi_offset 7, -4
 396 0002 85B0     		sub	sp, sp, #20
 397              		.cfi_def_cfa_offset 24
 398 0004 00AF     		add	r7, sp, #0
 399              		.cfi_def_cfa_register 7
 400 0006 7860     		str	r0, [r7, #4]
 401 0008 3960     		str	r1, [r7]
 127:..\..\..\common\hw\include/packet.h ****   if (from->type != DMC_PACKET_CONTAINER_VOLUME_MEASURED)
 402              		.loc 2 127 0
 403 000a 3B68     		ldr	r3, [r7]
 404 000c 1B78     		ldrb	r3, [r3]	@ zero_extendqisi2
 405 000e 922B     		cmp	r3, #146
 406 0010 02D0     		beq	.L19
 128:..\..\..\common\hw\include/packet.h ****   {
 129:..\..\..\common\hw\include/packet.h ****     return -1;
 407              		.loc 2 129 0
 408 0012 4FF0FF33 		mov	r3, #-1
 409 0016 14E0     		b	.L20
 410              	.L19:
 130:..\..\..\common\hw\include/packet.h ****   }
 131:..\..\..\common\hw\include/packet.h **** 
 132:..\..\..\common\hw\include/packet.h ****   uint8_t offset    = 0;
 411              		.loc 2 132 0
 412 0018 0023     		movs	r3, #0
 413 001a FB73     		strb	r3, [r7, #15]
 133:..\..\..\common\hw\include/packet.h ****   packet->container = *(uint8_t *)(from->data + offset);
 414              		.loc 2 133 0
 415 001c 3B68     		ldr	r3, [r7]
 416 001e 5A68     		ldr	r2, [r3, #4]
 417 0020 FB7B     		ldrb	r3, [r7, #15]	@ zero_extendqisi2
 418 0022 1344     		add	r3, r3, r2
 419 0024 1A78     		ldrb	r2, [r3]	@ zero_extendqisi2
 420 0026 7B68     		ldr	r3, [r7, #4]
 421 0028 1A70     		strb	r2, [r3]
 134:..\..\..\common\hw\include/packet.h **** 
 135:..\..\..\common\hw\include/packet.h ****   offset += sizeof(packet->container); // Move offset of previous data
 422              		.loc 2 135 0
 423 002a FB7B     		ldrb	r3, [r7, #15]
 424 002c 0133     		adds	r3, r3, #1
 425 002e FB73     		strb	r3, [r7, #15]
 136:..\..\..\common\hw\include/packet.h ****   packet->volume = *(uint8_t *)(from->data + offset);
 426              		.loc 2 136 0
 427 0030 3B68     		ldr	r3, [r7]
 428 0032 5A68     		ldr	r2, [r3, #4]
 429 0034 FB7B     		ldrb	r3, [r7, #15]	@ zero_extendqisi2
 430 0036 1344     		add	r3, r3, r2
 431 0038 1B78     		ldrb	r3, [r3]	@ zero_extendqisi2
 432 003a 1AB2     		sxth	r2, r3
 433 003c 7B68     		ldr	r3, [r7, #4]
 434 003e 5A80     		strh	r2, [r3, #2]	@ movhi
ARM GAS  C:\Users\Runeg\AppData\Local\Temp\cci0HMiU.s 			page 13


 137:..\..\..\common\hw\include/packet.h **** 
 138:..\..\..\common\hw\include/packet.h ****   return 0;
 435              		.loc 2 138 0
 436 0040 0023     		movs	r3, #0
 437              	.L20:
 139:..\..\..\common\hw\include/packet.h **** }
 438              		.loc 2 139 0
 439 0042 1846     		mov	r0, r3
 440 0044 1437     		adds	r7, r7, #20
 441              		.cfi_def_cfa_offset 4
 442 0046 BD46     		mov	sp, r7
 443              		.cfi_def_cfa_register 13
 444              		@ sp needed
 445 0048 80BC     		pop	{r7}
 446              		.cfi_restore 7
 447              		.cfi_def_cfa_offset 0
 448 004a 7047     		bx	lr
 449              		.cfi_endproc
 450              	.LFE69:
 451              		.size	dmc_packet_unmarshal_container_volume_measured, .-dmc_packet_unmarshal_container_volume_meas
 452              		.section	.text.dmc_packet_marshal_container_volume_measured,"ax",%progbits
 453              		.align	2
 454              		.thumb
 455              		.thumb_func
 456              		.type	dmc_packet_marshal_container_volume_measured, %function
 457              	dmc_packet_marshal_container_volume_measured:
 458              	.LFB70:
 140:..\..\..\common\hw\include/packet.h **** 
 141:..\..\..\common\hw\include/packet.h **** /**
 142:..\..\..\common\hw\include/packet.h ****  * @brief Marshal container volume measured packet struct into base packet
 143:..\..\..\common\hw\include/packet.h ****  */
 144:..\..\..\common\hw\include/packet.h **** static int dmc_packet_marshal_container_volume_measured(
 145:..\..\..\common\hw\include/packet.h ****     struct dmc_packet **to, struct dmc_packet_container_volume_measured *packet)
 146:..\..\..\common\hw\include/packet.h **** {
 459              		.loc 2 146 0
 460              		.cfi_startproc
 461              		@ args = 0, pretend = 0, frame = 16
 462              		@ frame_needed = 1, uses_anonymous_args = 0
 463 0000 80B5     		push	{r7, lr}
 464              		.cfi_def_cfa_offset 8
 465              		.cfi_offset 7, -8
 466              		.cfi_offset 14, -4
 467 0002 84B0     		sub	sp, sp, #16
 468              		.cfi_def_cfa_offset 24
 469 0004 00AF     		add	r7, sp, #0
 470              		.cfi_def_cfa_register 7
 471 0006 7860     		str	r0, [r7, #4]
 472 0008 3960     		str	r1, [r7]
 147:..\..\..\common\hw\include/packet.h ****   if (to == NULL)
 473              		.loc 2 147 0
 474 000a 7B68     		ldr	r3, [r7, #4]
 475 000c 002B     		cmp	r3, #0
 476 000e 02D1     		bne	.L22
 148:..\..\..\common\hw\include/packet.h ****   {
 149:..\..\..\common\hw\include/packet.h ****     // Pointer to the pointer must not be null
 150:..\..\..\common\hw\include/packet.h ****     return -1;
 477              		.loc 2 150 0
ARM GAS  C:\Users\Runeg\AppData\Local\Temp\cci0HMiU.s 			page 14


 478 0010 4FF0FF33 		mov	r3, #-1
 479 0014 2DE0     		b	.L23
 480              	.L22:
 151:..\..\..\common\hw\include/packet.h ****   }
 152:..\..\..\common\hw\include/packet.h ****   if (*to == NULL)
 481              		.loc 2 152 0
 482 0016 7B68     		ldr	r3, [r7, #4]
 483 0018 1B68     		ldr	r3, [r3]
 484 001a 002B     		cmp	r3, #0
 485 001c 05D1     		bne	.L24
 153:..\..\..\common\hw\include/packet.h ****   {
 154:..\..\..\common\hw\include/packet.h ****     *to = dmc_packet_init(DMC_PACKET_CONTAINER_VOLUME_MEASURED);
 486              		.loc 2 154 0
 487 001e 9220     		movs	r0, #146
 488 0020 FFF7FEFF 		bl	dmc_packet_init
 489 0024 0246     		mov	r2, r0
 490 0026 7B68     		ldr	r3, [r7, #4]
 491 0028 1A60     		str	r2, [r3]
 492              	.L24:
 155:..\..\..\common\hw\include/packet.h ****   }
 156:..\..\..\common\hw\include/packet.h ****   if ((*to)->type != DMC_PACKET_CONTAINER_VOLUME_MEASURED)
 493              		.loc 2 156 0
 494 002a 7B68     		ldr	r3, [r7, #4]
 495 002c 1B68     		ldr	r3, [r3]
 496 002e 1B78     		ldrb	r3, [r3]	@ zero_extendqisi2
 497 0030 922B     		cmp	r3, #146
 498 0032 02D0     		beq	.L25
 157:..\..\..\common\hw\include/packet.h ****   {
 158:..\..\..\common\hw\include/packet.h ****     return -2;
 499              		.loc 2 158 0
 500 0034 6FF00103 		mvn	r3, #1
 501 0038 1BE0     		b	.L23
 502              	.L25:
 159:..\..\..\common\hw\include/packet.h ****   }
 160:..\..\..\common\hw\include/packet.h **** 
 161:..\..\..\common\hw\include/packet.h ****   uint8_t offset                     = 0;
 503              		.loc 2 161 0
 504 003a 0023     		movs	r3, #0
 505 003c FB73     		strb	r3, [r7, #15]
 162:..\..\..\common\hw\include/packet.h ****   *(uint8_t *)((*to)->data + offset) = packet->container;
 506              		.loc 2 162 0
 507 003e 7B68     		ldr	r3, [r7, #4]
 508 0040 1B68     		ldr	r3, [r3]
 509 0042 5A68     		ldr	r2, [r3, #4]
 510 0044 FB7B     		ldrb	r3, [r7, #15]	@ zero_extendqisi2
 511 0046 1344     		add	r3, r3, r2
 512 0048 3A68     		ldr	r2, [r7]
 513 004a 1278     		ldrb	r2, [r2]	@ zero_extendqisi2
 514 004c 1A70     		strb	r2, [r3]
 163:..\..\..\common\hw\include/packet.h **** 
 164:..\..\..\common\hw\include/packet.h ****   offset += sizeof(packet->container); // Move offset of previous data
 515              		.loc 2 164 0
 516 004e FB7B     		ldrb	r3, [r7, #15]
 517 0050 0133     		adds	r3, r3, #1
 518 0052 FB73     		strb	r3, [r7, #15]
 165:..\..\..\common\hw\include/packet.h ****   *(uint8_t *)((*to)->data + offset) = packet->volume;
 519              		.loc 2 165 0
ARM GAS  C:\Users\Runeg\AppData\Local\Temp\cci0HMiU.s 			page 15


 520 0054 7B68     		ldr	r3, [r7, #4]
 521 0056 1B68     		ldr	r3, [r3]
 522 0058 5A68     		ldr	r2, [r3, #4]
 523 005a FB7B     		ldrb	r3, [r7, #15]	@ zero_extendqisi2
 524 005c 1344     		add	r3, r3, r2
 525 005e 3A68     		ldr	r2, [r7]
 526 0060 B2F90220 		ldrsh	r2, [r2, #2]
 527 0064 D2B2     		uxtb	r2, r2
 528 0066 1A70     		strb	r2, [r3]
 166:..\..\..\common\hw\include/packet.h **** 
 167:..\..\..\common\hw\include/packet.h ****   (*to)->data_len = sizeof(packet->container) + sizeof(packet->volume);
 529              		.loc 2 167 0
 530 0068 7B68     		ldr	r3, [r7, #4]
 531 006a 1B68     		ldr	r3, [r3]
 532 006c 0322     		movs	r2, #3
 533 006e 9A60     		str	r2, [r3, #8]
 168:..\..\..\common\hw\include/packet.h ****   return 0;
 534              		.loc 2 168 0
 535 0070 0023     		movs	r3, #0
 536              	.L23:
 169:..\..\..\common\hw\include/packet.h **** }
 537              		.loc 2 169 0
 538 0072 1846     		mov	r0, r3
 539 0074 1037     		adds	r7, r7, #16
 540              		.cfi_def_cfa_offset 8
 541 0076 BD46     		mov	sp, r7
 542              		.cfi_def_cfa_register 13
 543              		@ sp needed
 544 0078 80BD     		pop	{r7, pc}
 545              		.cfi_endproc
 546              	.LFE70:
 547              		.size	dmc_packet_marshal_container_volume_measured, .-dmc_packet_marshal_container_volume_measured
 548 007a 00BF     		.section	.text.dmc_packet_unmarshal_user_confirm,"ax",%progbits
 549              		.align	2
 550              		.thumb
 551              		.thumb_func
 552              		.type	dmc_packet_unmarshal_user_confirm, %function
 553              	dmc_packet_unmarshal_user_confirm:
 554              	.LFB71:
 170:..\..\..\common\hw\include/packet.h **** 
 171:..\..\..\common\hw\include/packet.h **** /**
 172:..\..\..\common\hw\include/packet.h ****  * @brief Packet declaring that a user has confirmed something on the
 173:..\..\..\common\hw\include/packet.h ****  * touchscreen
 174:..\..\..\common\hw\include/packet.h ****  *
 175:..\..\..\common\hw\include/packet.h ****  * Direction: RPi -> PSoC
 176:..\..\..\common\hw\include/packet.h ****  */
 177:..\..\..\common\hw\include/packet.h **** struct dmc_packet_user_confirm
 178:..\..\..\common\hw\include/packet.h **** {
 179:..\..\..\common\hw\include/packet.h **** };
 180:..\..\..\common\hw\include/packet.h **** 
 181:..\..\..\common\hw\include/packet.h **** /**
 182:..\..\..\common\hw\include/packet.h ****  * @brief Unmarshal data into user confirm packet from base packet
 183:..\..\..\common\hw\include/packet.h ****  */
 184:..\..\..\common\hw\include/packet.h **** static int
 185:..\..\..\common\hw\include/packet.h **** dmc_packet_unmarshal_user_confirm(struct dmc_packet_user_confirm *packet,
 186:..\..\..\common\hw\include/packet.h ****                                   struct dmc_packet              *from)
 187:..\..\..\common\hw\include/packet.h **** {
ARM GAS  C:\Users\Runeg\AppData\Local\Temp\cci0HMiU.s 			page 16


 555              		.loc 2 187 0
 556              		.cfi_startproc
 557              		@ args = 0, pretend = 0, frame = 8
 558              		@ frame_needed = 1, uses_anonymous_args = 0
 559              		@ link register save eliminated.
 560 0000 80B4     		push	{r7}
 561              		.cfi_def_cfa_offset 4
 562              		.cfi_offset 7, -4
 563 0002 83B0     		sub	sp, sp, #12
 564              		.cfi_def_cfa_offset 16
 565 0004 00AF     		add	r7, sp, #0
 566              		.cfi_def_cfa_register 7
 567 0006 7860     		str	r0, [r7, #4]
 568 0008 3960     		str	r1, [r7]
 188:..\..\..\common\hw\include/packet.h ****   if (from->type != DMC_PACKET_USER_CONFIRM)
 569              		.loc 2 188 0
 570 000a 3B68     		ldr	r3, [r7]
 571 000c 1B78     		ldrb	r3, [r3]	@ zero_extendqisi2
 572 000e A02B     		cmp	r3, #160
 573 0010 02D0     		beq	.L27
 189:..\..\..\common\hw\include/packet.h ****   {
 190:..\..\..\common\hw\include/packet.h ****     return -1;
 574              		.loc 2 190 0
 575 0012 4FF0FF33 		mov	r3, #-1
 576 0016 00E0     		b	.L28
 577              	.L27:
 191:..\..\..\common\hw\include/packet.h ****   }
 192:..\..\..\common\hw\include/packet.h **** 
 193:..\..\..\common\hw\include/packet.h ****   return 0;
 578              		.loc 2 193 0
 579 0018 0023     		movs	r3, #0
 580              	.L28:
 194:..\..\..\common\hw\include/packet.h **** }
 581              		.loc 2 194 0
 582 001a 1846     		mov	r0, r3
 583 001c 0C37     		adds	r7, r7, #12
 584              		.cfi_def_cfa_offset 4
 585 001e BD46     		mov	sp, r7
 586              		.cfi_def_cfa_register 13
 587              		@ sp needed
 588 0020 80BC     		pop	{r7}
 589              		.cfi_restore 7
 590              		.cfi_def_cfa_offset 0
 591 0022 7047     		bx	lr
 592              		.cfi_endproc
 593              	.LFE71:
 594              		.size	dmc_packet_unmarshal_user_confirm, .-dmc_packet_unmarshal_user_confirm
 595              		.section	.text.dmc_packet_marshal_user_confirm,"ax",%progbits
 596              		.align	2
 597              		.thumb
 598              		.thumb_func
 599              		.type	dmc_packet_marshal_user_confirm, %function
 600              	dmc_packet_marshal_user_confirm:
 601              	.LFB72:
 195:..\..\..\common\hw\include/packet.h **** 
 196:..\..\..\common\hw\include/packet.h **** /**
 197:..\..\..\common\hw\include/packet.h ****  * @brief Marshal user confirm packet struct into base packet
ARM GAS  C:\Users\Runeg\AppData\Local\Temp\cci0HMiU.s 			page 17


 198:..\..\..\common\hw\include/packet.h ****  */
 199:..\..\..\common\hw\include/packet.h **** static int
 200:..\..\..\common\hw\include/packet.h **** dmc_packet_marshal_user_confirm(struct dmc_packet             **to,
 201:..\..\..\common\hw\include/packet.h ****                                 struct dmc_packet_user_confirm *packet)
 202:..\..\..\common\hw\include/packet.h **** {
 602              		.loc 2 202 0
 603              		.cfi_startproc
 604              		@ args = 0, pretend = 0, frame = 8
 605              		@ frame_needed = 1, uses_anonymous_args = 0
 606 0000 80B5     		push	{r7, lr}
 607              		.cfi_def_cfa_offset 8
 608              		.cfi_offset 7, -8
 609              		.cfi_offset 14, -4
 610 0002 82B0     		sub	sp, sp, #8
 611              		.cfi_def_cfa_offset 16
 612 0004 00AF     		add	r7, sp, #0
 613              		.cfi_def_cfa_register 7
 614 0006 7860     		str	r0, [r7, #4]
 615 0008 3960     		str	r1, [r7]
 203:..\..\..\common\hw\include/packet.h ****   if (to == NULL)
 616              		.loc 2 203 0
 617 000a 7B68     		ldr	r3, [r7, #4]
 618 000c 002B     		cmp	r3, #0
 619 000e 02D1     		bne	.L30
 204:..\..\..\common\hw\include/packet.h ****   {
 205:..\..\..\common\hw\include/packet.h ****     // Pointer to the pointer must not be null
 206:..\..\..\common\hw\include/packet.h ****     return -1;
 620              		.loc 2 206 0
 621 0010 4FF0FF33 		mov	r3, #-1
 622 0014 12E0     		b	.L31
 623              	.L30:
 207:..\..\..\common\hw\include/packet.h ****   }
 208:..\..\..\common\hw\include/packet.h ****   if (*to == NULL)
 624              		.loc 2 208 0
 625 0016 7B68     		ldr	r3, [r7, #4]
 626 0018 1B68     		ldr	r3, [r3]
 627 001a 002B     		cmp	r3, #0
 628 001c 05D1     		bne	.L32
 209:..\..\..\common\hw\include/packet.h ****   {
 210:..\..\..\common\hw\include/packet.h ****     *to = dmc_packet_init(DMC_PACKET_USER_CONFIRM);
 629              		.loc 2 210 0
 630 001e A020     		movs	r0, #160
 631 0020 FFF7FEFF 		bl	dmc_packet_init
 632 0024 0246     		mov	r2, r0
 633 0026 7B68     		ldr	r3, [r7, #4]
 634 0028 1A60     		str	r2, [r3]
 635              	.L32:
 211:..\..\..\common\hw\include/packet.h ****   }
 212:..\..\..\common\hw\include/packet.h ****   if ((*to)->type != DMC_PACKET_USER_CONFIRM)
 636              		.loc 2 212 0
 637 002a 7B68     		ldr	r3, [r7, #4]
 638 002c 1B68     		ldr	r3, [r3]
 639 002e 1B78     		ldrb	r3, [r3]	@ zero_extendqisi2
 640 0030 A02B     		cmp	r3, #160
 641 0032 02D0     		beq	.L33
 213:..\..\..\common\hw\include/packet.h ****   {
 214:..\..\..\common\hw\include/packet.h ****     return -2;
ARM GAS  C:\Users\Runeg\AppData\Local\Temp\cci0HMiU.s 			page 18


 642              		.loc 2 214 0
 643 0034 6FF00103 		mvn	r3, #1
 644 0038 00E0     		b	.L31
 645              	.L33:
 215:..\..\..\common\hw\include/packet.h ****   }
 216:..\..\..\common\hw\include/packet.h **** 
 217:..\..\..\common\hw\include/packet.h ****   return 0;
 646              		.loc 2 217 0
 647 003a 0023     		movs	r3, #0
 648              	.L31:
 218:..\..\..\common\hw\include/packet.h **** }
 649              		.loc 2 218 0
 650 003c 1846     		mov	r0, r3
 651 003e 0837     		adds	r7, r7, #8
 652              		.cfi_def_cfa_offset 8
 653 0040 BD46     		mov	sp, r7
 654              		.cfi_def_cfa_register 13
 655              		@ sp needed
 656 0042 80BD     		pop	{r7, pc}
 657              		.cfi_endproc
 658              	.LFE72:
 659              		.size	dmc_packet_marshal_user_confirm, .-dmc_packet_marshal_user_confirm
 660              		.section	.text.dmc_packet_unmarshal_machine_ok,"ax",%progbits
 661              		.align	2
 662              		.thumb
 663              		.thumb_func
 664              		.type	dmc_packet_unmarshal_machine_ok, %function
 665              	dmc_packet_unmarshal_machine_ok:
 666              	.LFB73:
 219:..\..\..\common\hw\include/packet.h **** 
 220:..\..\..\common\hw\include/packet.h **** /**
 221:..\..\..\common\hw\include/packet.h ****  * @brief Packet declaring that machine is ok after being out of order
 222:..\..\..\common\hw\include/packet.h ****  *
 223:..\..\..\common\hw\include/packet.h ****  * Direction: RPi -> PSoC
 224:..\..\..\common\hw\include/packet.h ****  */
 225:..\..\..\common\hw\include/packet.h **** struct dmc_packet_machine_ok
 226:..\..\..\common\hw\include/packet.h **** {
 227:..\..\..\common\hw\include/packet.h **** };
 228:..\..\..\common\hw\include/packet.h **** 
 229:..\..\..\common\hw\include/packet.h **** /**
 230:..\..\..\common\hw\include/packet.h ****  * @brief Unmarshal data into machine ok packet from base packet
 231:..\..\..\common\hw\include/packet.h ****  */
 232:..\..\..\common\hw\include/packet.h **** static int dmc_packet_unmarshal_machine_ok(struct dmc_packet_machine_ok *packet,
 233:..\..\..\common\hw\include/packet.h ****                                            struct dmc_packet            *from)
 234:..\..\..\common\hw\include/packet.h **** {
 667              		.loc 2 234 0
 668              		.cfi_startproc
 669              		@ args = 0, pretend = 0, frame = 8
 670              		@ frame_needed = 1, uses_anonymous_args = 0
 671              		@ link register save eliminated.
 672 0000 80B4     		push	{r7}
 673              		.cfi_def_cfa_offset 4
 674              		.cfi_offset 7, -4
 675 0002 83B0     		sub	sp, sp, #12
 676              		.cfi_def_cfa_offset 16
 677 0004 00AF     		add	r7, sp, #0
 678              		.cfi_def_cfa_register 7
ARM GAS  C:\Users\Runeg\AppData\Local\Temp\cci0HMiU.s 			page 19


 679 0006 7860     		str	r0, [r7, #4]
 680 0008 3960     		str	r1, [r7]
 235:..\..\..\common\hw\include/packet.h ****   if (from->type != DMC_PACKET_MACHINE_OK)
 681              		.loc 2 235 0
 682 000a 3B68     		ldr	r3, [r7]
 683 000c 1B78     		ldrb	r3, [r3]	@ zero_extendqisi2
 684 000e D02B     		cmp	r3, #208
 685 0010 02D0     		beq	.L35
 236:..\..\..\common\hw\include/packet.h ****   {
 237:..\..\..\common\hw\include/packet.h ****     return -1;
 686              		.loc 2 237 0
 687 0012 4FF0FF33 		mov	r3, #-1
 688 0016 00E0     		b	.L36
 689              	.L35:
 238:..\..\..\common\hw\include/packet.h ****   }
 239:..\..\..\common\hw\include/packet.h **** 
 240:..\..\..\common\hw\include/packet.h ****   return 0;
 690              		.loc 2 240 0
 691 0018 0023     		movs	r3, #0
 692              	.L36:
 241:..\..\..\common\hw\include/packet.h **** }
 693              		.loc 2 241 0
 694 001a 1846     		mov	r0, r3
 695 001c 0C37     		adds	r7, r7, #12
 696              		.cfi_def_cfa_offset 4
 697 001e BD46     		mov	sp, r7
 698              		.cfi_def_cfa_register 13
 699              		@ sp needed
 700 0020 80BC     		pop	{r7}
 701              		.cfi_restore 7
 702              		.cfi_def_cfa_offset 0
 703 0022 7047     		bx	lr
 704              		.cfi_endproc
 705              	.LFE73:
 706              		.size	dmc_packet_unmarshal_machine_ok, .-dmc_packet_unmarshal_machine_ok
 707              		.section	.text.dmc_packet_marshal_machine_ok,"ax",%progbits
 708              		.align	2
 709              		.thumb
 710              		.thumb_func
 711              		.type	dmc_packet_marshal_machine_ok, %function
 712              	dmc_packet_marshal_machine_ok:
 713              	.LFB74:
 242:..\..\..\common\hw\include/packet.h **** 
 243:..\..\..\common\hw\include/packet.h **** /**
 244:..\..\..\common\hw\include/packet.h ****  * @brief Marshal machine ok packet struct into base packet
 245:..\..\..\common\hw\include/packet.h ****  */
 246:..\..\..\common\hw\include/packet.h **** static int
 247:..\..\..\common\hw\include/packet.h **** dmc_packet_marshal_machine_ok(struct dmc_packet             **to,
 248:..\..\..\common\hw\include/packet.h ****                                 struct dmc_packet_machine_ok *packet)
 249:..\..\..\common\hw\include/packet.h **** {
 714              		.loc 2 249 0
 715              		.cfi_startproc
 716              		@ args = 0, pretend = 0, frame = 8
 717              		@ frame_needed = 1, uses_anonymous_args = 0
 718 0000 80B5     		push	{r7, lr}
 719              		.cfi_def_cfa_offset 8
 720              		.cfi_offset 7, -8
ARM GAS  C:\Users\Runeg\AppData\Local\Temp\cci0HMiU.s 			page 20


 721              		.cfi_offset 14, -4
 722 0002 82B0     		sub	sp, sp, #8
 723              		.cfi_def_cfa_offset 16
 724 0004 00AF     		add	r7, sp, #0
 725              		.cfi_def_cfa_register 7
 726 0006 7860     		str	r0, [r7, #4]
 727 0008 3960     		str	r1, [r7]
 250:..\..\..\common\hw\include/packet.h ****   if (to == NULL)
 728              		.loc 2 250 0
 729 000a 7B68     		ldr	r3, [r7, #4]
 730 000c 002B     		cmp	r3, #0
 731 000e 02D1     		bne	.L38
 251:..\..\..\common\hw\include/packet.h ****   {
 252:..\..\..\common\hw\include/packet.h ****     // Pointer to the pointer must not be null
 253:..\..\..\common\hw\include/packet.h ****     return -1;
 732              		.loc 2 253 0
 733 0010 4FF0FF33 		mov	r3, #-1
 734 0014 12E0     		b	.L39
 735              	.L38:
 254:..\..\..\common\hw\include/packet.h ****   }
 255:..\..\..\common\hw\include/packet.h ****   if (*to == NULL)
 736              		.loc 2 255 0
 737 0016 7B68     		ldr	r3, [r7, #4]
 738 0018 1B68     		ldr	r3, [r3]
 739 001a 002B     		cmp	r3, #0
 740 001c 05D1     		bne	.L40
 256:..\..\..\common\hw\include/packet.h ****   {
 257:..\..\..\common\hw\include/packet.h ****     *to = dmc_packet_init(DMC_PACKET_MACHINE_OK);
 741              		.loc 2 257 0
 742 001e D020     		movs	r0, #208
 743 0020 FFF7FEFF 		bl	dmc_packet_init
 744 0024 0246     		mov	r2, r0
 745 0026 7B68     		ldr	r3, [r7, #4]
 746 0028 1A60     		str	r2, [r3]
 747              	.L40:
 258:..\..\..\common\hw\include/packet.h ****   }
 259:..\..\..\common\hw\include/packet.h ****   if ((*to)->type != DMC_PACKET_MACHINE_OK)
 748              		.loc 2 259 0
 749 002a 7B68     		ldr	r3, [r7, #4]
 750 002c 1B68     		ldr	r3, [r3]
 751 002e 1B78     		ldrb	r3, [r3]	@ zero_extendqisi2
 752 0030 D02B     		cmp	r3, #208
 753 0032 02D0     		beq	.L41
 260:..\..\..\common\hw\include/packet.h ****   {
 261:..\..\..\common\hw\include/packet.h ****     return -2;
 754              		.loc 2 261 0
 755 0034 6FF00103 		mvn	r3, #1
 756 0038 00E0     		b	.L39
 757              	.L41:
 262:..\..\..\common\hw\include/packet.h ****   }
 263:..\..\..\common\hw\include/packet.h **** 
 264:..\..\..\common\hw\include/packet.h ****    return 0;
 758              		.loc 2 264 0
 759 003a 0023     		movs	r3, #0
 760              	.L39:
 265:..\..\..\common\hw\include/packet.h **** }
 761              		.loc 2 265 0
ARM GAS  C:\Users\Runeg\AppData\Local\Temp\cci0HMiU.s 			page 21


 762 003c 1846     		mov	r0, r3
 763 003e 0837     		adds	r7, r7, #8
 764              		.cfi_def_cfa_offset 8
 765 0040 BD46     		mov	sp, r7
 766              		.cfi_def_cfa_register 13
 767              		@ sp needed
 768 0042 80BD     		pop	{r7, pc}
 769              		.cfi_endproc
 770              	.LFE74:
 771              		.size	dmc_packet_marshal_machine_ok, .-dmc_packet_marshal_machine_ok
 772              		.section	.text.dmc_packet_unmarshal_fluid_pour_requested,"ax",%progbits
 773              		.align	2
 774              		.thumb
 775              		.thumb_func
 776              		.type	dmc_packet_unmarshal_fluid_pour_requested, %function
 777              	dmc_packet_unmarshal_fluid_pour_requested:
 778              	.LFB75:
 266:..\..\..\common\hw\include/packet.h **** 
 267:..\..\..\common\hw\include/packet.h **** /**
 268:..\..\..\common\hw\include/packet.h ****  * @brief Packet declaring that the machine should start to pour fluid.
 269:..\..\..\common\hw\include/packet.h ****  *
 270:..\..\..\common\hw\include/packet.h ****  * Direction: RPi -> PSoC
 271:..\..\..\common\hw\include/packet.h ****  */
 272:..\..\..\common\hw\include/packet.h **** struct dmc_packet_fluid_pour_requested
 273:..\..\..\common\hw\include/packet.h **** {
 274:..\..\..\common\hw\include/packet.h ****   /**
 275:..\..\..\common\hw\include/packet.h ****    * @brief The container to pour from. Ranging from 0-2
 276:..\..\..\common\hw\include/packet.h ****    */
 277:..\..\..\common\hw\include/packet.h ****   uint8_t container;
 278:..\..\..\common\hw\include/packet.h **** 
 279:..\..\..\common\hw\include/packet.h ****   /**
 280:..\..\..\common\hw\include/packet.h ****    * @brief Amount to pour in centiliters
 281:..\..\..\common\hw\include/packet.h ****    */
 282:..\..\..\common\hw\include/packet.h ****   uint8_t amount;
 283:..\..\..\common\hw\include/packet.h **** };
 284:..\..\..\common\hw\include/packet.h **** 
 285:..\..\..\common\hw\include/packet.h **** /**
 286:..\..\..\common\hw\include/packet.h ****  * @brief Unmarshal data into fluid pour requested packet from base packet
 287:..\..\..\common\hw\include/packet.h ****  */
 288:..\..\..\common\hw\include/packet.h **** static int dmc_packet_unmarshal_fluid_pour_requested(
 289:..\..\..\common\hw\include/packet.h ****     struct dmc_packet_fluid_pour_requested *packet, struct dmc_packet *from)
 290:..\..\..\common\hw\include/packet.h **** {
 779              		.loc 2 290 0
 780              		.cfi_startproc
 781              		@ args = 0, pretend = 0, frame = 16
 782              		@ frame_needed = 1, uses_anonymous_args = 0
 783              		@ link register save eliminated.
 784 0000 80B4     		push	{r7}
 785              		.cfi_def_cfa_offset 4
 786              		.cfi_offset 7, -4
 787 0002 85B0     		sub	sp, sp, #20
 788              		.cfi_def_cfa_offset 24
 789 0004 00AF     		add	r7, sp, #0
 790              		.cfi_def_cfa_register 7
 791 0006 7860     		str	r0, [r7, #4]
 792 0008 3960     		str	r1, [r7]
 291:..\..\..\common\hw\include/packet.h ****   if (from->type != DMC_PACKET_FLUID_POUR_REQUESTED)
ARM GAS  C:\Users\Runeg\AppData\Local\Temp\cci0HMiU.s 			page 22


 793              		.loc 2 291 0
 794 000a 3B68     		ldr	r3, [r7]
 795 000c 1B78     		ldrb	r3, [r3]	@ zero_extendqisi2
 796 000e B22B     		cmp	r3, #178
 797 0010 02D0     		beq	.L43
 292:..\..\..\common\hw\include/packet.h ****   {
 293:..\..\..\common\hw\include/packet.h ****     return -1;
 798              		.loc 2 293 0
 799 0012 4FF0FF33 		mov	r3, #-1
 800 0016 13E0     		b	.L44
 801              	.L43:
 294:..\..\..\common\hw\include/packet.h ****   }
 295:..\..\..\common\hw\include/packet.h **** 
 296:..\..\..\common\hw\include/packet.h ****   uint8_t offset    = 0;
 802              		.loc 2 296 0
 803 0018 0023     		movs	r3, #0
 804 001a FB73     		strb	r3, [r7, #15]
 297:..\..\..\common\hw\include/packet.h ****   packet->container = *(uint8_t *)(from->data + offset);
 805              		.loc 2 297 0
 806 001c 3B68     		ldr	r3, [r7]
 807 001e 5A68     		ldr	r2, [r3, #4]
 808 0020 FB7B     		ldrb	r3, [r7, #15]	@ zero_extendqisi2
 809 0022 1344     		add	r3, r3, r2
 810 0024 1A78     		ldrb	r2, [r3]	@ zero_extendqisi2
 811 0026 7B68     		ldr	r3, [r7, #4]
 812 0028 1A70     		strb	r2, [r3]
 298:..\..\..\common\hw\include/packet.h **** 
 299:..\..\..\common\hw\include/packet.h ****   offset += sizeof(packet->container); // Move offset of previous data
 813              		.loc 2 299 0
 814 002a FB7B     		ldrb	r3, [r7, #15]
 815 002c 0133     		adds	r3, r3, #1
 816 002e FB73     		strb	r3, [r7, #15]
 300:..\..\..\common\hw\include/packet.h ****   packet->amount = *(uint8_t *)(from->data + offset);
 817              		.loc 2 300 0
 818 0030 3B68     		ldr	r3, [r7]
 819 0032 5A68     		ldr	r2, [r3, #4]
 820 0034 FB7B     		ldrb	r3, [r7, #15]	@ zero_extendqisi2
 821 0036 1344     		add	r3, r3, r2
 822 0038 1A78     		ldrb	r2, [r3]	@ zero_extendqisi2
 823 003a 7B68     		ldr	r3, [r7, #4]
 824 003c 5A70     		strb	r2, [r3, #1]
 301:..\..\..\common\hw\include/packet.h **** 
 302:..\..\..\common\hw\include/packet.h ****   return 0;
 825              		.loc 2 302 0
 826 003e 0023     		movs	r3, #0
 827              	.L44:
 303:..\..\..\common\hw\include/packet.h **** }
 828              		.loc 2 303 0
 829 0040 1846     		mov	r0, r3
 830 0042 1437     		adds	r7, r7, #20
 831              		.cfi_def_cfa_offset 4
 832 0044 BD46     		mov	sp, r7
 833              		.cfi_def_cfa_register 13
 834              		@ sp needed
 835 0046 80BC     		pop	{r7}
 836              		.cfi_restore 7
 837              		.cfi_def_cfa_offset 0
ARM GAS  C:\Users\Runeg\AppData\Local\Temp\cci0HMiU.s 			page 23


 838 0048 7047     		bx	lr
 839              		.cfi_endproc
 840              	.LFE75:
 841              		.size	dmc_packet_unmarshal_fluid_pour_requested, .-dmc_packet_unmarshal_fluid_pour_requested
 842 004a 00BF     		.section	.text.dmc_packet_marshal_fluid_pour_requested,"ax",%progbits
 843              		.align	2
 844              		.thumb
 845              		.thumb_func
 846              		.type	dmc_packet_marshal_fluid_pour_requested, %function
 847              	dmc_packet_marshal_fluid_pour_requested:
 848              	.LFB76:
 304:..\..\..\common\hw\include/packet.h **** 
 305:..\..\..\common\hw\include/packet.h **** /**
 306:..\..\..\common\hw\include/packet.h ****  * @brief Marshal fluid pour requested packet struct into base packet
 307:..\..\..\common\hw\include/packet.h ****  */
 308:..\..\..\common\hw\include/packet.h **** static int dmc_packet_marshal_fluid_pour_requested(
 309:..\..\..\common\hw\include/packet.h ****     struct dmc_packet **to, struct dmc_packet_fluid_pour_requested *packet)
 310:..\..\..\common\hw\include/packet.h **** {
 849              		.loc 2 310 0
 850              		.cfi_startproc
 851              		@ args = 0, pretend = 0, frame = 16
 852              		@ frame_needed = 1, uses_anonymous_args = 0
 853 0000 80B5     		push	{r7, lr}
 854              		.cfi_def_cfa_offset 8
 855              		.cfi_offset 7, -8
 856              		.cfi_offset 14, -4
 857 0002 84B0     		sub	sp, sp, #16
 858              		.cfi_def_cfa_offset 24
 859 0004 00AF     		add	r7, sp, #0
 860              		.cfi_def_cfa_register 7
 861 0006 7860     		str	r0, [r7, #4]
 862 0008 3960     		str	r1, [r7]
 311:..\..\..\common\hw\include/packet.h ****   if (to == NULL)
 863              		.loc 2 311 0
 864 000a 7B68     		ldr	r3, [r7, #4]
 865 000c 002B     		cmp	r3, #0
 866 000e 02D1     		bne	.L46
 312:..\..\..\common\hw\include/packet.h ****   {
 313:..\..\..\common\hw\include/packet.h ****     // Pointer to the pointer must not be null
 314:..\..\..\common\hw\include/packet.h ****     return -1;
 867              		.loc 2 314 0
 868 0010 4FF0FF33 		mov	r3, #-1
 869 0014 2FE0     		b	.L47
 870              	.L46:
 315:..\..\..\common\hw\include/packet.h ****   }
 316:..\..\..\common\hw\include/packet.h ****   if (*to == NULL)
 871              		.loc 2 316 0
 872 0016 7B68     		ldr	r3, [r7, #4]
 873 0018 1B68     		ldr	r3, [r3]
 874 001a 002B     		cmp	r3, #0
 875 001c 05D1     		bne	.L48
 317:..\..\..\common\hw\include/packet.h ****   {
 318:..\..\..\common\hw\include/packet.h ****     // If the underlying dmc_packet* is not yet allocalted, allocate it
 319:..\..\..\common\hw\include/packet.h ****     *to = dmc_packet_init(DMC_PACKET_FLUID_POUR_REQUESTED);
 876              		.loc 2 319 0
 877 001e B220     		movs	r0, #178
 878 0020 FFF7FEFF 		bl	dmc_packet_init
ARM GAS  C:\Users\Runeg\AppData\Local\Temp\cci0HMiU.s 			page 24


 879 0024 0246     		mov	r2, r0
 880 0026 7B68     		ldr	r3, [r7, #4]
 881 0028 1A60     		str	r2, [r3]
 882              	.L48:
 320:..\..\..\common\hw\include/packet.h ****   }
 321:..\..\..\common\hw\include/packet.h ****   if (*to != NULL && (*to)->type != DMC_PACKET_FLUID_POUR_REQUESTED)
 883              		.loc 2 321 0
 884 002a 7B68     		ldr	r3, [r7, #4]
 885 002c 1B68     		ldr	r3, [r3]
 886 002e 002B     		cmp	r3, #0
 887 0030 07D0     		beq	.L49
 888              		.loc 2 321 0 is_stmt 0 discriminator 1
 889 0032 7B68     		ldr	r3, [r7, #4]
 890 0034 1B68     		ldr	r3, [r3]
 891 0036 1B78     		ldrb	r3, [r3]	@ zero_extendqisi2
 892 0038 B22B     		cmp	r3, #178
 893 003a 02D0     		beq	.L49
 322:..\..\..\common\hw\include/packet.h ****   {
 323:..\..\..\common\hw\include/packet.h ****     // If type of underlying dmc_packet* is not the same as the packet type,
 324:..\..\..\common\hw\include/packet.h ****     // then return error
 325:..\..\..\common\hw\include/packet.h ****     return -2;
 894              		.loc 2 325 0 is_stmt 1
 895 003c 6FF00103 		mvn	r3, #1
 896 0040 19E0     		b	.L47
 897              	.L49:
 326:..\..\..\common\hw\include/packet.h ****   }
 327:..\..\..\common\hw\include/packet.h **** 
 328:..\..\..\common\hw\include/packet.h ****   uint8_t offset                     = 0;
 898              		.loc 2 328 0
 899 0042 0023     		movs	r3, #0
 900 0044 FB73     		strb	r3, [r7, #15]
 329:..\..\..\common\hw\include/packet.h ****   *(uint8_t *)((*to)->data + offset) = packet->container;
 901              		.loc 2 329 0
 902 0046 7B68     		ldr	r3, [r7, #4]
 903 0048 1B68     		ldr	r3, [r3]
 904 004a 5A68     		ldr	r2, [r3, #4]
 905 004c FB7B     		ldrb	r3, [r7, #15]	@ zero_extendqisi2
 906 004e 1344     		add	r3, r3, r2
 907 0050 3A68     		ldr	r2, [r7]
 908 0052 1278     		ldrb	r2, [r2]	@ zero_extendqisi2
 909 0054 1A70     		strb	r2, [r3]
 330:..\..\..\common\hw\include/packet.h **** 
 331:..\..\..\common\hw\include/packet.h ****   offset += sizeof(packet->container); // Move offset of previous data
 910              		.loc 2 331 0
 911 0056 FB7B     		ldrb	r3, [r7, #15]
 912 0058 0133     		adds	r3, r3, #1
 913 005a FB73     		strb	r3, [r7, #15]
 332:..\..\..\common\hw\include/packet.h ****   *(uint8_t *)((*to)->data + offset) = packet->amount;
 914              		.loc 2 332 0
 915 005c 7B68     		ldr	r3, [r7, #4]
 916 005e 1B68     		ldr	r3, [r3]
 917 0060 5A68     		ldr	r2, [r3, #4]
 918 0062 FB7B     		ldrb	r3, [r7, #15]	@ zero_extendqisi2
 919 0064 1344     		add	r3, r3, r2
 920 0066 3A68     		ldr	r2, [r7]
 921 0068 5278     		ldrb	r2, [r2, #1]	@ zero_extendqisi2
 922 006a 1A70     		strb	r2, [r3]
ARM GAS  C:\Users\Runeg\AppData\Local\Temp\cci0HMiU.s 			page 25


 333:..\..\..\common\hw\include/packet.h **** 
 334:..\..\..\common\hw\include/packet.h ****   (*to)->data_len = sizeof(packet->container) + sizeof(packet->amount);
 923              		.loc 2 334 0
 924 006c 7B68     		ldr	r3, [r7, #4]
 925 006e 1B68     		ldr	r3, [r3]
 926 0070 0222     		movs	r2, #2
 927 0072 9A60     		str	r2, [r3, #8]
 335:..\..\..\common\hw\include/packet.h ****   return 0;
 928              		.loc 2 335 0
 929 0074 0023     		movs	r3, #0
 930              	.L47:
 336:..\..\..\common\hw\include/packet.h **** }
 931              		.loc 2 336 0
 932 0076 1846     		mov	r0, r3
 933 0078 1037     		adds	r7, r7, #16
 934              		.cfi_def_cfa_offset 8
 935 007a BD46     		mov	sp, r7
 936              		.cfi_def_cfa_register 13
 937              		@ sp needed
 938 007c 80BD     		pop	{r7, pc}
 939              		.cfi_endproc
 940              	.LFE76:
 941              		.size	dmc_packet_marshal_fluid_pour_requested, .-dmc_packet_marshal_fluid_pour_requested
 942              		.comm	weight1,14,4
 943              		.comm	weight2,14,4
 944              		.comm	weight3,14,4
 945              		.comm	current_weight,4,4
 946              		.global	MAX_VOLUME_IN_CONTAINER
 947 007e 00BF     		.data
 948              		.type	MAX_VOLUME_IN_CONTAINER, %object
 949              		.size	MAX_VOLUME_IN_CONTAINER, 1
 950              	MAX_VOLUME_IN_CONTAINER:
 951 0000 46       		.byte	70
 952              		.global	pump_1_periods_pr_cl
 953 0001 000000   		.align	2
 954              		.type	pump_1_periods_pr_cl, %object
 955              		.size	pump_1_periods_pr_cl, 4
 956              	pump_1_periods_pr_cl:
 957 0004 60090000 		.word	2400
 958              		.global	pump_2_periods_pr_cl
 959              		.align	2
 960              		.type	pump_2_periods_pr_cl, %object
 961              		.size	pump_2_periods_pr_cl, 4
 962              	pump_2_periods_pr_cl:
 963 0008 900B0000 		.word	2960
 964              		.global	pump_3_periods_pr_cl
 965              		.align	2
 966              		.type	pump_3_periods_pr_cl, %object
 967              		.size	pump_3_periods_pr_cl, 4
 968              	pump_3_periods_pr_cl:
 969 000c 900B0000 		.word	2960
 970              		.section	.text.PERIODS_PR_CL,"ax",%progbits
 971              		.align	2
 972              		.global	PERIODS_PR_CL
 973              		.thumb
 974              		.thumb_func
 975              		.type	PERIODS_PR_CL, %function
ARM GAS  C:\Users\Runeg\AppData\Local\Temp\cci0HMiU.s 			page 26


 976              	PERIODS_PR_CL:
 977              	.LFB78:
 978              		.file 3 "dmc_controller.c"
   1:dmc_controller.c **** /* ========================================
   2:dmc_controller.c ****  *
   3:dmc_controller.c ****  * Copyright YOUR COMPANY, THE YEAR
   4:dmc_controller.c ****  * All Rights Reserved
   5:dmc_controller.c ****  * UNPUBLISHED, LICENSED SOFTWARE.
   6:dmc_controller.c ****  *
   7:dmc_controller.c ****  * CONFIDENTIAL AND PROPRIETARY INFORMATION
   8:dmc_controller.c ****  * WHICH IS THE PROPERTY OF your company.
   9:dmc_controller.c ****  *
  10:dmc_controller.c ****  * ========================================
  11:dmc_controller.c **** */
  12:dmc_controller.c **** #include "project.h"
  13:dmc_controller.c **** #include "dmc_job_queue.h"
  14:dmc_controller.c **** #include "dmc_pump_control.h"
  15:dmc_controller.c **** #include <stdio.h>
  16:dmc_controller.c **** #include "dmc_weight.h"
  17:dmc_controller.c **** #include "dmc_uart_rpi.h"
  18:dmc_controller.c **** 
  19:dmc_controller.c **** 
  20:dmc_controller.c **** uint8_t MAX_VOLUME_IN_CONTAINER = 70;
  21:dmc_controller.c **** int pump_1_periods_pr_cl = 2400;
  22:dmc_controller.c **** int pump_2_periods_pr_cl = 2960;
  23:dmc_controller.c **** int pump_3_periods_pr_cl = 2960;
  24:dmc_controller.c **** 
  25:dmc_controller.c **** 
  26:dmc_controller.c **** int PERIODS_PR_CL(enum dmc_pump_timer pump_timer)
  27:dmc_controller.c **** {
 979              		.loc 3 27 0
 980              		.cfi_startproc
 981              		@ args = 0, pretend = 0, frame = 8
 982              		@ frame_needed = 1, uses_anonymous_args = 0
 983              		@ link register save eliminated.
 984 0000 80B4     		push	{r7}
 985              		.cfi_def_cfa_offset 4
 986              		.cfi_offset 7, -4
 987 0002 83B0     		sub	sp, sp, #12
 988              		.cfi_def_cfa_offset 16
 989 0004 00AF     		add	r7, sp, #0
 990              		.cfi_def_cfa_register 7
 991 0006 0346     		mov	r3, r0
 992 0008 FB71     		strb	r3, [r7, #7]
  28:dmc_controller.c ****     switch (pump_timer)
 993              		.loc 3 28 0
 994 000a FB79     		ldrb	r3, [r7, #7]	@ zero_extendqisi2
 995 000c 022B     		cmp	r3, #2
 996 000e 06D0     		beq	.L52
 997 0010 032B     		cmp	r3, #3
 998 0012 07D0     		beq	.L53
 999 0014 012B     		cmp	r3, #1
 1000 0016 08D1     		bne	.L56
  29:dmc_controller.c ****     {
  30:dmc_controller.c ****     case PUMP_TIMER_1: return pump_1_periods_pr_cl;
 1001              		.loc 3 30 0
 1002 0018 064B     		ldr	r3, .L57
ARM GAS  C:\Users\Runeg\AppData\Local\Temp\cci0HMiU.s 			page 27


 1003 001a 1B68     		ldr	r3, [r3]
 1004 001c 05E0     		b	.L50
 1005              	.L52:
  31:dmc_controller.c ****     case PUMP_TIMER_2: return pump_2_periods_pr_cl;
 1006              		.loc 3 31 0
 1007 001e 064B     		ldr	r3, .L57+4
 1008 0020 1B68     		ldr	r3, [r3]
 1009 0022 02E0     		b	.L50
 1010              	.L53:
  32:dmc_controller.c ****     case PUMP_TIMER_3: return pump_3_periods_pr_cl;
 1011              		.loc 3 32 0
 1012 0024 054B     		ldr	r3, .L57+8
 1013 0026 1B68     		ldr	r3, [r3]
 1014 0028 FFE7     		b	.L50
 1015              	.L56:
 1016              	.L50:
  33:dmc_controller.c ****     }
  34:dmc_controller.c **** 
  35:dmc_controller.c **** }
 1017              		.loc 3 35 0
 1018 002a 1846     		mov	r0, r3
 1019 002c 0C37     		adds	r7, r7, #12
 1020              		.cfi_def_cfa_offset 4
 1021 002e BD46     		mov	sp, r7
 1022              		.cfi_def_cfa_register 13
 1023              		@ sp needed
 1024 0030 80BC     		pop	{r7}
 1025              		.cfi_restore 7
 1026              		.cfi_def_cfa_offset 0
 1027 0032 7047     		bx	lr
 1028              	.L58:
 1029              		.align	2
 1030              	.L57:
 1031 0034 00000000 		.word	pump_1_periods_pr_cl
 1032 0038 00000000 		.word	pump_2_periods_pr_cl
 1033 003c 00000000 		.word	pump_3_periods_pr_cl
 1034              		.cfi_endproc
 1035              	.LFE78:
 1036              		.size	PERIODS_PR_CL, .-PERIODS_PR_CL
 1037              		.global	__aeabi_ui2d
 1038              		.global	__aeabi_ddiv
 1039              		.global	__aeabi_dmul
 1040              		.global	__aeabi_dcmpgt
 1041              		.global	__aeabi_dcmplt
 1042              		.global	__aeabi_i2d
 1043              		.global	__aeabi_d2uiz
 1044              		.section	.text.weight_to_cl,"ax",%progbits
 1045              		.align	2
 1046              		.global	weight_to_cl
 1047              		.thumb
 1048              		.thumb_func
 1049              		.type	weight_to_cl, %function
 1050              	weight_to_cl:
 1051              	.LFB79:
  36:dmc_controller.c **** 
  37:dmc_controller.c **** uint16_t weight_to_cl()
  38:dmc_controller.c **** {   
ARM GAS  C:\Users\Runeg\AppData\Local\Temp\cci0HMiU.s 			page 28


 1052              		.loc 3 38 0
 1053              		.cfi_startproc
 1054              		@ args = 0, pretend = 0, frame = 24
 1055              		@ frame_needed = 1, uses_anonymous_args = 0
 1056 0000 B0B5     		push	{r4, r5, r7, lr}
 1057              		.cfi_def_cfa_offset 16
 1058              		.cfi_offset 4, -16
 1059              		.cfi_offset 5, -12
 1060              		.cfi_offset 7, -8
 1061              		.cfi_offset 14, -4
 1062 0002 86B0     		sub	sp, sp, #24
 1063              		.cfi_def_cfa_offset 40
 1064 0004 00AF     		add	r7, sp, #0
 1065              		.cfi_def_cfa_register 7
  39:dmc_controller.c ****     
  40:dmc_controller.c ****     uint16_t temp_result = (current_weight->result - current_weight->tara - current_weight->min);
 1066              		.loc 3 40 0
 1067 0006 364B     		ldr	r3, .L66
 1068 0008 1B68     		ldr	r3, [r3]
 1069 000a 5A88     		ldrh	r2, [r3, #2]
 1070 000c 344B     		ldr	r3, .L66
 1071 000e 1B68     		ldr	r3, [r3]
 1072 0010 B3F90430 		ldrsh	r3, [r3, #4]
 1073 0014 9BB2     		uxth	r3, r3
 1074 0016 D31A     		subs	r3, r2, r3
 1075 0018 9AB2     		uxth	r2, r3
 1076 001a 314B     		ldr	r3, .L66
 1077 001c 1B68     		ldr	r3, [r3]
 1078 001e 1B89     		ldrh	r3, [r3, #8]
 1079 0020 D31A     		subs	r3, r2, r3
 1080 0022 FB82     		strh	r3, [r7, #22]	@ movhi
  41:dmc_controller.c ****     uint16_t temp_max = (current_weight->max - current_weight->min);
 1081              		.loc 3 41 0
 1082 0024 2E4B     		ldr	r3, .L66
 1083 0026 1B68     		ldr	r3, [r3]
 1084 0028 5A89     		ldrh	r2, [r3, #10]
 1085 002a 2D4B     		ldr	r3, .L66
 1086 002c 1B68     		ldr	r3, [r3]
 1087 002e 1B89     		ldrh	r3, [r3, #8]
 1088 0030 D31A     		subs	r3, r2, r3
 1089 0032 BB82     		strh	r3, [r7, #20]	@ movhi
  42:dmc_controller.c ****     uint16_t temp_min = current_weight->min;
 1090              		.loc 3 42 0
 1091 0034 2A4B     		ldr	r3, .L66
 1092 0036 1B68     		ldr	r3, [r3]
 1093 0038 1B89     		ldrh	r3, [r3, #8]	@ movhi
 1094 003a 7B82     		strh	r3, [r7, #18]	@ movhi
  43:dmc_controller.c ****     
  44:dmc_controller.c ****     
  45:dmc_controller.c ****     //If value is extraordinary big, it is error from weight
  46:dmc_controller.c ****     if (temp_result > 2500)
 1095              		.loc 3 46 0
 1096 003c FB8A     		ldrh	r3, [r7, #22]
 1097 003e 40F6C412 		movw	r2, #2500
 1098 0042 9342     		cmp	r3, r2
 1099 0044 01D9     		bls	.L60
  47:dmc_controller.c ****         temp_result = 0;
ARM GAS  C:\Users\Runeg\AppData\Local\Temp\cci0HMiU.s 			page 29


 1100              		.loc 3 47 0
 1101 0046 0023     		movs	r3, #0
 1102 0048 FB82     		strh	r3, [r7, #22]	@ movhi
 1103              	.L60:
  48:dmc_controller.c ****     
  49:dmc_controller.c ****     
  50:dmc_controller.c ****     double percent = (double)temp_result/(double)temp_max;
 1104              		.loc 3 50 0
 1105 004a FB8A     		ldrh	r3, [r7, #22]
 1106 004c 1846     		mov	r0, r3
 1107 004e FFF7FEFF 		bl	__aeabi_ui2d
 1108 0052 0446     		mov	r4, r0
 1109 0054 0D46     		mov	r5, r1
 1110 0056 BB8A     		ldrh	r3, [r7, #20]
 1111 0058 1846     		mov	r0, r3
 1112 005a FFF7FEFF 		bl	__aeabi_ui2d
 1113 005e 0246     		mov	r2, r0
 1114 0060 0B46     		mov	r3, r1
 1115 0062 2046     		mov	r0, r4
 1116 0064 2946     		mov	r1, r5
 1117 0066 FFF7FEFF 		bl	__aeabi_ddiv
 1118 006a 0346     		mov	r3, r0
 1119 006c 0C46     		mov	r4, r1
 1120 006e C7E90234 		strd	r3, [r7, #8]
  51:dmc_controller.c ****     
  52:dmc_controller.c ****     double print = percent*70;
 1121              		.loc 3 52 0
 1122 0072 4FF00002 		mov	r2, #0
 1123 0076 1B4B     		ldr	r3, .L66+4
 1124 0078 D7E90201 		ldrd	r0, [r7, #8]
 1125 007c FFF7FEFF 		bl	__aeabi_dmul
 1126 0080 0346     		mov	r3, r0
 1127 0082 0C46     		mov	r4, r1
 1128 0084 C7E90034 		strd	r3, [r7]
  53:dmc_controller.c ****     
  54:dmc_controller.c ****     if (percent > 120 || percent < 0)
 1129              		.loc 3 54 0
 1130 0088 4FF00002 		mov	r2, #0
 1131 008c 164B     		ldr	r3, .L66+8
 1132 008e D7E90201 		ldrd	r0, [r7, #8]
 1133 0092 FFF7FEFF 		bl	__aeabi_dcmpgt
 1134 0096 0346     		mov	r3, r0
 1135 0098 002B     		cmp	r3, #0
 1136 009a 0AD1     		bne	.L61
 1137              		.loc 3 54 0 is_stmt 0 discriminator 1
 1138 009c 4FF00002 		mov	r2, #0
 1139 00a0 4FF00003 		mov	r3, #0
 1140 00a4 D7E90201 		ldrd	r0, [r7, #8]
 1141 00a8 FFF7FEFF 		bl	__aeabi_dcmplt
 1142 00ac 0346     		mov	r3, r0
 1143 00ae 002B     		cmp	r3, #0
 1144 00b0 01D0     		beq	.L65
 1145              	.L61:
  55:dmc_controller.c ****         return 0;
 1146              		.loc 3 55 0 is_stmt 1
 1147 00b2 0023     		movs	r3, #0
 1148 00b4 10E0     		b	.L64
ARM GAS  C:\Users\Runeg\AppData\Local\Temp\cci0HMiU.s 			page 30


 1149              	.L65:
  56:dmc_controller.c ****     
  57:dmc_controller.c ****     return (double)(percent*MAX_VOLUME_IN_CONTAINER);
 1150              		.loc 3 57 0
 1151 00b6 0D4B     		ldr	r3, .L66+12
 1152 00b8 1B78     		ldrb	r3, [r3]	@ zero_extendqisi2
 1153 00ba 1846     		mov	r0, r3
 1154 00bc FFF7FEFF 		bl	__aeabi_i2d
 1155 00c0 D7E90223 		ldrd	r2, [r7, #8]
 1156 00c4 FFF7FEFF 		bl	__aeabi_dmul
 1157 00c8 0346     		mov	r3, r0
 1158 00ca 0C46     		mov	r4, r1
 1159 00cc 1846     		mov	r0, r3
 1160 00ce 2146     		mov	r1, r4
 1161 00d0 FFF7FEFF 		bl	__aeabi_d2uiz
 1162 00d4 0346     		mov	r3, r0
 1163 00d6 9BB2     		uxth	r3, r3
 1164              	.L64:
  58:dmc_controller.c ****     
  59:dmc_controller.c ****     
  60:dmc_controller.c **** }
 1165              		.loc 3 60 0
 1166 00d8 1846     		mov	r0, r3
 1167 00da 1837     		adds	r7, r7, #24
 1168              		.cfi_def_cfa_offset 16
 1169 00dc BD46     		mov	sp, r7
 1170              		.cfi_def_cfa_register 13
 1171              		@ sp needed
 1172 00de B0BD     		pop	{r4, r5, r7, pc}
 1173              	.L67:
 1174              		.align	2
 1175              	.L66:
 1176 00e0 00000000 		.word	current_weight
 1177 00e4 00805140 		.word	1079083008
 1178 00e8 00005E40 		.word	1079902208
 1179 00ec 00000000 		.word	MAX_VOLUME_IN_CONTAINER
 1180              		.cfi_endproc
 1181              	.LFE79:
 1182              		.size	weight_to_cl, .-weight_to_cl
 1183              		.section	.text.container_amount_init,"ax",%progbits
 1184              		.align	2
 1185              		.global	container_amount_init
 1186              		.thumb
 1187              		.thumb_func
 1188              		.type	container_amount_init, %function
 1189              	container_amount_init:
 1190              	.LFB80:
  61:dmc_controller.c **** 
  62:dmc_controller.c **** void container_amount_init()
  63:dmc_controller.c **** {
 1191              		.loc 3 63 0
 1192              		.cfi_startproc
 1193              		@ args = 0, pretend = 0, frame = 8
 1194              		@ frame_needed = 1, uses_anonymous_args = 0
 1195 0000 80B5     		push	{r7, lr}
 1196              		.cfi_def_cfa_offset 8
 1197              		.cfi_offset 7, -8
ARM GAS  C:\Users\Runeg\AppData\Local\Temp\cci0HMiU.s 			page 31


 1198              		.cfi_offset 14, -4
 1199 0002 82B0     		sub	sp, sp, #8
 1200              		.cfi_def_cfa_offset 16
 1201 0004 00AF     		add	r7, sp, #0
 1202              		.cfi_def_cfa_register 7
 1203              	.LBB2:
  64:dmc_controller.c ****     for (int weight_to_check = 1; weight_to_check <= 3; weight_to_check++)
 1204              		.loc 3 64 0
 1205 0006 0123     		movs	r3, #1
 1206 0008 7B60     		str	r3, [r7, #4]
 1207 000a 17E0     		b	.L69
 1208              	.L70:
 1209              	.LBB3:
  65:dmc_controller.c ****             {
  66:dmc_controller.c ****                 CyDelay(10);
 1210              		.loc 3 66 0 discriminator 3
 1211 000c 0A20     		movs	r0, #10
 1212 000e FFF7FEFF 		bl	CyDelay
  67:dmc_controller.c ****                 set_current_weight((enum dmc_weight_number)weight_to_check);
 1213              		.loc 3 67 0 discriminator 3
 1214 0012 7B68     		ldr	r3, [r7, #4]
 1215 0014 DBB2     		uxtb	r3, r3
 1216 0016 1846     		mov	r0, r3
 1217 0018 FFF7FEFF 		bl	set_current_weight
  68:dmc_controller.c ****                 struct dmc_packet_container_volume_measured packet;
  69:dmc_controller.c ****                 packet.container = (uint8_t)current_weight->weight_number;
 1218              		.loc 3 69 0 discriminator 3
 1219 001c 0B4B     		ldr	r3, .L71
 1220 001e 1B68     		ldr	r3, [r3]
 1221 0020 1B78     		ldrb	r3, [r3]	@ zero_extendqisi2
 1222 0022 3B70     		strb	r3, [r7]
  70:dmc_controller.c ****                 packet.volume = weight_to_cl();
 1223              		.loc 3 70 0 discriminator 3
 1224 0024 FFF7FEFF 		bl	weight_to_cl
 1225 0028 0346     		mov	r3, r0
 1226 002a 1BB2     		sxth	r3, r3
 1227 002c 7B80     		strh	r3, [r7, #2]	@ movhi
  71:dmc_controller.c ****                 send_container_volume_measured(&packet);
 1228              		.loc 3 71 0 discriminator 3
 1229 002e 3B46     		mov	r3, r7
 1230 0030 1846     		mov	r0, r3
 1231 0032 FFF7FEFF 		bl	send_container_volume_measured
 1232              	.LBE3:
  64:dmc_controller.c ****             {
 1233              		.loc 3 64 0 discriminator 3
 1234 0036 7B68     		ldr	r3, [r7, #4]
 1235 0038 0133     		adds	r3, r3, #1
 1236 003a 7B60     		str	r3, [r7, #4]
 1237              	.L69:
  64:dmc_controller.c ****             {
 1238              		.loc 3 64 0 is_stmt 0 discriminator 1
 1239 003c 7B68     		ldr	r3, [r7, #4]
 1240 003e 032B     		cmp	r3, #3
 1241 0040 E4DD     		ble	.L70
 1242              	.LBE2:
  72:dmc_controller.c ****             }
  73:dmc_controller.c **** }
ARM GAS  C:\Users\Runeg\AppData\Local\Temp\cci0HMiU.s 			page 32


 1243              		.loc 3 73 0 is_stmt 1
 1244 0042 00BF     		nop
 1245 0044 0837     		adds	r7, r7, #8
 1246              		.cfi_def_cfa_offset 8
 1247 0046 BD46     		mov	sp, r7
 1248              		.cfi_def_cfa_register 13
 1249              		@ sp needed
 1250 0048 80BD     		pop	{r7, pc}
 1251              	.L72:
 1252 004a 00BF     		.align	2
 1253              	.L71:
 1254 004c 00000000 		.word	current_weight
 1255              		.cfi_endproc
 1256              	.LFE80:
 1257              		.size	container_amount_init, .-container_amount_init
 1258              		.section	.text.is_weight_within_lower_threshold,"ax",%progbits
 1259              		.align	2
 1260              		.global	is_weight_within_lower_threshold
 1261              		.thumb
 1262              		.thumb_func
 1263              		.type	is_weight_within_lower_threshold, %function
 1264              	is_weight_within_lower_threshold:
 1265              	.LFB81:
  74:dmc_controller.c **** 
  75:dmc_controller.c **** 
  76:dmc_controller.c **** int is_weight_within_lower_threshold(uint16_t measured_weight_value)
  77:dmc_controller.c **** {
 1266              		.loc 3 77 0
 1267              		.cfi_startproc
 1268              		@ args = 0, pretend = 0, frame = 8
 1269              		@ frame_needed = 1, uses_anonymous_args = 0
 1270              		@ link register save eliminated.
 1271 0000 80B4     		push	{r7}
 1272              		.cfi_def_cfa_offset 4
 1273              		.cfi_offset 7, -4
 1274 0002 83B0     		sub	sp, sp, #12
 1275              		.cfi_def_cfa_offset 16
 1276 0004 00AF     		add	r7, sp, #0
 1277              		.cfi_def_cfa_register 7
 1278 0006 0346     		mov	r3, r0
 1279 0008 FB80     		strh	r3, [r7, #6]	@ movhi
  78:dmc_controller.c ****     return measured_weight_value > current_weight->min - 10;
 1280              		.loc 3 78 0
 1281 000a FA88     		ldrh	r2, [r7, #6]
 1282 000c 064B     		ldr	r3, .L75
 1283 000e 1B68     		ldr	r3, [r3]
 1284 0010 1B89     		ldrh	r3, [r3, #8]
 1285 0012 0A3B     		subs	r3, r3, #10
 1286 0014 9A42     		cmp	r2, r3
 1287 0016 CCBF     		ite	gt
 1288 0018 0123     		movgt	r3, #1
 1289 001a 0023     		movle	r3, #0
 1290 001c DBB2     		uxtb	r3, r3
  79:dmc_controller.c **** }
 1291              		.loc 3 79 0
 1292 001e 1846     		mov	r0, r3
 1293 0020 0C37     		adds	r7, r7, #12
ARM GAS  C:\Users\Runeg\AppData\Local\Temp\cci0HMiU.s 			page 33


 1294              		.cfi_def_cfa_offset 4
 1295 0022 BD46     		mov	sp, r7
 1296              		.cfi_def_cfa_register 13
 1297              		@ sp needed
 1298 0024 80BC     		pop	{r7}
 1299              		.cfi_restore 7
 1300              		.cfi_def_cfa_offset 0
 1301 0026 7047     		bx	lr
 1302              	.L76:
 1303              		.align	2
 1304              	.L75:
 1305 0028 00000000 		.word	current_weight
 1306              		.cfi_endproc
 1307              	.LFE81:
 1308              		.size	is_weight_within_lower_threshold, .-is_weight_within_lower_threshold
 1309              		.section	.text.set_out_of_order_reason,"ax",%progbits
 1310              		.align	2
 1311              		.global	set_out_of_order_reason
 1312              		.thumb
 1313              		.thumb_func
 1314              		.type	set_out_of_order_reason, %function
 1315              	set_out_of_order_reason:
 1316              	.LFB82:
  80:dmc_controller.c **** 
  81:dmc_controller.c **** void set_out_of_order_reason(struct dmc_packet_out_of_order* out_of_order_packet)
  82:dmc_controller.c **** {
 1317              		.loc 3 82 0
 1318              		.cfi_startproc
 1319              		@ args = 0, pretend = 0, frame = 8
 1320              		@ frame_needed = 1, uses_anonymous_args = 0
 1321              		@ link register save eliminated.
 1322 0000 80B4     		push	{r7}
 1323              		.cfi_def_cfa_offset 4
 1324              		.cfi_offset 7, -4
 1325 0002 83B0     		sub	sp, sp, #12
 1326              		.cfi_def_cfa_offset 16
 1327 0004 00AF     		add	r7, sp, #0
 1328              		.cfi_def_cfa_register 7
 1329 0006 7860     		str	r0, [r7, #4]
  83:dmc_controller.c ****     if (weight1.out_of_order)
 1330              		.loc 3 83 0
 1331 0008 0C4B     		ldr	r3, .L82
 1332 000a 1B7B     		ldrb	r3, [r3, #12]	@ zero_extendqisi2
 1333 000c 002B     		cmp	r3, #0
 1334 000e 02D0     		beq	.L78
  84:dmc_controller.c ****         out_of_order_packet->reason = DMC_PACKET_OUT_OF_ORDER_REASON_FLUID_CONTAINER_1_REMOVED;
 1335              		.loc 3 84 0
 1336 0010 7B68     		ldr	r3, [r7, #4]
 1337 0012 0122     		movs	r2, #1
 1338 0014 1A70     		strb	r2, [r3]
 1339              	.L78:
  85:dmc_controller.c ****     if (weight2.out_of_order)
 1340              		.loc 3 85 0
 1341 0016 0A4B     		ldr	r3, .L82+4
 1342 0018 1B7B     		ldrb	r3, [r3, #12]	@ zero_extendqisi2
 1343 001a 002B     		cmp	r3, #0
 1344 001c 02D0     		beq	.L79
ARM GAS  C:\Users\Runeg\AppData\Local\Temp\cci0HMiU.s 			page 34


  86:dmc_controller.c ****         out_of_order_packet->reason = DMC_PACKET_OUT_OF_ORDER_REASON_FLUID_CONTAINER_2_REMOVED;
 1345              		.loc 3 86 0
 1346 001e 7B68     		ldr	r3, [r7, #4]
 1347 0020 0222     		movs	r2, #2
 1348 0022 1A70     		strb	r2, [r3]
 1349              	.L79:
  87:dmc_controller.c ****     if (weight3.out_of_order)
 1350              		.loc 3 87 0
 1351 0024 074B     		ldr	r3, .L82+8
 1352 0026 1B7B     		ldrb	r3, [r3, #12]	@ zero_extendqisi2
 1353 0028 002B     		cmp	r3, #0
 1354 002a 02D0     		beq	.L81
  88:dmc_controller.c ****         out_of_order_packet->reason = DMC_PACKET_OUT_OF_ORDER_REASON_FLUID_CONTAINER_3_REMOVED;    
 1355              		.loc 3 88 0
 1356 002c 7B68     		ldr	r3, [r7, #4]
 1357 002e 0322     		movs	r2, #3
 1358 0030 1A70     		strb	r2, [r3]
 1359              	.L81:
  89:dmc_controller.c **** }
 1360              		.loc 3 89 0
 1361 0032 00BF     		nop
 1362 0034 0C37     		adds	r7, r7, #12
 1363              		.cfi_def_cfa_offset 4
 1364 0036 BD46     		mov	sp, r7
 1365              		.cfi_def_cfa_register 13
 1366              		@ sp needed
 1367 0038 80BC     		pop	{r7}
 1368              		.cfi_restore 7
 1369              		.cfi_def_cfa_offset 0
 1370 003a 7047     		bx	lr
 1371              	.L83:
 1372              		.align	2
 1373              	.L82:
 1374 003c 00000000 		.word	weight1
 1375 0040 00000000 		.word	weight2
 1376 0044 00000000 		.word	weight3
 1377              		.cfi_endproc
 1378              	.LFE82:
 1379              		.size	set_out_of_order_reason, .-set_out_of_order_reason
 1380              		.section	.text.do_periodic_weight_check,"ax",%progbits
 1381              		.align	2
 1382              		.global	do_periodic_weight_check
 1383              		.thumb
 1384              		.thumb_func
 1385              		.type	do_periodic_weight_check, %function
 1386              	do_periodic_weight_check:
 1387              	.LFB83:
  90:dmc_controller.c **** 
  91:dmc_controller.c **** 
  92:dmc_controller.c **** void do_periodic_weight_check()
  93:dmc_controller.c **** {
 1388              		.loc 3 93 0
 1389              		.cfi_startproc
 1390              		@ args = 0, pretend = 0, frame = 24
 1391              		@ frame_needed = 1, uses_anonymous_args = 0
 1392 0000 80B5     		push	{r7, lr}
 1393              		.cfi_def_cfa_offset 8
ARM GAS  C:\Users\Runeg\AppData\Local\Temp\cci0HMiU.s 			page 35


 1394              		.cfi_offset 7, -8
 1395              		.cfi_offset 14, -4
 1396 0002 86B0     		sub	sp, sp, #24
 1397              		.cfi_def_cfa_offset 32
 1398 0004 00AF     		add	r7, sp, #0
 1399              		.cfi_def_cfa_register 7
 1400              	.LBB4:
  94:dmc_controller.c ****    
  95:dmc_controller.c ****     for (int weight_to_check = 1; weight_to_check <= 3; weight_to_check++)
 1401              		.loc 3 95 0
 1402 0006 0123     		movs	r3, #1
 1403 0008 7B61     		str	r3, [r7, #20]
 1404 000a 86E0     		b	.L85
 1405              	.L91:
 1406              	.LBB5:
  96:dmc_controller.c ****     {
  97:dmc_controller.c ****         set_current_weight((enum dmc_weight_number)weight_to_check);
 1407              		.loc 3 97 0
 1408 000c 7B69     		ldr	r3, [r7, #20]
 1409 000e DBB2     		uxtb	r3, r3
 1410 0010 1846     		mov	r0, r3
 1411 0012 FFF7FEFF 		bl	set_current_weight
  98:dmc_controller.c ****     
  99:dmc_controller.c ****         uint16_t measured_weight_value = measure_weight_value();
 1412              		.loc 3 99 0
 1413 0016 FFF7FEFF 		bl	measure_weight_value
 1414 001a 0346     		mov	r3, r0
 1415 001c 7B82     		strh	r3, [r7, #18]	@ movhi
 100:dmc_controller.c **** 
 101:dmc_controller.c ****         if (!is_weight_within_lower_threshold(measured_weight_value))
 1416              		.loc 3 101 0
 1417 001e 7B8A     		ldrh	r3, [r7, #18]
 1418 0020 1846     		mov	r0, r3
 1419 0022 FFF7FEFF 		bl	is_weight_within_lower_threshold
 1420 0026 0346     		mov	r3, r0
 1421 0028 002B     		cmp	r3, #0
 1422 002a 1ED1     		bne	.L86
 102:dmc_controller.c ****             {
 103:dmc_controller.c ****                 if (!weight1.out_of_order && !weight2.out_of_order && !weight3.out_of_order)
 1423              		.loc 3 103 0
 1424 002c 3F4B     		ldr	r3, .L92
 1425 002e 1B7B     		ldrb	r3, [r3, #12]	@ zero_extendqisi2
 1426 0030 002B     		cmp	r3, #0
 1427 0032 15D1     		bne	.L87
 1428              		.loc 3 103 0 is_stmt 0 discriminator 1
 1429 0034 3E4B     		ldr	r3, .L92+4
 1430 0036 1B7B     		ldrb	r3, [r3, #12]	@ zero_extendqisi2
 1431 0038 002B     		cmp	r3, #0
 1432 003a 11D1     		bne	.L87
 1433              		.loc 3 103 0 discriminator 2
 1434 003c 3D4B     		ldr	r3, .L92+8
 1435 003e 1B7B     		ldrb	r3, [r3, #12]	@ zero_extendqisi2
 1436 0040 002B     		cmp	r3, #0
 1437 0042 0DD1     		bne	.L87
 1438              	.LBB6:
 104:dmc_controller.c ****                 {
 105:dmc_controller.c ****                     current_weight->out_of_order = 1;
ARM GAS  C:\Users\Runeg\AppData\Local\Temp\cci0HMiU.s 			page 36


 1439              		.loc 3 105 0 is_stmt 1
 1440 0044 3C4B     		ldr	r3, .L92+12
 1441 0046 1B68     		ldr	r3, [r3]
 1442 0048 0122     		movs	r2, #1
 1443 004a 1A73     		strb	r2, [r3, #12]
 106:dmc_controller.c ****                     struct dmc_packet_out_of_order out_of_order_message;
 107:dmc_controller.c ****                     set_out_of_order_reason(&out_of_order_message);
 1444              		.loc 3 107 0
 1445 004c 07F11003 		add	r3, r7, #16
 1446 0050 1846     		mov	r0, r3
 1447 0052 FFF7FEFF 		bl	set_out_of_order_reason
 108:dmc_controller.c ****                     send_out_of_order_message(&out_of_order_message);
 1448              		.loc 3 108 0
 1449 0056 07F11003 		add	r3, r7, #16
 1450 005a 1846     		mov	r0, r3
 1451 005c FFF7FEFF 		bl	send_out_of_order_message
 1452              	.L87:
 1453              	.LBE6:
 109:dmc_controller.c ****                 }
 110:dmc_controller.c ****                 
 111:dmc_controller.c ****                 current_weight->out_of_order = 1;
 1454              		.loc 3 111 0
 1455 0060 354B     		ldr	r3, .L92+12
 1456 0062 1B68     		ldr	r3, [r3]
 1457 0064 0122     		movs	r2, #1
 1458 0066 1A73     		strb	r2, [r3, #12]
 1459 0068 36E0     		b	.L88
 1460              	.L86:
 112:dmc_controller.c ****             }
 113:dmc_controller.c ****         else if (current_weight->out_of_order)
 1461              		.loc 3 113 0
 1462 006a 334B     		ldr	r3, .L92+12
 1463 006c 1B68     		ldr	r3, [r3]
 1464 006e 1B7B     		ldrb	r3, [r3, #12]	@ zero_extendqisi2
 1465 0070 002B     		cmp	r3, #0
 1466 0072 31D0     		beq	.L88
 114:dmc_controller.c ****             {
 115:dmc_controller.c ****                 current_weight->out_of_order = 0;
 1467              		.loc 3 115 0
 1468 0074 304B     		ldr	r3, .L92+12
 1469 0076 1B68     		ldr	r3, [r3]
 1470 0078 0022     		movs	r2, #0
 1471 007a 1A73     		strb	r2, [r3, #12]
 116:dmc_controller.c ****                                
 117:dmc_controller.c ****                 if (!weight1.out_of_order && !weight2.out_of_order && !weight3.out_of_order)
 1472              		.loc 3 117 0
 1473 007c 2B4B     		ldr	r3, .L92
 1474 007e 1B7B     		ldrb	r3, [r3, #12]	@ zero_extendqisi2
 1475 0080 002B     		cmp	r3, #0
 1476 0082 1FD1     		bne	.L89
 1477              		.loc 3 117 0 is_stmt 0 discriminator 1
 1478 0084 2A4B     		ldr	r3, .L92+4
 1479 0086 1B7B     		ldrb	r3, [r3, #12]	@ zero_extendqisi2
 1480 0088 002B     		cmp	r3, #0
 1481 008a 1BD1     		bne	.L89
 1482              		.loc 3 117 0 discriminator 2
 1483 008c 294B     		ldr	r3, .L92+8
ARM GAS  C:\Users\Runeg\AppData\Local\Temp\cci0HMiU.s 			page 37


 1484 008e 1B7B     		ldrb	r3, [r3, #12]	@ zero_extendqisi2
 1485 0090 002B     		cmp	r3, #0
 1486 0092 17D1     		bne	.L89
 1487              	.LBB7:
 118:dmc_controller.c ****                 {
 119:dmc_controller.c ****                     struct dmc_packet_machine_ok machine_ok;
 120:dmc_controller.c ****                     send_machine_ok_message(&machine_ok);
 1488              		.loc 3 120 0 is_stmt 1
 1489 0094 07F11003 		add	r3, r7, #16
 1490 0098 1846     		mov	r0, r3
 1491 009a FFF7FEFF 		bl	send_machine_ok_message
 121:dmc_controller.c ****                     current_weight->result = measured_weight_value;
 1492              		.loc 3 121 0
 1493 009e 264B     		ldr	r3, .L92+12
 1494 00a0 1B68     		ldr	r3, [r3]
 1495 00a2 7A8A     		ldrh	r2, [r7, #18]	@ movhi
 1496 00a4 5A80     		strh	r2, [r3, #2]	@ movhi
 122:dmc_controller.c ****                     
 123:dmc_controller.c ****                     //Sending updated weight
 124:dmc_controller.c ****                     struct dmc_packet_container_volume_measured packet;
 125:dmc_controller.c ****                     packet.container = (uint8_t)current_weight->weight_number;
 1497              		.loc 3 125 0
 1498 00a6 244B     		ldr	r3, .L92+12
 1499 00a8 1B68     		ldr	r3, [r3]
 1500 00aa 1B78     		ldrb	r3, [r3]	@ zero_extendqisi2
 1501 00ac 3B73     		strb	r3, [r7, #12]
 126:dmc_controller.c ****                     packet.volume = weight_to_cl();
 1502              		.loc 3 126 0
 1503 00ae FFF7FEFF 		bl	weight_to_cl
 1504 00b2 0346     		mov	r3, r0
 1505 00b4 1BB2     		sxth	r3, r3
 1506 00b6 FB81     		strh	r3, [r7, #14]	@ movhi
 127:dmc_controller.c ****                     send_container_volume_measured(&packet);
 1507              		.loc 3 127 0
 1508 00b8 07F10C03 		add	r3, r7, #12
 1509 00bc 1846     		mov	r0, r3
 1510 00be FFF7FEFF 		bl	send_container_volume_measured
 1511              	.LBE7:
 118:dmc_controller.c ****                     struct dmc_packet_machine_ok machine_ok;
 1512              		.loc 3 118 0
 1513 00c2 09E0     		b	.L88
 1514              	.L89:
 1515              	.LBB8:
 128:dmc_controller.c ****                     
 129:dmc_controller.c ****                 } else {
 130:dmc_controller.c ****                     struct dmc_packet_out_of_order out_of_order_message;
 131:dmc_controller.c ****                     set_out_of_order_reason(&out_of_order_message);
 1516              		.loc 3 131 0
 1517 00c4 07F10803 		add	r3, r7, #8
 1518 00c8 1846     		mov	r0, r3
 1519 00ca FFF7FEFF 		bl	set_out_of_order_reason
 132:dmc_controller.c ****                     send_out_of_order_message(&out_of_order_message);
 1520              		.loc 3 132 0
 1521 00ce 07F10803 		add	r3, r7, #8
 1522 00d2 1846     		mov	r0, r3
 1523 00d4 FFF7FEFF 		bl	send_out_of_order_message
 1524              	.L88:
ARM GAS  C:\Users\Runeg\AppData\Local\Temp\cci0HMiU.s 			page 38


 1525              	.LBE8:
 133:dmc_controller.c ****                 }
 134:dmc_controller.c ****             }
 135:dmc_controller.c ****         if (is_pumping((enum dmc_pump)weight_to_check) && !current_weight->out_of_order)
 1526              		.loc 3 135 0
 1527 00d8 7B69     		ldr	r3, [r7, #20]
 1528 00da DBB2     		uxtb	r3, r3
 1529 00dc 1846     		mov	r0, r3
 1530 00de FFF7FEFF 		bl	is_pumping
 1531 00e2 0346     		mov	r3, r0
 1532 00e4 002B     		cmp	r3, #0
 1533 00e6 15D0     		beq	.L90
 1534              		.loc 3 135 0 is_stmt 0 discriminator 1
 1535 00e8 134B     		ldr	r3, .L92+12
 1536 00ea 1B68     		ldr	r3, [r3]
 1537 00ec 1B7B     		ldrb	r3, [r3, #12]	@ zero_extendqisi2
 1538 00ee 002B     		cmp	r3, #0
 1539 00f0 10D1     		bne	.L90
 1540              	.LBB9:
 136:dmc_controller.c ****         {
 137:dmc_controller.c ****             current_weight->result = measured_weight_value;
 1541              		.loc 3 137 0 is_stmt 1
 1542 00f2 114B     		ldr	r3, .L92+12
 1543 00f4 1B68     		ldr	r3, [r3]
 1544 00f6 7A8A     		ldrh	r2, [r7, #18]	@ movhi
 1545 00f8 5A80     		strh	r2, [r3, #2]	@ movhi
 138:dmc_controller.c ****             struct dmc_packet_container_volume_measured packet;
 139:dmc_controller.c ****             packet.container = (uint8_t)current_weight->weight_number;
 1546              		.loc 3 139 0
 1547 00fa 0F4B     		ldr	r3, .L92+12
 1548 00fc 1B68     		ldr	r3, [r3]
 1549 00fe 1B78     		ldrb	r3, [r3]	@ zero_extendqisi2
 1550 0100 3B71     		strb	r3, [r7, #4]
 140:dmc_controller.c ****             packet.volume = weight_to_cl();
 1551              		.loc 3 140 0
 1552 0102 FFF7FEFF 		bl	weight_to_cl
 1553 0106 0346     		mov	r3, r0
 1554 0108 1BB2     		sxth	r3, r3
 1555 010a FB80     		strh	r3, [r7, #6]	@ movhi
 141:dmc_controller.c ****             send_container_volume_measured(&packet);
 1556              		.loc 3 141 0
 1557 010c 3B1D     		adds	r3, r7, #4
 1558 010e 1846     		mov	r0, r3
 1559 0110 FFF7FEFF 		bl	send_container_volume_measured
 1560              	.L90:
 1561              	.LBE9:
 1562              	.LBE5:
  95:dmc_controller.c ****     {
 1563              		.loc 3 95 0 discriminator 2
 1564 0114 7B69     		ldr	r3, [r7, #20]
 1565 0116 0133     		adds	r3, r3, #1
 1566 0118 7B61     		str	r3, [r7, #20]
 1567              	.L85:
  95:dmc_controller.c ****     {
 1568              		.loc 3 95 0 is_stmt 0 discriminator 1
 1569 011a 7B69     		ldr	r3, [r7, #20]
 1570 011c 032B     		cmp	r3, #3
ARM GAS  C:\Users\Runeg\AppData\Local\Temp\cci0HMiU.s 			page 39


 1571 011e 7FF775AF 		ble	.L91
 1572              	.LBE4:
 142:dmc_controller.c ****             
 143:dmc_controller.c ****         }
 144:dmc_controller.c ****        
 145:dmc_controller.c ****     }
 146:dmc_controller.c **** }
 1573              		.loc 3 146 0 is_stmt 1
 1574 0122 00BF     		nop
 1575 0124 1837     		adds	r7, r7, #24
 1576              		.cfi_def_cfa_offset 8
 1577 0126 BD46     		mov	sp, r7
 1578              		.cfi_def_cfa_register 13
 1579              		@ sp needed
 1580 0128 80BD     		pop	{r7, pc}
 1581              	.L93:
 1582 012a 00BF     		.align	2
 1583              	.L92:
 1584 012c 00000000 		.word	weight1
 1585 0130 00000000 		.word	weight2
 1586 0134 00000000 		.word	weight3
 1587 0138 00000000 		.word	current_weight
 1588              		.cfi_endproc
 1589              	.LFE83:
 1590              		.size	do_periodic_weight_check, .-do_periodic_weight_check
 1591              		.section	.text.raise_flag,"ax",%progbits
 1592              		.align	2
 1593              		.global	raise_flag
 1594              		.thumb
 1595              		.thumb_func
 1596              		.type	raise_flag, %function
 1597              	raise_flag:
 1598              	.LFB84:
 147:dmc_controller.c **** 
 148:dmc_controller.c ****  /*
 149:dmc_controller.c ****         else if (!current_weight->out_of_order)
 150:dmc_controller.c ****         {
 151:dmc_controller.c ****             int diff = measured_weight_value - current_weight->result;
 152:dmc_controller.c ****             if (diff < 25 && diff > -25)
 153:dmc_controller.c ****                 current_weight->tara = measured_weight_value - current_weight->result;
 154:dmc_controller.c ****         }
 155:dmc_controller.c ****         */
 156:dmc_controller.c **** //Remove this 
 157:dmc_controller.c **** 
 158:dmc_controller.c **** int raise_flag(struct dmc_packet *packet_to_check)
 159:dmc_controller.c **** {
 1599              		.loc 3 159 0
 1600              		.cfi_startproc
 1601              		@ args = 0, pretend = 0, frame = 8
 1602              		@ frame_needed = 1, uses_anonymous_args = 0
 1603              		@ link register save eliminated.
 1604 0000 80B4     		push	{r7}
 1605              		.cfi_def_cfa_offset 4
 1606              		.cfi_offset 7, -4
 1607 0002 83B0     		sub	sp, sp, #12
 1608              		.cfi_def_cfa_offset 16
 1609 0004 00AF     		add	r7, sp, #0
ARM GAS  C:\Users\Runeg\AppData\Local\Temp\cci0HMiU.s 			page 40


 1610              		.cfi_def_cfa_register 7
 1611 0006 7860     		str	r0, [r7, #4]
 160:dmc_controller.c ****     switch(packet_to_check->type) {
 1612              		.loc 3 160 0
 1613 0008 7B68     		ldr	r3, [r7, #4]
 1614 000a 1B78     		ldrb	r3, [r3]	@ zero_extendqisi2
 1615 000c A02B     		cmp	r3, #160
 1616 000e 01D1     		bne	.L98
 161:dmc_controller.c ****         case DMC_PACKET_USER_CONFIRM:
 162:dmc_controller.c ****         {
 163:dmc_controller.c ****             return 1;
 1617              		.loc 3 163 0
 1618 0010 0123     		movs	r3, #1
 1619 0012 00E0     		b	.L97
 1620              	.L98:
 164:dmc_controller.c ****         }
 165:dmc_controller.c ****         default:
 166:dmc_controller.c ****             return 0;
 1621              		.loc 3 166 0
 1622 0014 0023     		movs	r3, #0
 1623              	.L97:
 167:dmc_controller.c ****     }
 168:dmc_controller.c **** }
 1624              		.loc 3 168 0
 1625 0016 1846     		mov	r0, r3
 1626 0018 0C37     		adds	r7, r7, #12
 1627              		.cfi_def_cfa_offset 4
 1628 001a BD46     		mov	sp, r7
 1629              		.cfi_def_cfa_register 13
 1630              		@ sp needed
 1631 001c 80BC     		pop	{r7}
 1632              		.cfi_restore 7
 1633              		.cfi_def_cfa_offset 0
 1634 001e 7047     		bx	lr
 1635              		.cfi_endproc
 1636              	.LFE84:
 1637              		.size	raise_flag, .-raise_flag
 1638              		.section	.text.handle_packet,"ax",%progbits
 1639              		.align	2
 1640              		.global	handle_packet
 1641              		.thumb
 1642              		.thumb_func
 1643              		.type	handle_packet, %function
 1644              	handle_packet:
 1645              	.LFB85:
 169:dmc_controller.c **** 
 170:dmc_controller.c **** void handle_packet(struct dmc_packet* packet){
 1646              		.loc 3 170 0
 1647              		.cfi_startproc
 1648              		@ args = 0, pretend = 0, frame = 16
 1649              		@ frame_needed = 1, uses_anonymous_args = 0
 1650 0000 90B5     		push	{r4, r7, lr}
 1651              		.cfi_def_cfa_offset 12
 1652              		.cfi_offset 4, -12
 1653              		.cfi_offset 7, -8
 1654              		.cfi_offset 14, -4
 1655 0002 85B0     		sub	sp, sp, #20
ARM GAS  C:\Users\Runeg\AppData\Local\Temp\cci0HMiU.s 			page 41


 1656              		.cfi_def_cfa_offset 32
 1657 0004 00AF     		add	r7, sp, #0
 1658              		.cfi_def_cfa_register 7
 1659 0006 7860     		str	r0, [r7, #4]
 171:dmc_controller.c ****     
 172:dmc_controller.c ****     switch(packet->type)
 1660              		.loc 3 172 0
 1661 0008 7B68     		ldr	r3, [r7, #4]
 1662 000a 1B78     		ldrb	r3, [r3]	@ zero_extendqisi2
 1663 000c B22B     		cmp	r3, #178
 1664 000e 1BD1     		bne	.L100
 1665              	.LBB10:
 173:dmc_controller.c ****     {
 174:dmc_controller.c ****         
 175:dmc_controller.c ****         case DMC_PACKET_FLUID_POUR_REQUESTED:
 176:dmc_controller.c ****         {
 177:dmc_controller.c ****             struct dmc_packet_fluid_pour_requested requested_drink;
 178:dmc_controller.c ****             dmc_packet_unmarshal_fluid_pour_requested(&requested_drink, packet);
 1666              		.loc 3 178 0
 1667 0010 07F10C03 		add	r3, r7, #12
 1668 0014 7968     		ldr	r1, [r7, #4]
 1669 0016 1846     		mov	r0, r3
 1670 0018 FFF7FEFF 		bl	dmc_packet_unmarshal_fluid_pour_requested
 179:dmc_controller.c ****             pump_fluid((enum dmc_pump)requested_drink.container);
 1671              		.loc 3 179 0
 1672 001c 3B7B     		ldrb	r3, [r7, #12]	@ zero_extendqisi2
 1673 001e 1846     		mov	r0, r3
 1674 0020 FFF7FEFF 		bl	pump_fluid
 180:dmc_controller.c ****                      
 181:dmc_controller.c ****             uint16_t timer_period = requested_drink.amount*PERIODS_PR_CL((enum dmc_pump_timer)reque
 1675              		.loc 3 181 0
 1676 0024 7B7B     		ldrb	r3, [r7, #13]	@ zero_extendqisi2
 1677 0026 9CB2     		uxth	r4, r3
 1678 0028 3B7B     		ldrb	r3, [r7, #12]	@ zero_extendqisi2
 1679 002a 1846     		mov	r0, r3
 1680 002c FFF7FEFF 		bl	PERIODS_PR_CL
 1681 0030 0346     		mov	r3, r0
 1682 0032 9BB2     		uxth	r3, r3
 1683 0034 03FB04F3 		mul	r3, r3, r4
 1684 0038 FB81     		strh	r3, [r7, #14]	@ movhi
 182:dmc_controller.c ****             
 183:dmc_controller.c ****             set_period((enum dmc_pump_timer)requested_drink.container, timer_period);
 1685              		.loc 3 183 0
 1686 003a 3B7B     		ldrb	r3, [r7, #12]	@ zero_extendqisi2
 1687 003c FA89     		ldrh	r2, [r7, #14]
 1688 003e 1146     		mov	r1, r2
 1689 0040 1846     		mov	r0, r3
 1690 0042 FFF7FEFF 		bl	set_period
 184:dmc_controller.c ****             break;
 1691              		.loc 3 184 0
 1692 0046 00BF     		nop
 1693              	.L100:
 1694              	.LBE10:
 185:dmc_controller.c ****         }        
 186:dmc_controller.c ****     }
 187:dmc_controller.c ****     
 188:dmc_controller.c ****     dmc_packet_free(packet);
ARM GAS  C:\Users\Runeg\AppData\Local\Temp\cci0HMiU.s 			page 42


 1695              		.loc 3 188 0
 1696 0048 7868     		ldr	r0, [r7, #4]
 1697 004a FFF7FEFF 		bl	dmc_packet_free
 189:dmc_controller.c **** }
 1698              		.loc 3 189 0
 1699 004e 00BF     		nop
 1700 0050 1437     		adds	r7, r7, #20
 1701              		.cfi_def_cfa_offset 12
 1702 0052 BD46     		mov	sp, r7
 1703              		.cfi_def_cfa_register 13
 1704              		@ sp needed
 1705 0054 90BD     		pop	{r4, r7, pc}
 1706              		.cfi_endproc
 1707              	.LFE85:
 1708              		.size	handle_packet, .-handle_packet
 1709 0056 00BF     		.section	.text.handle_timer,"ax",%progbits
 1710              		.align	2
 1711              		.global	handle_timer
 1712              		.thumb
 1713              		.thumb_func
 1714              		.type	handle_timer, %function
 1715              	handle_timer:
 1716              	.LFB86:
 190:dmc_controller.c **** 
 191:dmc_controller.c **** void handle_timer(struct dmc_timer_action* action)
 192:dmc_controller.c **** {
 1717              		.loc 3 192 0
 1718              		.cfi_startproc
 1719              		@ args = 0, pretend = 0, frame = 8
 1720              		@ frame_needed = 1, uses_anonymous_args = 0
 1721 0000 90B5     		push	{r4, r7, lr}
 1722              		.cfi_def_cfa_offset 12
 1723              		.cfi_offset 4, -12
 1724              		.cfi_offset 7, -8
 1725              		.cfi_offset 14, -4
 1726 0002 83B0     		sub	sp, sp, #12
 1727              		.cfi_def_cfa_offset 24
 1728 0004 00AF     		add	r7, sp, #0
 1729              		.cfi_def_cfa_register 7
 1730 0006 7860     		str	r0, [r7, #4]
 193:dmc_controller.c ****     switch (action->type)
 1731              		.loc 3 193 0
 1732 0008 7B68     		ldr	r3, [r7, #4]
 1733 000a 1B78     		ldrb	r3, [r3]	@ zero_extendqisi2
 1734 000c 002B     		cmp	r3, #0
 1735 000e 04D0     		beq	.L104
 1736 0010 012B     		cmp	r3, #1
 1737 0012 13D1     		bne	.L103
 194:dmc_controller.c ****     {
 195:dmc_controller.c ****     case TIMER_ACTION_CHECK_WEIGHT:
 196:dmc_controller.c ****         {
 197:dmc_controller.c ****             do_periodic_weight_check();
 1738              		.loc 3 197 0
 1739 0014 FFF7FEFF 		bl	do_periodic_weight_check
 198:dmc_controller.c ****             break;
 1740              		.loc 3 198 0
 1741 0018 10E0     		b	.L103
ARM GAS  C:\Users\Runeg\AppData\Local\Temp\cci0HMiU.s 			page 43


 1742              	.L104:
 199:dmc_controller.c ****         }
 200:dmc_controller.c ****     case TIMER_ACTION_STOP_PUMP:
 201:dmc_controller.c ****         {
 202:dmc_controller.c ****             stop_pump((enum dmc_pump)action->origin);
 1743              		.loc 3 202 0
 1744 001a 7B68     		ldr	r3, [r7, #4]
 1745 001c 5B78     		ldrb	r3, [r3, #1]	@ zero_extendqisi2
 1746 001e 1846     		mov	r0, r3
 1747 0020 FFF7FEFF 		bl	stop_pump
 203:dmc_controller.c ****             
 204:dmc_controller.c ****             //Make final measurement
 205:dmc_controller.c ****             set_current_weight((enum dmc_weight_number)action->origin);
 1748              		.loc 3 205 0
 1749 0024 7B68     		ldr	r3, [r7, #4]
 1750 0026 5B78     		ldrb	r3, [r3, #1]	@ zero_extendqisi2
 1751 0028 1846     		mov	r0, r3
 1752 002a FFF7FEFF 		bl	set_current_weight
 206:dmc_controller.c ****             current_weight->result = measure_weight_value();
 1753              		.loc 3 206 0
 1754 002e 074B     		ldr	r3, .L106
 1755 0030 1C68     		ldr	r4, [r3]
 1756 0032 FFF7FEFF 		bl	measure_weight_value
 1757 0036 0346     		mov	r3, r0
 1758 0038 6380     		strh	r3, [r4, #2]	@ movhi
 207:dmc_controller.c ****             break;
 1759              		.loc 3 207 0
 1760 003a 00BF     		nop
 1761              	.L103:
 208:dmc_controller.c ****         }
 209:dmc_controller.c ****     }  
 210:dmc_controller.c ****     dmc_timer_action_free(action);
 1762              		.loc 3 210 0
 1763 003c 7868     		ldr	r0, [r7, #4]
 1764 003e FFF7FEFF 		bl	dmc_timer_action_free
 211:dmc_controller.c **** }
 1765              		.loc 3 211 0
 1766 0042 00BF     		nop
 1767 0044 0C37     		adds	r7, r7, #12
 1768              		.cfi_def_cfa_offset 12
 1769 0046 BD46     		mov	sp, r7
 1770              		.cfi_def_cfa_register 13
 1771              		@ sp needed
 1772 0048 90BD     		pop	{r4, r7, pc}
 1773              	.L107:
 1774 004a 00BF     		.align	2
 1775              	.L106:
 1776 004c 00000000 		.word	current_weight
 1777              		.cfi_endproc
 1778              	.LFE86:
 1779              		.size	handle_timer, .-handle_timer
 1780              		.section	.text.main,"ax",%progbits
 1781              		.align	2
 1782              		.global	main
 1783              		.thumb
 1784              		.thumb_func
 1785              		.type	main, %function
ARM GAS  C:\Users\Runeg\AppData\Local\Temp\cci0HMiU.s 			page 44


 1786              	main:
 1787              	.LFB87:
 212:dmc_controller.c **** 
 213:dmc_controller.c **** 
 214:dmc_controller.c **** int main(void)
 215:dmc_controller.c **** {
 1788              		.loc 3 215 0
 1789              		.cfi_startproc
 1790              		@ args = 0, pretend = 0, frame = 8
 1791              		@ frame_needed = 1, uses_anonymous_args = 0
 1792 0000 80B5     		push	{r7, lr}
 1793              		.cfi_def_cfa_offset 8
 1794              		.cfi_offset 7, -8
 1795              		.cfi_offset 14, -4
 1796 0002 82B0     		sub	sp, sp, #8
 1797              		.cfi_def_cfa_offset 16
 1798 0004 00AF     		add	r7, sp, #0
 1799              		.cfi_def_cfa_register 7
 216:dmc_controller.c ****     CyGlobalIntEnable; /* Enable global interrupts. */
 1800              		.loc 3 216 0
 1801              		.syntax unified
 1802              	@ 216 "dmc_controller.c" 1
 1803 0006 62B6     		CPSIE   i
 1804              	@ 0 "" 2
 217:dmc_controller.c **** 
 218:dmc_controller.c ****     init_uart_rpi_simple(); //Initiate uart and ISR
 1805              		.loc 3 218 0
 1806              		.thumb
 1807              		.syntax unified
 1808 0008 FFF7FEFF 		bl	init_uart_rpi_simple
 219:dmc_controller.c ****     
 220:dmc_controller.c ****     init_timers(); //Initaite timer, ISR and start timer
 1809              		.loc 3 220 0
 1810 000c FFF7FEFF 		bl	init_timers
 221:dmc_controller.c ****     
 222:dmc_controller.c ****     weight_init(); //Start ADC and make irst measurement
 1811              		.loc 3 222 0
 1812 0010 FFF7FEFF 		bl	weight_init
 223:dmc_controller.c ****     
 224:dmc_controller.c ****     container_amount_init(); //Send current weights to RPi
 1813              		.loc 3 224 0
 1814 0014 FFF7FEFF 		bl	container_amount_init
 1815              	.L114:
 1816              	.LBB11:
 225:dmc_controller.c ****   
 226:dmc_controller.c ****     for(;;)
 227:dmc_controller.c ****     {
 228:dmc_controller.c ****         struct job current_job;
 229:dmc_controller.c ****         
 230:dmc_controller.c ****         if (job_dequeue(&current_job) != 0) {
 1817              		.loc 3 230 0
 1818 0018 3B46     		mov	r3, r7
 1819 001a 1846     		mov	r0, r3
 1820 001c FFF7FEFF 		bl	job_dequeue
 1821 0020 0346     		mov	r3, r0
 1822 0022 002B     		cmp	r3, #0
 1823 0024 10D1     		bne	.L115
ARM GAS  C:\Users\Runeg\AppData\Local\Temp\cci0HMiU.s 			page 45


 231:dmc_controller.c ****             continue;
 232:dmc_controller.c ****         }
 233:dmc_controller.c ****         switch (current_job.type)
 1824              		.loc 3 233 0
 1825 0026 3B78     		ldrb	r3, [r7]	@ zero_extendqisi2
 1826 0028 012B     		cmp	r3, #1
 1827 002a 02D0     		beq	.L112
 1828 002c 022B     		cmp	r3, #2
 1829 002e 05D0     		beq	.L113
 1830 0030 0BE0     		b	.L110
 1831              	.L112:
 234:dmc_controller.c ****         {
 235:dmc_controller.c ****             case JOB_TYPE_PACKET: //Job sent from uart
 236:dmc_controller.c ****             {
 237:dmc_controller.c ****                 handle_packet((struct dmc_packet*)current_job.data);
 1832              		.loc 3 237 0
 1833 0032 7B68     		ldr	r3, [r7, #4]
 1834 0034 1846     		mov	r0, r3
 1835 0036 FFF7FEFF 		bl	handle_packet
 238:dmc_controller.c ****                 break;
 1836              		.loc 3 238 0
 1837 003a 06E0     		b	.L110
 1838              	.L113:
 239:dmc_controller.c ****             }
 240:dmc_controller.c ****             case JOB_TYPE_TIMER: //Job sent from timer
 241:dmc_controller.c ****             {
 242:dmc_controller.c ****                 handle_timer((struct dmc_timer_action*)current_job.data);
 1839              		.loc 3 242 0
 1840 003c 7B68     		ldr	r3, [r7, #4]
 1841 003e 1846     		mov	r0, r3
 1842 0040 FFF7FEFF 		bl	handle_timer
 243:dmc_controller.c ****                 break;
 1843              		.loc 3 243 0
 1844 0044 00BF     		nop
 1845 0046 00E0     		b	.L110
 1846              	.L115:
 231:dmc_controller.c ****         }
 1847              		.loc 3 231 0
 1848 0048 00BF     		nop
 1849              	.L110:
 1850              	.LBE11:
 244:dmc_controller.c ****             }
 245:dmc_controller.c ****         }
 246:dmc_controller.c ****         
 247:dmc_controller.c ****     }    
 1851              		.loc 3 247 0 discriminator 1
 1852 004a E5E7     		b	.L114
 1853              		.cfi_endproc
 1854              	.LFE87:
 1855              		.size	main, .-main
 1856              		.text
 1857              	.Letext0:
 1858              		.file 4 "c:\\program files (x86)\\cypress\\psoc creator\\4.4\\psoc creator\\import\\gnu\\arm\\5.4.
 1859              		.file 5 "c:\\program files (x86)\\cypress\\psoc creator\\4.4\\psoc creator\\import\\gnu\\arm\\5.4.
 1860              		.file 6 "c:\\program files (x86)\\cypress\\psoc creator\\4.4\\psoc creator\\import\\gnu\\arm\\5.4.
 1861              		.file 7 "dmc_timers.h"
 1862              		.file 8 "dmc_job_queue.h"
ARM GAS  C:\Users\Runeg\AppData\Local\Temp\cci0HMiU.s 			page 46


 1863              		.file 9 "dmc_pump_control.h"
 1864              		.file 10 "dmc_weight.h"
 1865              		.file 11 "Generated_Source\\PSoC5/core_cm3.h"
 1866              		.section	.debug_info,"",%progbits
 1867              	.Ldebug_info0:
 1868 0000 150A0000 		.4byte	0xa15
 1869 0004 0400     		.2byte	0x4
 1870 0006 00000000 		.4byte	.Ldebug_abbrev0
 1871 000a 04       		.byte	0x4
 1872 000b 01       		.uleb128 0x1
 1873 000c 44010000 		.4byte	.LASF127
 1874 0010 0C       		.byte	0xc
 1875 0011 D2010000 		.4byte	.LASF128
 1876 0015 CE020000 		.4byte	.LASF129
 1877 0019 00000000 		.4byte	.Ldebug_ranges0+0
 1878 001d 00000000 		.4byte	0
 1879 0021 00000000 		.4byte	.Ldebug_line0
 1880 0025 02       		.uleb128 0x2
 1881 0026 01       		.byte	0x1
 1882 0027 06       		.byte	0x6
 1883 0028 C5080000 		.4byte	.LASF0
 1884 002c 03       		.uleb128 0x3
 1885 002d 3A070000 		.4byte	.LASF2
 1886 0031 04       		.byte	0x4
 1887 0032 1D       		.byte	0x1d
 1888 0033 37000000 		.4byte	0x37
 1889 0037 02       		.uleb128 0x2
 1890 0038 01       		.byte	0x1
 1891 0039 08       		.byte	0x8
 1892 003a 2D080000 		.4byte	.LASF1
 1893 003e 03       		.uleb128 0x3
 1894 003f 90050000 		.4byte	.LASF3
 1895 0043 04       		.byte	0x4
 1896 0044 29       		.byte	0x29
 1897 0045 49000000 		.4byte	0x49
 1898 0049 02       		.uleb128 0x2
 1899 004a 02       		.byte	0x2
 1900 004b 05       		.byte	0x5
 1901 004c BC060000 		.4byte	.LASF4
 1902 0050 03       		.uleb128 0x3
 1903 0051 AD030000 		.4byte	.LASF5
 1904 0055 04       		.byte	0x4
 1905 0056 2B       		.byte	0x2b
 1906 0057 5B000000 		.4byte	0x5b
 1907 005b 02       		.uleb128 0x2
 1908 005c 02       		.byte	0x2
 1909 005d 07       		.byte	0x7
 1910 005e 00090000 		.4byte	.LASF6
 1911 0062 03       		.uleb128 0x3
 1912 0063 07010000 		.4byte	.LASF7
 1913 0067 04       		.byte	0x4
 1914 0068 3F       		.byte	0x3f
 1915 0069 6D000000 		.4byte	0x6d
 1916 006d 02       		.uleb128 0x2
 1917 006e 04       		.byte	0x4
 1918 006f 05       		.byte	0x5
 1919 0070 C6060000 		.4byte	.LASF8
ARM GAS  C:\Users\Runeg\AppData\Local\Temp\cci0HMiU.s 			page 47


 1920 0074 02       		.uleb128 0x2
 1921 0075 04       		.byte	0x4
 1922 0076 07       		.byte	0x7
 1923 0077 90070000 		.4byte	.LASF9
 1924 007b 02       		.uleb128 0x2
 1925 007c 08       		.byte	0x8
 1926 007d 05       		.byte	0x5
 1927 007e 5C050000 		.4byte	.LASF10
 1928 0082 02       		.uleb128 0x2
 1929 0083 08       		.byte	0x8
 1930 0084 07       		.byte	0x7
 1931 0085 5C030000 		.4byte	.LASF11
 1932 0089 04       		.uleb128 0x4
 1933 008a 04       		.byte	0x4
 1934 008b 05       		.byte	0x5
 1935 008c 696E7400 		.ascii	"int\000"
 1936 0090 02       		.uleb128 0x2
 1937 0091 04       		.byte	0x4
 1938 0092 07       		.byte	0x7
 1939 0093 C0000000 		.4byte	.LASF12
 1940 0097 03       		.uleb128 0x3
 1941 0098 14050000 		.4byte	.LASF13
 1942 009c 05       		.byte	0x5
 1943 009d 18       		.byte	0x18
 1944 009e 2C000000 		.4byte	0x2c
 1945 00a2 03       		.uleb128 0x3
 1946 00a3 D8060000 		.4byte	.LASF14
 1947 00a7 05       		.byte	0x5
 1948 00a8 20       		.byte	0x20
 1949 00a9 3E000000 		.4byte	0x3e
 1950 00ad 03       		.uleb128 0x3
 1951 00ae 66060000 		.4byte	.LASF15
 1952 00b2 05       		.byte	0x5
 1953 00b3 24       		.byte	0x24
 1954 00b4 50000000 		.4byte	0x50
 1955 00b8 03       		.uleb128 0x3
 1956 00b9 A2070000 		.4byte	.LASF16
 1957 00bd 05       		.byte	0x5
 1958 00be 2C       		.byte	0x2c
 1959 00bf 62000000 		.4byte	0x62
 1960 00c3 02       		.uleb128 0x2
 1961 00c4 04       		.byte	0x4
 1962 00c5 04       		.byte	0x4
 1963 00c6 AB020000 		.4byte	.LASF17
 1964 00ca 02       		.uleb128 0x2
 1965 00cb 08       		.byte	0x8
 1966 00cc 04       		.byte	0x4
 1967 00cd 49090000 		.4byte	.LASF18
 1968 00d1 02       		.uleb128 0x2
 1969 00d2 01       		.byte	0x1
 1970 00d3 08       		.byte	0x8
 1971 00d4 C0040000 		.4byte	.LASF19
 1972 00d8 03       		.uleb128 0x3
 1973 00d9 C5030000 		.4byte	.LASF20
 1974 00dd 06       		.byte	0x6
 1975 00de D8       		.byte	0xd8
 1976 00df 90000000 		.4byte	0x90
ARM GAS  C:\Users\Runeg\AppData\Local\Temp\cci0HMiU.s 			page 48


 1977 00e3 02       		.uleb128 0x2
 1978 00e4 08       		.byte	0x8
 1979 00e5 04       		.byte	0x4
 1980 00e6 5A060000 		.4byte	.LASF21
 1981 00ea 02       		.uleb128 0x2
 1982 00eb 04       		.byte	0x4
 1983 00ec 07       		.byte	0x7
 1984 00ed 87070000 		.4byte	.LASF22
 1985 00f1 05       		.uleb128 0x5
 1986 00f2 04       		.byte	0x4
 1987 00f3 06       		.uleb128 0x6
 1988 00f4 04       		.byte	0x4
 1989 00f5 D1000000 		.4byte	0xd1
 1990 00f9 07       		.uleb128 0x7
 1991 00fa F7000000 		.4byte	.LASF32
 1992 00fe 01       		.byte	0x1
 1993 00ff 37000000 		.4byte	0x37
 1994 0103 01       		.byte	0x1
 1995 0104 0E       		.byte	0xe
 1996 0105 2E010000 		.4byte	0x12e
 1997 0109 08       		.uleb128 0x8
 1998 010a 78060000 		.4byte	.LASF23
 1999 010e 81       		.byte	0x81
 2000 010f 08       		.uleb128 0x8
 2001 0110 03080000 		.4byte	.LASF24
 2002 0114 92       		.byte	0x92
 2003 0115 08       		.uleb128 0x8
 2004 0116 09060000 		.4byte	.LASF25
 2005 011a A0       		.byte	0xa0
 2006 011b 08       		.uleb128 0x8
 2007 011c 1C050000 		.4byte	.LASF26
 2008 0120 B2       		.byte	0xb2
 2009 0121 08       		.uleb128 0x8
 2010 0122 B1070000 		.4byte	.LASF27
 2011 0126 C2       		.byte	0xc2
 2012 0127 08       		.uleb128 0x8
 2013 0128 8E020000 		.4byte	.LASF28
 2014 012c D0       		.byte	0xd0
 2015 012d 00       		.byte	0
 2016 012e 09       		.uleb128 0x9
 2017 012f 6A050000 		.4byte	.LASF38
 2018 0133 0C       		.byte	0xc
 2019 0134 01       		.byte	0x1
 2020 0135 18       		.byte	0x18
 2021 0136 5F010000 		.4byte	0x15f
 2022 013a 0A       		.uleb128 0xa
 2023 013b 28080000 		.4byte	.LASF29
 2024 013f 01       		.byte	0x1
 2025 0140 1D       		.byte	0x1d
 2026 0141 F9000000 		.4byte	0xf9
 2027 0145 00       		.byte	0
 2028 0146 0A       		.uleb128 0xa
 2029 0147 F5040000 		.4byte	.LASF30
 2030 014b 01       		.byte	0x1
 2031 014c 22       		.byte	0x22
 2032 014d F3000000 		.4byte	0xf3
 2033 0151 04       		.byte	0x4
ARM GAS  C:\Users\Runeg\AppData\Local\Temp\cci0HMiU.s 			page 49


 2034 0152 0A       		.uleb128 0xa
 2035 0153 6F060000 		.4byte	.LASF31
 2036 0157 01       		.byte	0x1
 2037 0158 27       		.byte	0x27
 2038 0159 D8000000 		.4byte	0xd8
 2039 015d 08       		.byte	0x8
 2040 015e 00       		.byte	0
 2041 015f 07       		.uleb128 0x7
 2042 0160 27040000 		.4byte	.LASF33
 2043 0164 01       		.byte	0x1
 2044 0165 37000000 		.4byte	0x37
 2045 0169 02       		.byte	0x2
 2046 016a 0F       		.byte	0xf
 2047 016b 88010000 		.4byte	0x188
 2048 016f 08       		.uleb128 0x8
 2049 0170 7F030000 		.4byte	.LASF34
 2050 0174 00       		.byte	0
 2051 0175 08       		.uleb128 0x8
 2052 0176 23030000 		.4byte	.LASF35
 2053 017a 01       		.byte	0x1
 2054 017b 08       		.uleb128 0x8
 2055 017c 9A050000 		.4byte	.LASF36
 2056 0180 02       		.byte	0x2
 2057 0181 08       		.uleb128 0x8
 2058 0182 C2070000 		.4byte	.LASF37
 2059 0186 03       		.byte	0x3
 2060 0187 00       		.byte	0
 2061 0188 09       		.uleb128 0x9
 2062 0189 AD080000 		.4byte	.LASF39
 2063 018d 01       		.byte	0x1
 2064 018e 02       		.byte	0x2
 2065 018f 2F       		.byte	0x2f
 2066 0190 A1010000 		.4byte	0x1a1
 2067 0194 0A       		.uleb128 0xa
 2068 0195 A6030000 		.4byte	.LASF40
 2069 0199 02       		.byte	0x2
 2070 019a 35       		.byte	0x35
 2071 019b 5F010000 		.4byte	0x15f
 2072 019f 00       		.byte	0
 2073 01a0 00       		.byte	0
 2074 01a1 09       		.uleb128 0x9
 2075 01a2 90000000 		.4byte	.LASF41
 2076 01a6 04       		.byte	0x4
 2077 01a7 02       		.byte	0x2
 2078 01a8 6B       		.byte	0x6b
 2079 01a9 C6010000 		.4byte	0x1c6
 2080 01ad 0A       		.uleb128 0xa
 2081 01ae FA040000 		.4byte	.LASF42
 2082 01b2 02       		.byte	0x2
 2083 01b3 70       		.byte	0x70
 2084 01b4 97000000 		.4byte	0x97
 2085 01b8 00       		.byte	0
 2086 01b9 0A       		.uleb128 0xa
 2087 01ba A4020000 		.4byte	.LASF43
 2088 01be 02       		.byte	0x2
 2089 01bf 75       		.byte	0x75
 2090 01c0 A2000000 		.4byte	0xa2
ARM GAS  C:\Users\Runeg\AppData\Local\Temp\cci0HMiU.s 			page 50


 2091 01c4 02       		.byte	0x2
 2092 01c5 00       		.byte	0
 2093 01c6 0B       		.uleb128 0xb
 2094 01c7 6F070000 		.4byte	.LASF44
 2095 01cb 00       		.byte	0
 2096 01cc 02       		.byte	0x2
 2097 01cd B1       		.byte	0xb1
 2098 01ce 0B       		.uleb128 0xb
 2099 01cf 78020000 		.4byte	.LASF45
 2100 01d3 00       		.byte	0
 2101 01d4 02       		.byte	0x2
 2102 01d5 E1       		.byte	0xe1
 2103 01d6 0C       		.uleb128 0xc
 2104 01d7 0B070000 		.4byte	.LASF46
 2105 01db 02       		.byte	0x2
 2106 01dc 02       		.byte	0x2
 2107 01dd 1001     		.2byte	0x110
 2108 01df FE010000 		.4byte	0x1fe
 2109 01e3 0D       		.uleb128 0xd
 2110 01e4 FA040000 		.4byte	.LASF42
 2111 01e8 02       		.byte	0x2
 2112 01e9 1501     		.2byte	0x115
 2113 01eb 97000000 		.4byte	0x97
 2114 01ef 00       		.byte	0
 2115 01f0 0D       		.uleb128 0xd
 2116 01f1 89000000 		.4byte	.LASF47
 2117 01f5 02       		.byte	0x2
 2118 01f6 1A01     		.2byte	0x11a
 2119 01f8 97000000 		.4byte	0x97
 2120 01fc 01       		.byte	0x1
 2121 01fd 00       		.byte	0
 2122 01fe 07       		.uleb128 0x7
 2123 01ff ED060000 		.4byte	.LASF48
 2124 0203 01       		.byte	0x1
 2125 0204 37000000 		.4byte	0x37
 2126 0208 07       		.byte	0x7
 2127 0209 15       		.byte	0x15
 2128 020a 21020000 		.4byte	0x221
 2129 020e 08       		.uleb128 0x8
 2130 020f 11010000 		.4byte	.LASF49
 2131 0213 01       		.byte	0x1
 2132 0214 08       		.uleb128 0x8
 2133 0215 1E010000 		.4byte	.LASF50
 2134 0219 02       		.byte	0x2
 2135 021a 08       		.uleb128 0x8
 2136 021b 2B010000 		.4byte	.LASF51
 2137 021f 03       		.byte	0x3
 2138 0220 00       		.byte	0
 2139 0221 07       		.uleb128 0x7
 2140 0222 59070000 		.4byte	.LASF52
 2141 0226 01       		.byte	0x1
 2142 0227 37000000 		.4byte	0x37
 2143 022b 07       		.byte	0x7
 2144 022c 1C       		.byte	0x1c
 2145 022d 3E020000 		.4byte	0x23e
 2146 0231 08       		.uleb128 0x8
 2147 0232 46040000 		.4byte	.LASF53
ARM GAS  C:\Users\Runeg\AppData\Local\Temp\cci0HMiU.s 			page 51


 2148 0236 00       		.byte	0
 2149 0237 08       		.uleb128 0x8
 2150 0238 E1030000 		.4byte	.LASF54
 2151 023c 01       		.byte	0x1
 2152 023d 00       		.byte	0
 2153 023e 09       		.uleb128 0x9
 2154 023f E4040000 		.4byte	.LASF55
 2155 0243 02       		.byte	0x2
 2156 0244 07       		.byte	0x7
 2157 0245 22       		.byte	0x22
 2158 0246 63020000 		.4byte	0x263
 2159 024a 0A       		.uleb128 0xa
 2160 024b 28080000 		.4byte	.LASF29
 2161 024f 07       		.byte	0x7
 2162 0250 23       		.byte	0x23
 2163 0251 21020000 		.4byte	0x221
 2164 0255 00       		.byte	0
 2165 0256 0A       		.uleb128 0xa
 2166 0257 13040000 		.4byte	.LASF56
 2167 025b 07       		.byte	0x7
 2168 025c 24       		.byte	0x24
 2169 025d FE010000 		.4byte	0x1fe
 2170 0261 01       		.byte	0x1
 2171 0262 00       		.byte	0
 2172 0263 07       		.uleb128 0x7
 2173 0264 95040000 		.4byte	.LASF57
 2174 0268 01       		.byte	0x1
 2175 0269 37000000 		.4byte	0x37
 2176 026d 08       		.byte	0x8
 2177 026e 0D       		.byte	0xd
 2178 026f 86020000 		.4byte	0x286
 2179 0273 08       		.uleb128 0x8
 2180 0274 5B090000 		.4byte	.LASF58
 2181 0278 00       		.byte	0
 2182 0279 08       		.uleb128 0x8
 2183 027a 04050000 		.4byte	.LASF59
 2184 027e 01       		.byte	0x1
 2185 027f 08       		.uleb128 0x8
 2186 0280 FB030000 		.4byte	.LASF60
 2187 0284 02       		.byte	0x2
 2188 0285 00       		.byte	0
 2189 0286 0E       		.uleb128 0xe
 2190 0287 6A6F6200 		.ascii	"job\000"
 2191 028b 08       		.byte	0x8
 2192 028c 08       		.byte	0x8
 2193 028d 13       		.byte	0x13
 2194 028e AB020000 		.4byte	0x2ab
 2195 0292 0A       		.uleb128 0xa
 2196 0293 28080000 		.4byte	.LASF29
 2197 0297 08       		.byte	0x8
 2198 0298 14       		.byte	0x14
 2199 0299 63020000 		.4byte	0x263
 2200 029d 00       		.byte	0
 2201 029e 0A       		.uleb128 0xa
 2202 029f F5040000 		.4byte	.LASF30
 2203 02a3 08       		.byte	0x8
 2204 02a4 15       		.byte	0x15
ARM GAS  C:\Users\Runeg\AppData\Local\Temp\cci0HMiU.s 			page 52


 2205 02a5 F1000000 		.4byte	0xf1
 2206 02a9 04       		.byte	0x4
 2207 02aa 00       		.byte	0
 2208 02ab 07       		.uleb128 0x7
 2209 02ac CF060000 		.4byte	.LASF61
 2210 02b0 01       		.byte	0x1
 2211 02b1 37000000 		.4byte	0x37
 2212 02b5 09       		.byte	0x9
 2213 02b6 10       		.byte	0x10
 2214 02b7 CE020000 		.4byte	0x2ce
 2215 02bb 08       		.uleb128 0x8
 2216 02bc 44070000 		.4byte	.LASF62
 2217 02c0 01       		.byte	0x1
 2218 02c1 08       		.uleb128 0x8
 2219 02c2 4B070000 		.4byte	.LASF63
 2220 02c6 02       		.byte	0x2
 2221 02c7 08       		.uleb128 0x8
 2222 02c8 52070000 		.4byte	.LASF64
 2223 02cc 03       		.byte	0x3
 2224 02cd 00       		.byte	0
 2225 02ce 07       		.uleb128 0x7
 2226 02cf 47080000 		.4byte	.LASF65
 2227 02d3 01       		.byte	0x1
 2228 02d4 37000000 		.4byte	0x37
 2229 02d8 0A       		.byte	0xa
 2230 02d9 14       		.byte	0x14
 2231 02da F1020000 		.4byte	0x2f1
 2232 02de 08       		.uleb128 0x8
 2233 02df F8010000 		.4byte	.LASF66
 2234 02e3 01       		.byte	0x1
 2235 02e4 08       		.uleb128 0x8
 2236 02e5 01020000 		.4byte	.LASF67
 2237 02e9 02       		.byte	0x2
 2238 02ea 08       		.uleb128 0x8
 2239 02eb 0A020000 		.4byte	.LASF68
 2240 02ef 03       		.byte	0x3
 2241 02f0 00       		.byte	0
 2242 02f1 09       		.uleb128 0x9
 2243 02f2 33070000 		.4byte	.LASF69
 2244 02f6 0E       		.byte	0xe
 2245 02f7 0A       		.byte	0xa
 2246 02f8 1A       		.byte	0x1a
 2247 02f9 52030000 		.4byte	0x352
 2248 02fd 0A       		.uleb128 0xa
 2249 02fe 2C000000 		.4byte	.LASF70
 2250 0302 0A       		.byte	0xa
 2251 0303 1B       		.byte	0x1b
 2252 0304 CE020000 		.4byte	0x2ce
 2253 0308 00       		.byte	0
 2254 0309 0A       		.uleb128 0xa
 2255 030a 14030000 		.4byte	.LASF71
 2256 030e 0A       		.byte	0xa
 2257 030f 1C       		.byte	0x1c
 2258 0310 AD000000 		.4byte	0xad
 2259 0314 02       		.byte	0x2
 2260 0315 0A       		.uleb128 0xa
 2261 0316 D4040000 		.4byte	.LASF72
ARM GAS  C:\Users\Runeg\AppData\Local\Temp\cci0HMiU.s 			page 53


 2262 031a 0A       		.byte	0xa
 2263 031b 1D       		.byte	0x1d
 2264 031c A2000000 		.4byte	0xa2
 2265 0320 04       		.byte	0x4
 2266 0321 0A       		.uleb128 0xa
 2267 0322 3B080000 		.4byte	.LASF73
 2268 0326 0A       		.byte	0xa
 2269 0327 1E       		.byte	0x1e
 2270 0328 AD000000 		.4byte	0xad
 2271 032c 06       		.byte	0x6
 2272 032d 0F       		.uleb128 0xf
 2273 032e 6D696E00 		.ascii	"min\000"
 2274 0332 0A       		.byte	0xa
 2275 0333 1F       		.byte	0x1f
 2276 0334 AD000000 		.4byte	0xad
 2277 0338 08       		.byte	0x8
 2278 0339 0F       		.uleb128 0xf
 2279 033a 6D617800 		.ascii	"max\000"
 2280 033e 0A       		.byte	0xa
 2281 033f 20       		.byte	0x20
 2282 0340 AD000000 		.4byte	0xad
 2283 0344 0A       		.byte	0xa
 2284 0345 0A       		.uleb128 0xa
 2285 0346 C1020000 		.4byte	.LASF74
 2286 034a 0A       		.byte	0xa
 2287 034b 21       		.byte	0x21
 2288 034c 97000000 		.4byte	0x97
 2289 0350 0C       		.byte	0xc
 2290 0351 00       		.byte	0
 2291 0352 10       		.uleb128 0x10
 2292 0353 18090000 		.4byte	.LASF77
 2293 0357 01       		.byte	0x1
 2294 0358 2E       		.byte	0x2e
 2295 0359 96030000 		.4byte	0x396
 2296 035d 00000000 		.4byte	.LFB63
 2297 0361 4E000000 		.4byte	.LFE63-.LFB63
 2298 0365 01       		.uleb128 0x1
 2299 0366 9C       		.byte	0x9c
 2300 0367 96030000 		.4byte	0x396
 2301 036b 11       		.uleb128 0x11
 2302 036c 28080000 		.4byte	.LASF29
 2303 0370 01       		.byte	0x1
 2304 0371 2E       		.byte	0x2e
 2305 0372 F9000000 		.4byte	0xf9
 2306 0376 02       		.uleb128 0x2
 2307 0377 91       		.byte	0x91
 2308 0378 6F       		.sleb128 -17
 2309 0379 12       		.uleb128 0x12
 2310 037a 50090000 		.4byte	.LASF75
 2311 037e 01       		.byte	0x1
 2312 037f 30       		.byte	0x30
 2313 0380 37000000 		.4byte	0x37
 2314 0384 02       		.uleb128 0x2
 2315 0385 91       		.byte	0x91
 2316 0386 77       		.sleb128 -9
 2317 0387 12       		.uleb128 0x12
 2318 0388 AA070000 		.4byte	.LASF76
ARM GAS  C:\Users\Runeg\AppData\Local\Temp\cci0HMiU.s 			page 54


 2319 038c 01       		.byte	0x1
 2320 038d 33       		.byte	0x33
 2321 038e 96030000 		.4byte	0x396
 2322 0392 02       		.uleb128 0x2
 2323 0393 91       		.byte	0x91
 2324 0394 70       		.sleb128 -16
 2325 0395 00       		.byte	0
 2326 0396 06       		.uleb128 0x6
 2327 0397 04       		.byte	0x4
 2328 0398 2E010000 		.4byte	0x12e
 2329 039c 13       		.uleb128 0x13
 2330 039d 80050000 		.4byte	.LASF130
 2331 03a1 01       		.byte	0x1
 2332 03a2 4D       		.byte	0x4d
 2333 03a3 00000000 		.4byte	.LFB64
 2334 03a7 20000000 		.4byte	.LFE64-.LFB64
 2335 03ab 01       		.uleb128 0x1
 2336 03ac 9C       		.byte	0x9c
 2337 03ad C0030000 		.4byte	0x3c0
 2338 03b1 11       		.uleb128 0x11
 2339 03b2 AA070000 		.4byte	.LASF76
 2340 03b6 01       		.byte	0x1
 2341 03b7 4D       		.byte	0x4d
 2342 03b8 96030000 		.4byte	0x396
 2343 03bc 02       		.uleb128 0x2
 2344 03bd 91       		.byte	0x91
 2345 03be 74       		.sleb128 -12
 2346 03bf 00       		.byte	0
 2347 03c0 14       		.uleb128 0x14
 2348 03c1 00000000 		.4byte	.LASF78
 2349 03c5 01       		.byte	0x1
 2350 03c6 5D       		.byte	0x5d
 2351 03c7 37000000 		.4byte	0x37
 2352 03cb 00000000 		.4byte	.LFB65
 2353 03cf 2C000000 		.4byte	.LFE65-.LFB65
 2354 03d3 01       		.uleb128 0x1
 2355 03d4 9C       		.byte	0x9c
 2356 03d5 F6030000 		.4byte	0x3f6
 2357 03d9 11       		.uleb128 0x11
 2358 03da AA070000 		.4byte	.LASF76
 2359 03de 01       		.byte	0x1
 2360 03df 5D       		.byte	0x5d
 2361 03e0 96030000 		.4byte	0x396
 2362 03e4 02       		.uleb128 0x2
 2363 03e5 91       		.byte	0x91
 2364 03e6 6C       		.sleb128 -20
 2365 03e7 12       		.uleb128 0x12
 2366 03e8 50090000 		.4byte	.LASF75
 2367 03ec 01       		.byte	0x1
 2368 03ed 5F       		.byte	0x5f
 2369 03ee 37000000 		.4byte	0x37
 2370 03f2 02       		.uleb128 0x2
 2371 03f3 91       		.byte	0x91
 2372 03f4 77       		.sleb128 -9
 2373 03f5 00       		.byte	0
 2374 03f6 14       		.uleb128 0x14
 2375 03f7 36060000 		.4byte	.LASF79
ARM GAS  C:\Users\Runeg\AppData\Local\Temp\cci0HMiU.s 			page 55


 2376 03fb 01       		.byte	0x1
 2377 03fc 67       		.byte	0x67
 2378 03fd 37000000 		.4byte	0x37
 2379 0401 00000000 		.4byte	.LFB66
 2380 0405 44000000 		.4byte	.LFE66-.LFB66
 2381 0409 01       		.uleb128 0x1
 2382 040a 9C       		.byte	0x9c
 2383 040b 3A040000 		.4byte	0x43a
 2384 040f 11       		.uleb128 0x11
 2385 0410 AA070000 		.4byte	.LASF76
 2386 0414 01       		.byte	0x1
 2387 0415 67       		.byte	0x67
 2388 0416 96030000 		.4byte	0x396
 2389 041a 02       		.uleb128 0x2
 2390 041b 91       		.byte	0x91
 2391 041c 6C       		.sleb128 -20
 2392 041d 11       		.uleb128 0x11
 2393 041e F5040000 		.4byte	.LASF30
 2394 0422 01       		.byte	0x1
 2395 0423 68       		.byte	0x68
 2396 0424 37000000 		.4byte	0x37
 2397 0428 02       		.uleb128 0x2
 2398 0429 91       		.byte	0x91
 2399 042a 6B       		.sleb128 -21
 2400 042b 12       		.uleb128 0x12
 2401 042c 50090000 		.4byte	.LASF75
 2402 0430 01       		.byte	0x1
 2403 0431 6A       		.byte	0x6a
 2404 0432 37000000 		.4byte	0x37
 2405 0436 02       		.uleb128 0x2
 2406 0437 91       		.byte	0x91
 2407 0438 77       		.sleb128 -9
 2408 0439 00       		.byte	0
 2409 043a 14       		.uleb128 0x14
 2410 043b 9E040000 		.4byte	.LASF80
 2411 043f 02       		.byte	0x2
 2412 0440 3C       		.byte	0x3c
 2413 0441 89000000 		.4byte	0x89
 2414 0445 00000000 		.4byte	.LFB67
 2415 0449 36000000 		.4byte	.LFE67-.LFB67
 2416 044d 01       		.uleb128 0x1
 2417 044e 9C       		.byte	0x9c
 2418 044f 7E040000 		.4byte	0x47e
 2419 0453 11       		.uleb128 0x11
 2420 0454 AA070000 		.4byte	.LASF76
 2421 0458 02       		.byte	0x2
 2422 0459 3C       		.byte	0x3c
 2423 045a 7E040000 		.4byte	0x47e
 2424 045e 02       		.uleb128 0x2
 2425 045f 91       		.byte	0x91
 2426 0460 6C       		.sleb128 -20
 2427 0461 11       		.uleb128 0x11
 2428 0462 48000000 		.4byte	.LASF81
 2429 0466 02       		.byte	0x2
 2430 0467 3D       		.byte	0x3d
 2431 0468 96030000 		.4byte	0x396
 2432 046c 02       		.uleb128 0x2
ARM GAS  C:\Users\Runeg\AppData\Local\Temp\cci0HMiU.s 			page 56


 2433 046d 91       		.byte	0x91
 2434 046e 68       		.sleb128 -24
 2435 046f 12       		.uleb128 0x12
 2436 0470 DA030000 		.4byte	.LASF82
 2437 0474 02       		.byte	0x2
 2438 0475 44       		.byte	0x44
 2439 0476 97000000 		.4byte	0x97
 2440 047a 02       		.uleb128 0x2
 2441 047b 91       		.byte	0x91
 2442 047c 77       		.sleb128 -9
 2443 047d 00       		.byte	0
 2444 047e 06       		.uleb128 0x6
 2445 047f 04       		.byte	0x4
 2446 0480 88010000 		.4byte	0x188
 2447 0484 10       		.uleb128 0x10
 2448 0485 D3050000 		.4byte	.LASF83
 2449 0489 02       		.byte	0x2
 2450 048a 4E       		.byte	0x4e
 2451 048b 89000000 		.4byte	0x89
 2452 048f 00000000 		.4byte	.LFB68
 2453 0493 60000000 		.4byte	.LFE68-.LFB68
 2454 0497 01       		.uleb128 0x1
 2455 0498 9C       		.byte	0x9c
 2456 0499 C7040000 		.4byte	0x4c7
 2457 049d 15       		.uleb128 0x15
 2458 049e 746F00   		.ascii	"to\000"
 2459 04a1 02       		.byte	0x2
 2460 04a2 4E       		.byte	0x4e
 2461 04a3 C7040000 		.4byte	0x4c7
 2462 04a7 02       		.uleb128 0x2
 2463 04a8 91       		.byte	0x91
 2464 04a9 6C       		.sleb128 -20
 2465 04aa 11       		.uleb128 0x11
 2466 04ab AA070000 		.4byte	.LASF76
 2467 04af 02       		.byte	0x2
 2468 04b0 4F       		.byte	0x4f
 2469 04b1 7E040000 		.4byte	0x47e
 2470 04b5 02       		.uleb128 0x2
 2471 04b6 91       		.byte	0x91
 2472 04b7 68       		.sleb128 -24
 2473 04b8 12       		.uleb128 0x12
 2474 04b9 DA030000 		.4byte	.LASF82
 2475 04bd 02       		.byte	0x2
 2476 04be 5F       		.byte	0x5f
 2477 04bf 97000000 		.4byte	0x97
 2478 04c3 02       		.uleb128 0x2
 2479 04c4 91       		.byte	0x91
 2480 04c5 77       		.sleb128 -9
 2481 04c6 00       		.byte	0
 2482 04c7 06       		.uleb128 0x6
 2483 04c8 04       		.byte	0x4
 2484 04c9 96030000 		.4byte	0x396
 2485 04cd 14       		.uleb128 0x14
 2486 04ce D1080000 		.4byte	.LASF84
 2487 04d2 02       		.byte	0x2
 2488 04d3 7B       		.byte	0x7b
 2489 04d4 89000000 		.4byte	0x89
ARM GAS  C:\Users\Runeg\AppData\Local\Temp\cci0HMiU.s 			page 57


 2490 04d8 00000000 		.4byte	.LFB69
 2491 04dc 4C000000 		.4byte	.LFE69-.LFB69
 2492 04e0 01       		.uleb128 0x1
 2493 04e1 9C       		.byte	0x9c
 2494 04e2 11050000 		.4byte	0x511
 2495 04e6 11       		.uleb128 0x11
 2496 04e7 AA070000 		.4byte	.LASF76
 2497 04eb 02       		.byte	0x2
 2498 04ec 7C       		.byte	0x7c
 2499 04ed 11050000 		.4byte	0x511
 2500 04f1 02       		.uleb128 0x2
 2501 04f2 91       		.byte	0x91
 2502 04f3 6C       		.sleb128 -20
 2503 04f4 11       		.uleb128 0x11
 2504 04f5 48000000 		.4byte	.LASF81
 2505 04f9 02       		.byte	0x2
 2506 04fa 7D       		.byte	0x7d
 2507 04fb 96030000 		.4byte	0x396
 2508 04ff 02       		.uleb128 0x2
 2509 0500 91       		.byte	0x91
 2510 0501 68       		.sleb128 -24
 2511 0502 12       		.uleb128 0x12
 2512 0503 DA030000 		.4byte	.LASF82
 2513 0507 02       		.byte	0x2
 2514 0508 84       		.byte	0x84
 2515 0509 97000000 		.4byte	0x97
 2516 050d 02       		.uleb128 0x2
 2517 050e 91       		.byte	0x91
 2518 050f 77       		.sleb128 -9
 2519 0510 00       		.byte	0
 2520 0511 06       		.uleb128 0x6
 2521 0512 04       		.byte	0x4
 2522 0513 A1010000 		.4byte	0x1a1
 2523 0517 10       		.uleb128 0x10
 2524 0518 80080000 		.4byte	.LASF85
 2525 051c 02       		.byte	0x2
 2526 051d 90       		.byte	0x90
 2527 051e 89000000 		.4byte	0x89
 2528 0522 00000000 		.4byte	.LFB70
 2529 0526 7A000000 		.4byte	.LFE70-.LFB70
 2530 052a 01       		.uleb128 0x1
 2531 052b 9C       		.byte	0x9c
 2532 052c 5A050000 		.4byte	0x55a
 2533 0530 15       		.uleb128 0x15
 2534 0531 746F00   		.ascii	"to\000"
 2535 0534 02       		.byte	0x2
 2536 0535 91       		.byte	0x91
 2537 0536 C7040000 		.4byte	0x4c7
 2538 053a 02       		.uleb128 0x2
 2539 053b 91       		.byte	0x91
 2540 053c 6C       		.sleb128 -20
 2541 053d 11       		.uleb128 0x11
 2542 053e AA070000 		.4byte	.LASF76
 2543 0542 02       		.byte	0x2
 2544 0543 91       		.byte	0x91
 2545 0544 11050000 		.4byte	0x511
 2546 0548 02       		.uleb128 0x2
ARM GAS  C:\Users\Runeg\AppData\Local\Temp\cci0HMiU.s 			page 58


 2547 0549 91       		.byte	0x91
 2548 054a 68       		.sleb128 -24
 2549 054b 12       		.uleb128 0x12
 2550 054c DA030000 		.4byte	.LASF82
 2551 0550 02       		.byte	0x2
 2552 0551 A1       		.byte	0xa1
 2553 0552 97000000 		.4byte	0x97
 2554 0556 02       		.uleb128 0x2
 2555 0557 91       		.byte	0x91
 2556 0558 77       		.sleb128 -9
 2557 0559 00       		.byte	0
 2558 055a 14       		.uleb128 0x14
 2559 055b 3D020000 		.4byte	.LASF86
 2560 055f 02       		.byte	0x2
 2561 0560 B9       		.byte	0xb9
 2562 0561 89000000 		.4byte	0x89
 2563 0565 00000000 		.4byte	.LFB71
 2564 0569 24000000 		.4byte	.LFE71-.LFB71
 2565 056d 01       		.uleb128 0x1
 2566 056e 9C       		.byte	0x9c
 2567 056f 90050000 		.4byte	0x590
 2568 0573 11       		.uleb128 0x11
 2569 0574 AA070000 		.4byte	.LASF76
 2570 0578 02       		.byte	0x2
 2571 0579 B9       		.byte	0xb9
 2572 057a 90050000 		.4byte	0x590
 2573 057e 02       		.uleb128 0x2
 2574 057f 91       		.byte	0x91
 2575 0580 74       		.sleb128 -12
 2576 0581 11       		.uleb128 0x11
 2577 0582 48000000 		.4byte	.LASF81
 2578 0586 02       		.byte	0x2
 2579 0587 BA       		.byte	0xba
 2580 0588 96030000 		.4byte	0x396
 2581 058c 02       		.uleb128 0x2
 2582 058d 91       		.byte	0x91
 2583 058e 70       		.sleb128 -16
 2584 058f 00       		.byte	0
 2585 0590 06       		.uleb128 0x6
 2586 0591 04       		.byte	0x4
 2587 0592 C6010000 		.4byte	0x1c6
 2588 0596 10       		.uleb128 0x10
 2589 0597 75040000 		.4byte	.LASF87
 2590 059b 02       		.byte	0x2
 2591 059c C8       		.byte	0xc8
 2592 059d 89000000 		.4byte	0x89
 2593 05a1 00000000 		.4byte	.LFB72
 2594 05a5 44000000 		.4byte	.LFE72-.LFB72
 2595 05a9 01       		.uleb128 0x1
 2596 05aa 9C       		.byte	0x9c
 2597 05ab CB050000 		.4byte	0x5cb
 2598 05af 15       		.uleb128 0x15
 2599 05b0 746F00   		.ascii	"to\000"
 2600 05b3 02       		.byte	0x2
 2601 05b4 C8       		.byte	0xc8
 2602 05b5 C7040000 		.4byte	0x4c7
 2603 05b9 02       		.uleb128 0x2
ARM GAS  C:\Users\Runeg\AppData\Local\Temp\cci0HMiU.s 			page 59


 2604 05ba 91       		.byte	0x91
 2605 05bb 74       		.sleb128 -12
 2606 05bc 11       		.uleb128 0x11
 2607 05bd AA070000 		.4byte	.LASF76
 2608 05c1 02       		.byte	0x2
 2609 05c2 C9       		.byte	0xc9
 2610 05c3 90050000 		.4byte	0x590
 2611 05c7 02       		.uleb128 0x2
 2612 05c8 91       		.byte	0x91
 2613 05c9 70       		.sleb128 -16
 2614 05ca 00       		.byte	0
 2615 05cb 14       		.uleb128 0x14
 2616 05cc 3C050000 		.4byte	.LASF88
 2617 05d0 02       		.byte	0x2
 2618 05d1 E8       		.byte	0xe8
 2619 05d2 89000000 		.4byte	0x89
 2620 05d6 00000000 		.4byte	.LFB73
 2621 05da 24000000 		.4byte	.LFE73-.LFB73
 2622 05de 01       		.uleb128 0x1
 2623 05df 9C       		.byte	0x9c
 2624 05e0 01060000 		.4byte	0x601
 2625 05e4 11       		.uleb128 0x11
 2626 05e5 AA070000 		.4byte	.LASF76
 2627 05e9 02       		.byte	0x2
 2628 05ea E8       		.byte	0xe8
 2629 05eb 01060000 		.4byte	0x601
 2630 05ef 02       		.uleb128 0x2
 2631 05f0 91       		.byte	0x91
 2632 05f1 74       		.sleb128 -12
 2633 05f2 11       		.uleb128 0x11
 2634 05f3 48000000 		.4byte	.LASF81
 2635 05f7 02       		.byte	0x2
 2636 05f8 E9       		.byte	0xe9
 2637 05f9 96030000 		.4byte	0x396
 2638 05fd 02       		.uleb128 0x2
 2639 05fe 91       		.byte	0x91
 2640 05ff 70       		.sleb128 -16
 2641 0600 00       		.byte	0
 2642 0601 06       		.uleb128 0x6
 2643 0602 04       		.byte	0x4
 2644 0603 CE010000 		.4byte	0x1ce
 2645 0607 10       		.uleb128 0x10
 2646 0608 59080000 		.4byte	.LASF89
 2647 060c 02       		.byte	0x2
 2648 060d F7       		.byte	0xf7
 2649 060e 89000000 		.4byte	0x89
 2650 0612 00000000 		.4byte	.LFB74
 2651 0616 44000000 		.4byte	.LFE74-.LFB74
 2652 061a 01       		.uleb128 0x1
 2653 061b 9C       		.byte	0x9c
 2654 061c 3C060000 		.4byte	0x63c
 2655 0620 15       		.uleb128 0x15
 2656 0621 746F00   		.ascii	"to\000"
 2657 0624 02       		.byte	0x2
 2658 0625 F7       		.byte	0xf7
 2659 0626 C7040000 		.4byte	0x4c7
 2660 062a 02       		.uleb128 0x2
ARM GAS  C:\Users\Runeg\AppData\Local\Temp\cci0HMiU.s 			page 60


 2661 062b 91       		.byte	0x91
 2662 062c 74       		.sleb128 -12
 2663 062d 11       		.uleb128 0x11
 2664 062e AA070000 		.4byte	.LASF76
 2665 0632 02       		.byte	0x2
 2666 0633 F8       		.byte	0xf8
 2667 0634 01060000 		.4byte	0x601
 2668 0638 02       		.uleb128 0x2
 2669 0639 91       		.byte	0x91
 2670 063a 70       		.sleb128 -16
 2671 063b 00       		.byte	0
 2672 063c 16       		.uleb128 0x16
 2673 063d CD000000 		.4byte	.LASF90
 2674 0641 02       		.byte	0x2
 2675 0642 2001     		.2byte	0x120
 2676 0644 89000000 		.4byte	0x89
 2677 0648 00000000 		.4byte	.LFB75
 2678 064c 4A000000 		.4byte	.LFE75-.LFB75
 2679 0650 01       		.uleb128 0x1
 2680 0651 9C       		.byte	0x9c
 2681 0652 84060000 		.4byte	0x684
 2682 0656 17       		.uleb128 0x17
 2683 0657 AA070000 		.4byte	.LASF76
 2684 065b 02       		.byte	0x2
 2685 065c 2101     		.2byte	0x121
 2686 065e 84060000 		.4byte	0x684
 2687 0662 02       		.uleb128 0x2
 2688 0663 91       		.byte	0x91
 2689 0664 6C       		.sleb128 -20
 2690 0665 17       		.uleb128 0x17
 2691 0666 48000000 		.4byte	.LASF81
 2692 066a 02       		.byte	0x2
 2693 066b 2101     		.2byte	0x121
 2694 066d 96030000 		.4byte	0x396
 2695 0671 02       		.uleb128 0x2
 2696 0672 91       		.byte	0x91
 2697 0673 68       		.sleb128 -24
 2698 0674 18       		.uleb128 0x18
 2699 0675 DA030000 		.4byte	.LASF82
 2700 0679 02       		.byte	0x2
 2701 067a 2801     		.2byte	0x128
 2702 067c 97000000 		.4byte	0x97
 2703 0680 02       		.uleb128 0x2
 2704 0681 91       		.byte	0x91
 2705 0682 77       		.sleb128 -9
 2706 0683 00       		.byte	0
 2707 0684 06       		.uleb128 0x6
 2708 0685 04       		.byte	0x4
 2709 0686 D6010000 		.4byte	0x1d6
 2710 068a 19       		.uleb128 0x19
 2711 068b 61000000 		.4byte	.LASF91
 2712 068f 02       		.byte	0x2
 2713 0690 3401     		.2byte	0x134
 2714 0692 89000000 		.4byte	0x89
 2715 0696 00000000 		.4byte	.LFB76
 2716 069a 7E000000 		.4byte	.LFE76-.LFB76
 2717 069e 01       		.uleb128 0x1
ARM GAS  C:\Users\Runeg\AppData\Local\Temp\cci0HMiU.s 			page 61


 2718 069f 9C       		.byte	0x9c
 2719 06a0 D1060000 		.4byte	0x6d1
 2720 06a4 1A       		.uleb128 0x1a
 2721 06a5 746F00   		.ascii	"to\000"
 2722 06a8 02       		.byte	0x2
 2723 06a9 3501     		.2byte	0x135
 2724 06ab C7040000 		.4byte	0x4c7
 2725 06af 02       		.uleb128 0x2
 2726 06b0 91       		.byte	0x91
 2727 06b1 6C       		.sleb128 -20
 2728 06b2 17       		.uleb128 0x17
 2729 06b3 AA070000 		.4byte	.LASF76
 2730 06b7 02       		.byte	0x2
 2731 06b8 3501     		.2byte	0x135
 2732 06ba 84060000 		.4byte	0x684
 2733 06be 02       		.uleb128 0x2
 2734 06bf 91       		.byte	0x91
 2735 06c0 68       		.sleb128 -24
 2736 06c1 18       		.uleb128 0x18
 2737 06c2 DA030000 		.4byte	.LASF82
 2738 06c6 02       		.byte	0x2
 2739 06c7 4801     		.2byte	0x148
 2740 06c9 97000000 		.4byte	0x97
 2741 06cd 02       		.uleb128 0x2
 2742 06ce 91       		.byte	0x91
 2743 06cf 77       		.sleb128 -9
 2744 06d0 00       		.byte	0
 2745 06d1 1B       		.uleb128 0x1b
 2746 06d2 3A000000 		.4byte	.LASF99
 2747 06d6 03       		.byte	0x3
 2748 06d7 1A       		.byte	0x1a
 2749 06d8 89000000 		.4byte	0x89
 2750 06dc 00000000 		.4byte	.LFB78
 2751 06e0 40000000 		.4byte	.LFE78-.LFB78
 2752 06e4 01       		.uleb128 0x1
 2753 06e5 9C       		.byte	0x9c
 2754 06e6 F9060000 		.4byte	0x6f9
 2755 06ea 11       		.uleb128 0x11
 2756 06eb B5000000 		.4byte	.LASF92
 2757 06ef 03       		.byte	0x3
 2758 06f0 1A       		.byte	0x1a
 2759 06f1 FE010000 		.4byte	0x1fe
 2760 06f5 02       		.uleb128 0x2
 2761 06f6 91       		.byte	0x91
 2762 06f7 77       		.sleb128 -9
 2763 06f8 00       		.byte	0
 2764 06f9 1C       		.uleb128 0x1c
 2765 06fa E0060000 		.4byte	.LASF102
 2766 06fe 03       		.byte	0x3
 2767 06ff 25       		.byte	0x25
 2768 0700 AD000000 		.4byte	0xad
 2769 0704 00000000 		.4byte	.LFB79
 2770 0708 F0000000 		.4byte	.LFE79-.LFB79
 2771 070c 01       		.uleb128 0x1
 2772 070d 9C       		.byte	0x9c
 2773 070e 59070000 		.4byte	0x759
 2774 0712 12       		.uleb128 0x12
ARM GAS  C:\Users\Runeg\AppData\Local\Temp\cci0HMiU.s 			page 62


 2775 0713 38010000 		.4byte	.LASF93
 2776 0717 03       		.byte	0x3
 2777 0718 28       		.byte	0x28
 2778 0719 AD000000 		.4byte	0xad
 2779 071d 02       		.uleb128 0x2
 2780 071e 91       		.byte	0x91
 2781 071f 6E       		.sleb128 -18
 2782 0720 12       		.uleb128 0x12
 2783 0721 0A040000 		.4byte	.LASF94
 2784 0725 03       		.byte	0x3
 2785 0726 29       		.byte	0x29
 2786 0727 AD000000 		.4byte	0xad
 2787 072b 02       		.uleb128 0x2
 2788 072c 91       		.byte	0x91
 2789 072d 6C       		.sleb128 -20
 2790 072e 12       		.uleb128 0x12
 2791 072f 77080000 		.4byte	.LASF95
 2792 0733 03       		.byte	0x3
 2793 0734 2A       		.byte	0x2a
 2794 0735 AD000000 		.4byte	0xad
 2795 0739 02       		.uleb128 0x2
 2796 073a 91       		.byte	0x91
 2797 073b 6A       		.sleb128 -22
 2798 073c 12       		.uleb128 0x12
 2799 073d FB070000 		.4byte	.LASF96
 2800 0741 03       		.byte	0x3
 2801 0742 32       		.byte	0x32
 2802 0743 CA000000 		.4byte	0xca
 2803 0747 02       		.uleb128 0x2
 2804 0748 91       		.byte	0x91
 2805 0749 60       		.sleb128 -32
 2806 074a 12       		.uleb128 0x12
 2807 074b B6060000 		.4byte	.LASF97
 2808 074f 03       		.byte	0x3
 2809 0750 34       		.byte	0x34
 2810 0751 CA000000 		.4byte	0xca
 2811 0755 02       		.uleb128 0x2
 2812 0756 91       		.byte	0x91
 2813 0757 58       		.sleb128 -40
 2814 0758 00       		.byte	0
 2815 0759 1D       		.uleb128 0x1d
 2816 075a F3050000 		.4byte	.LASF105
 2817 075e 03       		.byte	0x3
 2818 075f 3E       		.byte	0x3e
 2819 0760 00000000 		.4byte	.LFB80
 2820 0764 50000000 		.4byte	.LFE80-.LFB80
 2821 0768 01       		.uleb128 0x1
 2822 0769 9C       		.byte	0x9c
 2823 076a 9F070000 		.4byte	0x79f
 2824 076e 1E       		.uleb128 0x1e
 2825 076f 06000000 		.4byte	.LBB2
 2826 0773 3C000000 		.4byte	.LBE2-.LBB2
 2827 0777 12       		.uleb128 0x12
 2828 0778 A6060000 		.4byte	.LASF98
 2829 077c 03       		.byte	0x3
 2830 077d 40       		.byte	0x40
 2831 077e 89000000 		.4byte	0x89
ARM GAS  C:\Users\Runeg\AppData\Local\Temp\cci0HMiU.s 			page 63


 2832 0782 02       		.uleb128 0x2
 2833 0783 91       		.byte	0x91
 2834 0784 74       		.sleb128 -12
 2835 0785 1E       		.uleb128 0x1e
 2836 0786 0C000000 		.4byte	.LBB3
 2837 078a 2A000000 		.4byte	.LBE3-.LBB3
 2838 078e 12       		.uleb128 0x12
 2839 078f AA070000 		.4byte	.LASF76
 2840 0793 03       		.byte	0x3
 2841 0794 44       		.byte	0x44
 2842 0795 A1010000 		.4byte	0x1a1
 2843 0799 02       		.uleb128 0x2
 2844 079a 91       		.byte	0x91
 2845 079b 70       		.sleb128 -16
 2846 079c 00       		.byte	0
 2847 079d 00       		.byte	0
 2848 079e 00       		.byte	0
 2849 079f 1B       		.uleb128 0x1b
 2850 07a0 28090000 		.4byte	.LASF100
 2851 07a4 03       		.byte	0x3
 2852 07a5 4C       		.byte	0x4c
 2853 07a6 89000000 		.4byte	0x89
 2854 07aa 00000000 		.4byte	.LFB81
 2855 07ae 2C000000 		.4byte	.LFE81-.LFB81
 2856 07b2 01       		.uleb128 0x1
 2857 07b3 9C       		.byte	0x9c
 2858 07b4 C7070000 		.4byte	0x7c7
 2859 07b8 11       		.uleb128 0x11
 2860 07b9 90060000 		.4byte	.LASF101
 2861 07bd 03       		.byte	0x3
 2862 07be 4C       		.byte	0x4c
 2863 07bf AD000000 		.4byte	0xad
 2864 07c3 02       		.uleb128 0x2
 2865 07c4 91       		.byte	0x91
 2866 07c5 76       		.sleb128 -10
 2867 07c6 00       		.byte	0
 2868 07c7 1F       		.uleb128 0x1f
 2869 07c8 14000000 		.4byte	.LASF103
 2870 07cc 03       		.byte	0x3
 2871 07cd 51       		.byte	0x51
 2872 07ce 00000000 		.4byte	.LFB82
 2873 07d2 48000000 		.4byte	.LFE82-.LFB82
 2874 07d6 01       		.uleb128 0x1
 2875 07d7 9C       		.byte	0x9c
 2876 07d8 EB070000 		.4byte	0x7eb
 2877 07dc 11       		.uleb128 0x11
 2878 07dd 4D000000 		.4byte	.LASF104
 2879 07e1 03       		.byte	0x3
 2880 07e2 51       		.byte	0x51
 2881 07e3 7E040000 		.4byte	0x47e
 2882 07e7 02       		.uleb128 0x2
 2883 07e8 91       		.byte	0x91
 2884 07e9 74       		.sleb128 -12
 2885 07ea 00       		.byte	0
 2886 07eb 1D       		.uleb128 0x1d
 2887 07ec 5F020000 		.4byte	.LASF106
 2888 07f0 03       		.byte	0x3
ARM GAS  C:\Users\Runeg\AppData\Local\Temp\cci0HMiU.s 			page 64


 2889 07f1 5C       		.byte	0x5c
 2890 07f2 00000000 		.4byte	.LFB83
 2891 07f6 3C010000 		.4byte	.LFE83-.LFB83
 2892 07fa 01       		.uleb128 0x1
 2893 07fb 9C       		.byte	0x9c
 2894 07fc AB080000 		.4byte	0x8ab
 2895 0800 1E       		.uleb128 0x1e
 2896 0801 06000000 		.4byte	.LBB4
 2897 0805 1C010000 		.4byte	.LBE4-.LBB4
 2898 0809 12       		.uleb128 0x12
 2899 080a A6060000 		.4byte	.LASF98
 2900 080e 03       		.byte	0x3
 2901 080f 5F       		.byte	0x5f
 2902 0810 89000000 		.4byte	0x89
 2903 0814 02       		.uleb128 0x2
 2904 0815 91       		.byte	0x91
 2905 0816 74       		.sleb128 -12
 2906 0817 1E       		.uleb128 0x1e
 2907 0818 0C000000 		.4byte	.LBB5
 2908 081c 08010000 		.4byte	.LBE5-.LBB5
 2909 0820 12       		.uleb128 0x12
 2910 0821 90060000 		.4byte	.LASF101
 2911 0825 03       		.byte	0x3
 2912 0826 63       		.byte	0x63
 2913 0827 AD000000 		.4byte	0xad
 2914 082b 02       		.uleb128 0x2
 2915 082c 91       		.byte	0x91
 2916 082d 72       		.sleb128 -14
 2917 082e 20       		.uleb128 0x20
 2918 082f 44000000 		.4byte	.LBB6
 2919 0833 1C000000 		.4byte	.LBE6-.LBB6
 2920 0837 4A080000 		.4byte	0x84a
 2921 083b 12       		.uleb128 0x12
 2922 083c 21060000 		.4byte	.LASF107
 2923 0840 03       		.byte	0x3
 2924 0841 6A       		.byte	0x6a
 2925 0842 88010000 		.4byte	0x188
 2926 0846 02       		.uleb128 0x2
 2927 0847 91       		.byte	0x91
 2928 0848 70       		.sleb128 -16
 2929 0849 00       		.byte	0
 2930 084a 20       		.uleb128 0x20
 2931 084b 94000000 		.4byte	.LBB7
 2932 084f 2E000000 		.4byte	.LBE7-.LBB7
 2933 0853 74080000 		.4byte	0x874
 2934 0857 12       		.uleb128 0x12
 2935 0858 D9040000 		.4byte	.LASF108
 2936 085c 03       		.byte	0x3
 2937 085d 77       		.byte	0x77
 2938 085e CE010000 		.4byte	0x1ce
 2939 0862 02       		.uleb128 0x2
 2940 0863 91       		.byte	0x91
 2941 0864 70       		.sleb128 -16
 2942 0865 12       		.uleb128 0x12
 2943 0866 AA070000 		.4byte	.LASF76
 2944 086a 03       		.byte	0x3
 2945 086b 7C       		.byte	0x7c
ARM GAS  C:\Users\Runeg\AppData\Local\Temp\cci0HMiU.s 			page 65


 2946 086c A1010000 		.4byte	0x1a1
 2947 0870 02       		.uleb128 0x2
 2948 0871 91       		.byte	0x91
 2949 0872 6C       		.sleb128 -20
 2950 0873 00       		.byte	0
 2951 0874 20       		.uleb128 0x20
 2952 0875 C4000000 		.4byte	.LBB8
 2953 0879 14000000 		.4byte	.LBE8-.LBB8
 2954 087d 90080000 		.4byte	0x890
 2955 0881 12       		.uleb128 0x12
 2956 0882 21060000 		.4byte	.LASF107
 2957 0886 03       		.byte	0x3
 2958 0887 82       		.byte	0x82
 2959 0888 88010000 		.4byte	0x188
 2960 088c 02       		.uleb128 0x2
 2961 088d 91       		.byte	0x91
 2962 088e 68       		.sleb128 -24
 2963 088f 00       		.byte	0
 2964 0890 1E       		.uleb128 0x1e
 2965 0891 F2000000 		.4byte	.LBB9
 2966 0895 22000000 		.4byte	.LBE9-.LBB9
 2967 0899 12       		.uleb128 0x12
 2968 089a AA070000 		.4byte	.LASF76
 2969 089e 03       		.byte	0x3
 2970 089f 8A       		.byte	0x8a
 2971 08a0 A1010000 		.4byte	0x1a1
 2972 08a4 02       		.uleb128 0x2
 2973 08a5 91       		.byte	0x91
 2974 08a6 64       		.sleb128 -28
 2975 08a7 00       		.byte	0
 2976 08a8 00       		.byte	0
 2977 08a9 00       		.byte	0
 2978 08aa 00       		.byte	0
 2979 08ab 1B       		.uleb128 0x1b
 2980 08ac 75050000 		.4byte	.LASF109
 2981 08b0 03       		.byte	0x3
 2982 08b1 9E       		.byte	0x9e
 2983 08b2 89000000 		.4byte	0x89
 2984 08b6 00000000 		.4byte	.LFB84
 2985 08ba 20000000 		.4byte	.LFE84-.LFB84
 2986 08be 01       		.uleb128 0x1
 2987 08bf 9C       		.byte	0x9c
 2988 08c0 D3080000 		.4byte	0x8d3
 2989 08c4 11       		.uleb128 0x11
 2990 08c5 6E090000 		.4byte	.LASF110
 2991 08c9 03       		.byte	0x3
 2992 08ca 9E       		.byte	0x9e
 2993 08cb 96030000 		.4byte	0x396
 2994 08cf 02       		.uleb128 0x2
 2995 08d0 91       		.byte	0x91
 2996 08d1 74       		.sleb128 -12
 2997 08d2 00       		.byte	0
 2998 08d3 21       		.uleb128 0x21
 2999 08d4 CC030000 		.4byte	.LASF111
 3000 08d8 03       		.byte	0x3
 3001 08d9 AA       		.byte	0xaa
 3002 08da 00000000 		.4byte	.LFB85
ARM GAS  C:\Users\Runeg\AppData\Local\Temp\cci0HMiU.s 			page 66


 3003 08de 56000000 		.4byte	.LFE85-.LFB85
 3004 08e2 01       		.uleb128 0x1
 3005 08e3 9C       		.byte	0x9c
 3006 08e4 1D090000 		.4byte	0x91d
 3007 08e8 11       		.uleb128 0x11
 3008 08e9 AA070000 		.4byte	.LASF76
 3009 08ed 03       		.byte	0x3
 3010 08ee AA       		.byte	0xaa
 3011 08ef 96030000 		.4byte	0x396
 3012 08f3 02       		.uleb128 0x2
 3013 08f4 91       		.byte	0x91
 3014 08f5 64       		.sleb128 -28
 3015 08f6 1E       		.uleb128 0x1e
 3016 08f7 10000000 		.4byte	.LBB10
 3017 08fb 38000000 		.4byte	.LBE10-.LBB10
 3018 08ff 12       		.uleb128 0x12
 3019 0900 B1020000 		.4byte	.LASF112
 3020 0904 03       		.byte	0x3
 3021 0905 B1       		.byte	0xb1
 3022 0906 D6010000 		.4byte	0x1d6
 3023 090a 02       		.uleb128 0x2
 3024 090b 91       		.byte	0x91
 3025 090c 6C       		.sleb128 -20
 3026 090d 12       		.uleb128 0x12
 3027 090e B8030000 		.4byte	.LASF113
 3028 0912 03       		.byte	0x3
 3029 0913 B5       		.byte	0xb5
 3030 0914 AD000000 		.4byte	0xad
 3031 0918 02       		.uleb128 0x2
 3032 0919 91       		.byte	0x91
 3033 091a 6E       		.sleb128 -18
 3034 091b 00       		.byte	0
 3035 091c 00       		.byte	0
 3036 091d 21       		.uleb128 0x21
 3037 091e 4D060000 		.4byte	.LASF114
 3038 0922 03       		.byte	0x3
 3039 0923 BF       		.byte	0xbf
 3040 0924 00000000 		.4byte	.LFB86
 3041 0928 50000000 		.4byte	.LFE86-.LFB86
 3042 092c 01       		.uleb128 0x1
 3043 092d 9C       		.byte	0x9c
 3044 092e 41090000 		.4byte	0x941
 3045 0932 11       		.uleb128 0x11
 3046 0933 FC060000 		.4byte	.LASF115
 3047 0937 03       		.byte	0x3
 3048 0938 BF       		.byte	0xbf
 3049 0939 41090000 		.4byte	0x941
 3050 093d 02       		.uleb128 0x2
 3051 093e 91       		.byte	0x91
 3052 093f 6C       		.sleb128 -20
 3053 0940 00       		.byte	0
 3054 0941 06       		.uleb128 0x6
 3055 0942 04       		.byte	0x4
 3056 0943 3E020000 		.4byte	0x23e
 3057 0947 22       		.uleb128 0x22
 3058 0948 13090000 		.4byte	.LASF116
 3059 094c 03       		.byte	0x3
ARM GAS  C:\Users\Runeg\AppData\Local\Temp\cci0HMiU.s 			page 67


 3060 094d D6       		.byte	0xd6
 3061 094e 89000000 		.4byte	0x89
 3062 0952 00000000 		.4byte	.LFB87
 3063 0956 4C000000 		.4byte	.LFE87-.LFB87
 3064 095a 01       		.uleb128 0x1
 3065 095b 9C       		.byte	0x9c
 3066 095c 79090000 		.4byte	0x979
 3067 0960 1E       		.uleb128 0x1e
 3068 0961 18000000 		.4byte	.LBB11
 3069 0965 32000000 		.4byte	.LBE11-.LBB11
 3070 0969 12       		.uleb128 0x12
 3071 096a 73030000 		.4byte	.LASF117
 3072 096e 03       		.byte	0x3
 3073 096f E4       		.byte	0xe4
 3074 0970 86020000 		.4byte	0x286
 3075 0974 02       		.uleb128 0x2
 3076 0975 91       		.byte	0x91
 3077 0976 70       		.sleb128 -16
 3078 0977 00       		.byte	0
 3079 0978 00       		.byte	0
 3080 0979 23       		.uleb128 0x23
 3081 097a 1A040000 		.4byte	.LASF118
 3082 097e 0B       		.byte	0xb
 3083 097f 1207     		.2byte	0x712
 3084 0981 85090000 		.4byte	0x985
 3085 0985 24       		.uleb128 0x24
 3086 0986 B8000000 		.4byte	0xb8
 3087 098a 25       		.uleb128 0x25
 3088 098b 03070000 		.4byte	.LASF119
 3089 098f 0A       		.byte	0xa
 3090 0990 24       		.byte	0x24
 3091 0991 F1020000 		.4byte	0x2f1
 3092 0995 05       		.uleb128 0x5
 3093 0996 03       		.byte	0x3
 3094 0997 00000000 		.4byte	weight1
 3095 099b 25       		.uleb128 0x25
 3096 099c 1B030000 		.4byte	.LASF120
 3097 09a0 0A       		.byte	0xa
 3098 09a1 25       		.byte	0x25
 3099 09a2 F1020000 		.4byte	0x2f1
 3100 09a6 05       		.uleb128 0x5
 3101 09a7 03       		.byte	0x3
 3102 09a8 00000000 		.4byte	weight2
 3103 09ac 25       		.uleb128 0x25
 3104 09ad 2B070000 		.4byte	.LASF121
 3105 09b1 0A       		.byte	0xa
 3106 09b2 26       		.byte	0x26
 3107 09b3 F1020000 		.4byte	0x2f1
 3108 09b7 05       		.uleb128 0x5
 3109 09b8 03       		.byte	0x3
 3110 09b9 00000000 		.4byte	weight3
 3111 09bd 25       		.uleb128 0x25
 3112 09be C5040000 		.4byte	.LASF122
 3113 09c2 0A       		.byte	0xa
 3114 09c3 28       		.byte	0x28
 3115 09c4 CE090000 		.4byte	0x9ce
 3116 09c8 05       		.uleb128 0x5
ARM GAS  C:\Users\Runeg\AppData\Local\Temp\cci0HMiU.s 			page 68


 3117 09c9 03       		.byte	0x3
 3118 09ca 00000000 		.4byte	current_weight
 3119 09ce 06       		.uleb128 0x6
 3120 09cf 04       		.byte	0x4
 3121 09d0 F1020000 		.4byte	0x2f1
 3122 09d4 25       		.uleb128 0x25
 3123 09d5 5D040000 		.4byte	.LASF123
 3124 09d9 03       		.byte	0x3
 3125 09da 14       		.byte	0x14
 3126 09db 97000000 		.4byte	0x97
 3127 09df 05       		.uleb128 0x5
 3128 09e0 03       		.byte	0x3
 3129 09e1 00000000 		.4byte	MAX_VOLUME_IN_CONTAINER
 3130 09e5 25       		.uleb128 0x25
 3131 09e6 28020000 		.4byte	.LASF124
 3132 09ea 03       		.byte	0x3
 3133 09eb 15       		.byte	0x15
 3134 09ec 89000000 		.4byte	0x89
 3135 09f0 05       		.uleb128 0x5
 3136 09f1 03       		.byte	0x3
 3137 09f2 00000000 		.4byte	pump_1_periods_pr_cl
 3138 09f6 25       		.uleb128 0x25
 3139 09f7 13020000 		.4byte	.LASF125
 3140 09fb 03       		.byte	0x3
 3141 09fc 16       		.byte	0x16
 3142 09fd 89000000 		.4byte	0x89
 3143 0a01 05       		.uleb128 0x5
 3144 0a02 03       		.byte	0x3
 3145 0a03 00000000 		.4byte	pump_2_periods_pr_cl
 3146 0a07 25       		.uleb128 0x25
 3147 0a08 E3010000 		.4byte	.LASF126
 3148 0a0c 03       		.byte	0x3
 3149 0a0d 17       		.byte	0x17
 3150 0a0e 89000000 		.4byte	0x89
 3151 0a12 05       		.uleb128 0x5
 3152 0a13 03       		.byte	0x3
 3153 0a14 00000000 		.4byte	pump_3_periods_pr_cl
 3154 0a18 00       		.byte	0
 3155              		.section	.debug_abbrev,"",%progbits
 3156              	.Ldebug_abbrev0:
 3157 0000 01       		.uleb128 0x1
 3158 0001 11       		.uleb128 0x11
 3159 0002 01       		.byte	0x1
 3160 0003 25       		.uleb128 0x25
 3161 0004 0E       		.uleb128 0xe
 3162 0005 13       		.uleb128 0x13
 3163 0006 0B       		.uleb128 0xb
 3164 0007 03       		.uleb128 0x3
 3165 0008 0E       		.uleb128 0xe
 3166 0009 1B       		.uleb128 0x1b
 3167 000a 0E       		.uleb128 0xe
 3168 000b 55       		.uleb128 0x55
 3169 000c 17       		.uleb128 0x17
 3170 000d 11       		.uleb128 0x11
 3171 000e 01       		.uleb128 0x1
 3172 000f 10       		.uleb128 0x10
 3173 0010 17       		.uleb128 0x17
ARM GAS  C:\Users\Runeg\AppData\Local\Temp\cci0HMiU.s 			page 69


 3174 0011 00       		.byte	0
 3175 0012 00       		.byte	0
 3176 0013 02       		.uleb128 0x2
 3177 0014 24       		.uleb128 0x24
 3178 0015 00       		.byte	0
 3179 0016 0B       		.uleb128 0xb
 3180 0017 0B       		.uleb128 0xb
 3181 0018 3E       		.uleb128 0x3e
 3182 0019 0B       		.uleb128 0xb
 3183 001a 03       		.uleb128 0x3
 3184 001b 0E       		.uleb128 0xe
 3185 001c 00       		.byte	0
 3186 001d 00       		.byte	0
 3187 001e 03       		.uleb128 0x3
 3188 001f 16       		.uleb128 0x16
 3189 0020 00       		.byte	0
 3190 0021 03       		.uleb128 0x3
 3191 0022 0E       		.uleb128 0xe
 3192 0023 3A       		.uleb128 0x3a
 3193 0024 0B       		.uleb128 0xb
 3194 0025 3B       		.uleb128 0x3b
 3195 0026 0B       		.uleb128 0xb
 3196 0027 49       		.uleb128 0x49
 3197 0028 13       		.uleb128 0x13
 3198 0029 00       		.byte	0
 3199 002a 00       		.byte	0
 3200 002b 04       		.uleb128 0x4
 3201 002c 24       		.uleb128 0x24
 3202 002d 00       		.byte	0
 3203 002e 0B       		.uleb128 0xb
 3204 002f 0B       		.uleb128 0xb
 3205 0030 3E       		.uleb128 0x3e
 3206 0031 0B       		.uleb128 0xb
 3207 0032 03       		.uleb128 0x3
 3208 0033 08       		.uleb128 0x8
 3209 0034 00       		.byte	0
 3210 0035 00       		.byte	0
 3211 0036 05       		.uleb128 0x5
 3212 0037 0F       		.uleb128 0xf
 3213 0038 00       		.byte	0
 3214 0039 0B       		.uleb128 0xb
 3215 003a 0B       		.uleb128 0xb
 3216 003b 00       		.byte	0
 3217 003c 00       		.byte	0
 3218 003d 06       		.uleb128 0x6
 3219 003e 0F       		.uleb128 0xf
 3220 003f 00       		.byte	0
 3221 0040 0B       		.uleb128 0xb
 3222 0041 0B       		.uleb128 0xb
 3223 0042 49       		.uleb128 0x49
 3224 0043 13       		.uleb128 0x13
 3225 0044 00       		.byte	0
 3226 0045 00       		.byte	0
 3227 0046 07       		.uleb128 0x7
 3228 0047 04       		.uleb128 0x4
 3229 0048 01       		.byte	0x1
 3230 0049 03       		.uleb128 0x3
ARM GAS  C:\Users\Runeg\AppData\Local\Temp\cci0HMiU.s 			page 70


 3231 004a 0E       		.uleb128 0xe
 3232 004b 0B       		.uleb128 0xb
 3233 004c 0B       		.uleb128 0xb
 3234 004d 49       		.uleb128 0x49
 3235 004e 13       		.uleb128 0x13
 3236 004f 3A       		.uleb128 0x3a
 3237 0050 0B       		.uleb128 0xb
 3238 0051 3B       		.uleb128 0x3b
 3239 0052 0B       		.uleb128 0xb
 3240 0053 01       		.uleb128 0x1
 3241 0054 13       		.uleb128 0x13
 3242 0055 00       		.byte	0
 3243 0056 00       		.byte	0
 3244 0057 08       		.uleb128 0x8
 3245 0058 28       		.uleb128 0x28
 3246 0059 00       		.byte	0
 3247 005a 03       		.uleb128 0x3
 3248 005b 0E       		.uleb128 0xe
 3249 005c 1C       		.uleb128 0x1c
 3250 005d 0B       		.uleb128 0xb
 3251 005e 00       		.byte	0
 3252 005f 00       		.byte	0
 3253 0060 09       		.uleb128 0x9
 3254 0061 13       		.uleb128 0x13
 3255 0062 01       		.byte	0x1
 3256 0063 03       		.uleb128 0x3
 3257 0064 0E       		.uleb128 0xe
 3258 0065 0B       		.uleb128 0xb
 3259 0066 0B       		.uleb128 0xb
 3260 0067 3A       		.uleb128 0x3a
 3261 0068 0B       		.uleb128 0xb
 3262 0069 3B       		.uleb128 0x3b
 3263 006a 0B       		.uleb128 0xb
 3264 006b 01       		.uleb128 0x1
 3265 006c 13       		.uleb128 0x13
 3266 006d 00       		.byte	0
 3267 006e 00       		.byte	0
 3268 006f 0A       		.uleb128 0xa
 3269 0070 0D       		.uleb128 0xd
 3270 0071 00       		.byte	0
 3271 0072 03       		.uleb128 0x3
 3272 0073 0E       		.uleb128 0xe
 3273 0074 3A       		.uleb128 0x3a
 3274 0075 0B       		.uleb128 0xb
 3275 0076 3B       		.uleb128 0x3b
 3276 0077 0B       		.uleb128 0xb
 3277 0078 49       		.uleb128 0x49
 3278 0079 13       		.uleb128 0x13
 3279 007a 38       		.uleb128 0x38
 3280 007b 0B       		.uleb128 0xb
 3281 007c 00       		.byte	0
 3282 007d 00       		.byte	0
 3283 007e 0B       		.uleb128 0xb
 3284 007f 13       		.uleb128 0x13
 3285 0080 00       		.byte	0
 3286 0081 03       		.uleb128 0x3
 3287 0082 0E       		.uleb128 0xe
ARM GAS  C:\Users\Runeg\AppData\Local\Temp\cci0HMiU.s 			page 71


 3288 0083 0B       		.uleb128 0xb
 3289 0084 0B       		.uleb128 0xb
 3290 0085 3A       		.uleb128 0x3a
 3291 0086 0B       		.uleb128 0xb
 3292 0087 3B       		.uleb128 0x3b
 3293 0088 0B       		.uleb128 0xb
 3294 0089 00       		.byte	0
 3295 008a 00       		.byte	0
 3296 008b 0C       		.uleb128 0xc
 3297 008c 13       		.uleb128 0x13
 3298 008d 01       		.byte	0x1
 3299 008e 03       		.uleb128 0x3
 3300 008f 0E       		.uleb128 0xe
 3301 0090 0B       		.uleb128 0xb
 3302 0091 0B       		.uleb128 0xb
 3303 0092 3A       		.uleb128 0x3a
 3304 0093 0B       		.uleb128 0xb
 3305 0094 3B       		.uleb128 0x3b
 3306 0095 05       		.uleb128 0x5
 3307 0096 01       		.uleb128 0x1
 3308 0097 13       		.uleb128 0x13
 3309 0098 00       		.byte	0
 3310 0099 00       		.byte	0
 3311 009a 0D       		.uleb128 0xd
 3312 009b 0D       		.uleb128 0xd
 3313 009c 00       		.byte	0
 3314 009d 03       		.uleb128 0x3
 3315 009e 0E       		.uleb128 0xe
 3316 009f 3A       		.uleb128 0x3a
 3317 00a0 0B       		.uleb128 0xb
 3318 00a1 3B       		.uleb128 0x3b
 3319 00a2 05       		.uleb128 0x5
 3320 00a3 49       		.uleb128 0x49
 3321 00a4 13       		.uleb128 0x13
 3322 00a5 38       		.uleb128 0x38
 3323 00a6 0B       		.uleb128 0xb
 3324 00a7 00       		.byte	0
 3325 00a8 00       		.byte	0
 3326 00a9 0E       		.uleb128 0xe
 3327 00aa 13       		.uleb128 0x13
 3328 00ab 01       		.byte	0x1
 3329 00ac 03       		.uleb128 0x3
 3330 00ad 08       		.uleb128 0x8
 3331 00ae 0B       		.uleb128 0xb
 3332 00af 0B       		.uleb128 0xb
 3333 00b0 3A       		.uleb128 0x3a
 3334 00b1 0B       		.uleb128 0xb
 3335 00b2 3B       		.uleb128 0x3b
 3336 00b3 0B       		.uleb128 0xb
 3337 00b4 01       		.uleb128 0x1
 3338 00b5 13       		.uleb128 0x13
 3339 00b6 00       		.byte	0
 3340 00b7 00       		.byte	0
 3341 00b8 0F       		.uleb128 0xf
 3342 00b9 0D       		.uleb128 0xd
 3343 00ba 00       		.byte	0
 3344 00bb 03       		.uleb128 0x3
ARM GAS  C:\Users\Runeg\AppData\Local\Temp\cci0HMiU.s 			page 72


 3345 00bc 08       		.uleb128 0x8
 3346 00bd 3A       		.uleb128 0x3a
 3347 00be 0B       		.uleb128 0xb
 3348 00bf 3B       		.uleb128 0x3b
 3349 00c0 0B       		.uleb128 0xb
 3350 00c1 49       		.uleb128 0x49
 3351 00c2 13       		.uleb128 0x13
 3352 00c3 38       		.uleb128 0x38
 3353 00c4 0B       		.uleb128 0xb
 3354 00c5 00       		.byte	0
 3355 00c6 00       		.byte	0
 3356 00c7 10       		.uleb128 0x10
 3357 00c8 2E       		.uleb128 0x2e
 3358 00c9 01       		.byte	0x1
 3359 00ca 03       		.uleb128 0x3
 3360 00cb 0E       		.uleb128 0xe
 3361 00cc 3A       		.uleb128 0x3a
 3362 00cd 0B       		.uleb128 0xb
 3363 00ce 3B       		.uleb128 0x3b
 3364 00cf 0B       		.uleb128 0xb
 3365 00d0 27       		.uleb128 0x27
 3366 00d1 19       		.uleb128 0x19
 3367 00d2 49       		.uleb128 0x49
 3368 00d3 13       		.uleb128 0x13
 3369 00d4 11       		.uleb128 0x11
 3370 00d5 01       		.uleb128 0x1
 3371 00d6 12       		.uleb128 0x12
 3372 00d7 06       		.uleb128 0x6
 3373 00d8 40       		.uleb128 0x40
 3374 00d9 18       		.uleb128 0x18
 3375 00da 9642     		.uleb128 0x2116
 3376 00dc 19       		.uleb128 0x19
 3377 00dd 01       		.uleb128 0x1
 3378 00de 13       		.uleb128 0x13
 3379 00df 00       		.byte	0
 3380 00e0 00       		.byte	0
 3381 00e1 11       		.uleb128 0x11
 3382 00e2 05       		.uleb128 0x5
 3383 00e3 00       		.byte	0
 3384 00e4 03       		.uleb128 0x3
 3385 00e5 0E       		.uleb128 0xe
 3386 00e6 3A       		.uleb128 0x3a
 3387 00e7 0B       		.uleb128 0xb
 3388 00e8 3B       		.uleb128 0x3b
 3389 00e9 0B       		.uleb128 0xb
 3390 00ea 49       		.uleb128 0x49
 3391 00eb 13       		.uleb128 0x13
 3392 00ec 02       		.uleb128 0x2
 3393 00ed 18       		.uleb128 0x18
 3394 00ee 00       		.byte	0
 3395 00ef 00       		.byte	0
 3396 00f0 12       		.uleb128 0x12
 3397 00f1 34       		.uleb128 0x34
 3398 00f2 00       		.byte	0
 3399 00f3 03       		.uleb128 0x3
 3400 00f4 0E       		.uleb128 0xe
 3401 00f5 3A       		.uleb128 0x3a
ARM GAS  C:\Users\Runeg\AppData\Local\Temp\cci0HMiU.s 			page 73


 3402 00f6 0B       		.uleb128 0xb
 3403 00f7 3B       		.uleb128 0x3b
 3404 00f8 0B       		.uleb128 0xb
 3405 00f9 49       		.uleb128 0x49
 3406 00fa 13       		.uleb128 0x13
 3407 00fb 02       		.uleb128 0x2
 3408 00fc 18       		.uleb128 0x18
 3409 00fd 00       		.byte	0
 3410 00fe 00       		.byte	0
 3411 00ff 13       		.uleb128 0x13
 3412 0100 2E       		.uleb128 0x2e
 3413 0101 01       		.byte	0x1
 3414 0102 03       		.uleb128 0x3
 3415 0103 0E       		.uleb128 0xe
 3416 0104 3A       		.uleb128 0x3a
 3417 0105 0B       		.uleb128 0xb
 3418 0106 3B       		.uleb128 0x3b
 3419 0107 0B       		.uleb128 0xb
 3420 0108 27       		.uleb128 0x27
 3421 0109 19       		.uleb128 0x19
 3422 010a 11       		.uleb128 0x11
 3423 010b 01       		.uleb128 0x1
 3424 010c 12       		.uleb128 0x12
 3425 010d 06       		.uleb128 0x6
 3426 010e 40       		.uleb128 0x40
 3427 010f 18       		.uleb128 0x18
 3428 0110 9642     		.uleb128 0x2116
 3429 0112 19       		.uleb128 0x19
 3430 0113 01       		.uleb128 0x1
 3431 0114 13       		.uleb128 0x13
 3432 0115 00       		.byte	0
 3433 0116 00       		.byte	0
 3434 0117 14       		.uleb128 0x14
 3435 0118 2E       		.uleb128 0x2e
 3436 0119 01       		.byte	0x1
 3437 011a 03       		.uleb128 0x3
 3438 011b 0E       		.uleb128 0xe
 3439 011c 3A       		.uleb128 0x3a
 3440 011d 0B       		.uleb128 0xb
 3441 011e 3B       		.uleb128 0x3b
 3442 011f 0B       		.uleb128 0xb
 3443 0120 27       		.uleb128 0x27
 3444 0121 19       		.uleb128 0x19
 3445 0122 49       		.uleb128 0x49
 3446 0123 13       		.uleb128 0x13
 3447 0124 11       		.uleb128 0x11
 3448 0125 01       		.uleb128 0x1
 3449 0126 12       		.uleb128 0x12
 3450 0127 06       		.uleb128 0x6
 3451 0128 40       		.uleb128 0x40
 3452 0129 18       		.uleb128 0x18
 3453 012a 9742     		.uleb128 0x2117
 3454 012c 19       		.uleb128 0x19
 3455 012d 01       		.uleb128 0x1
 3456 012e 13       		.uleb128 0x13
 3457 012f 00       		.byte	0
 3458 0130 00       		.byte	0
ARM GAS  C:\Users\Runeg\AppData\Local\Temp\cci0HMiU.s 			page 74


 3459 0131 15       		.uleb128 0x15
 3460 0132 05       		.uleb128 0x5
 3461 0133 00       		.byte	0
 3462 0134 03       		.uleb128 0x3
 3463 0135 08       		.uleb128 0x8
 3464 0136 3A       		.uleb128 0x3a
 3465 0137 0B       		.uleb128 0xb
 3466 0138 3B       		.uleb128 0x3b
 3467 0139 0B       		.uleb128 0xb
 3468 013a 49       		.uleb128 0x49
 3469 013b 13       		.uleb128 0x13
 3470 013c 02       		.uleb128 0x2
 3471 013d 18       		.uleb128 0x18
 3472 013e 00       		.byte	0
 3473 013f 00       		.byte	0
 3474 0140 16       		.uleb128 0x16
 3475 0141 2E       		.uleb128 0x2e
 3476 0142 01       		.byte	0x1
 3477 0143 03       		.uleb128 0x3
 3478 0144 0E       		.uleb128 0xe
 3479 0145 3A       		.uleb128 0x3a
 3480 0146 0B       		.uleb128 0xb
 3481 0147 3B       		.uleb128 0x3b
 3482 0148 05       		.uleb128 0x5
 3483 0149 27       		.uleb128 0x27
 3484 014a 19       		.uleb128 0x19
 3485 014b 49       		.uleb128 0x49
 3486 014c 13       		.uleb128 0x13
 3487 014d 11       		.uleb128 0x11
 3488 014e 01       		.uleb128 0x1
 3489 014f 12       		.uleb128 0x12
 3490 0150 06       		.uleb128 0x6
 3491 0151 40       		.uleb128 0x40
 3492 0152 18       		.uleb128 0x18
 3493 0153 9742     		.uleb128 0x2117
 3494 0155 19       		.uleb128 0x19
 3495 0156 01       		.uleb128 0x1
 3496 0157 13       		.uleb128 0x13
 3497 0158 00       		.byte	0
 3498 0159 00       		.byte	0
 3499 015a 17       		.uleb128 0x17
 3500 015b 05       		.uleb128 0x5
 3501 015c 00       		.byte	0
 3502 015d 03       		.uleb128 0x3
 3503 015e 0E       		.uleb128 0xe
 3504 015f 3A       		.uleb128 0x3a
 3505 0160 0B       		.uleb128 0xb
 3506 0161 3B       		.uleb128 0x3b
 3507 0162 05       		.uleb128 0x5
 3508 0163 49       		.uleb128 0x49
 3509 0164 13       		.uleb128 0x13
 3510 0165 02       		.uleb128 0x2
 3511 0166 18       		.uleb128 0x18
 3512 0167 00       		.byte	0
 3513 0168 00       		.byte	0
 3514 0169 18       		.uleb128 0x18
 3515 016a 34       		.uleb128 0x34
ARM GAS  C:\Users\Runeg\AppData\Local\Temp\cci0HMiU.s 			page 75


 3516 016b 00       		.byte	0
 3517 016c 03       		.uleb128 0x3
 3518 016d 0E       		.uleb128 0xe
 3519 016e 3A       		.uleb128 0x3a
 3520 016f 0B       		.uleb128 0xb
 3521 0170 3B       		.uleb128 0x3b
 3522 0171 05       		.uleb128 0x5
 3523 0172 49       		.uleb128 0x49
 3524 0173 13       		.uleb128 0x13
 3525 0174 02       		.uleb128 0x2
 3526 0175 18       		.uleb128 0x18
 3527 0176 00       		.byte	0
 3528 0177 00       		.byte	0
 3529 0178 19       		.uleb128 0x19
 3530 0179 2E       		.uleb128 0x2e
 3531 017a 01       		.byte	0x1
 3532 017b 03       		.uleb128 0x3
 3533 017c 0E       		.uleb128 0xe
 3534 017d 3A       		.uleb128 0x3a
 3535 017e 0B       		.uleb128 0xb
 3536 017f 3B       		.uleb128 0x3b
 3537 0180 05       		.uleb128 0x5
 3538 0181 27       		.uleb128 0x27
 3539 0182 19       		.uleb128 0x19
 3540 0183 49       		.uleb128 0x49
 3541 0184 13       		.uleb128 0x13
 3542 0185 11       		.uleb128 0x11
 3543 0186 01       		.uleb128 0x1
 3544 0187 12       		.uleb128 0x12
 3545 0188 06       		.uleb128 0x6
 3546 0189 40       		.uleb128 0x40
 3547 018a 18       		.uleb128 0x18
 3548 018b 9642     		.uleb128 0x2116
 3549 018d 19       		.uleb128 0x19
 3550 018e 01       		.uleb128 0x1
 3551 018f 13       		.uleb128 0x13
 3552 0190 00       		.byte	0
 3553 0191 00       		.byte	0
 3554 0192 1A       		.uleb128 0x1a
 3555 0193 05       		.uleb128 0x5
 3556 0194 00       		.byte	0
 3557 0195 03       		.uleb128 0x3
 3558 0196 08       		.uleb128 0x8
 3559 0197 3A       		.uleb128 0x3a
 3560 0198 0B       		.uleb128 0xb
 3561 0199 3B       		.uleb128 0x3b
 3562 019a 05       		.uleb128 0x5
 3563 019b 49       		.uleb128 0x49
 3564 019c 13       		.uleb128 0x13
 3565 019d 02       		.uleb128 0x2
 3566 019e 18       		.uleb128 0x18
 3567 019f 00       		.byte	0
 3568 01a0 00       		.byte	0
 3569 01a1 1B       		.uleb128 0x1b
 3570 01a2 2E       		.uleb128 0x2e
 3571 01a3 01       		.byte	0x1
 3572 01a4 3F       		.uleb128 0x3f
ARM GAS  C:\Users\Runeg\AppData\Local\Temp\cci0HMiU.s 			page 76


 3573 01a5 19       		.uleb128 0x19
 3574 01a6 03       		.uleb128 0x3
 3575 01a7 0E       		.uleb128 0xe
 3576 01a8 3A       		.uleb128 0x3a
 3577 01a9 0B       		.uleb128 0xb
 3578 01aa 3B       		.uleb128 0x3b
 3579 01ab 0B       		.uleb128 0xb
 3580 01ac 27       		.uleb128 0x27
 3581 01ad 19       		.uleb128 0x19
 3582 01ae 49       		.uleb128 0x49
 3583 01af 13       		.uleb128 0x13
 3584 01b0 11       		.uleb128 0x11
 3585 01b1 01       		.uleb128 0x1
 3586 01b2 12       		.uleb128 0x12
 3587 01b3 06       		.uleb128 0x6
 3588 01b4 40       		.uleb128 0x40
 3589 01b5 18       		.uleb128 0x18
 3590 01b6 9742     		.uleb128 0x2117
 3591 01b8 19       		.uleb128 0x19
 3592 01b9 01       		.uleb128 0x1
 3593 01ba 13       		.uleb128 0x13
 3594 01bb 00       		.byte	0
 3595 01bc 00       		.byte	0
 3596 01bd 1C       		.uleb128 0x1c
 3597 01be 2E       		.uleb128 0x2e
 3598 01bf 01       		.byte	0x1
 3599 01c0 3F       		.uleb128 0x3f
 3600 01c1 19       		.uleb128 0x19
 3601 01c2 03       		.uleb128 0x3
 3602 01c3 0E       		.uleb128 0xe
 3603 01c4 3A       		.uleb128 0x3a
 3604 01c5 0B       		.uleb128 0xb
 3605 01c6 3B       		.uleb128 0x3b
 3606 01c7 0B       		.uleb128 0xb
 3607 01c8 49       		.uleb128 0x49
 3608 01c9 13       		.uleb128 0x13
 3609 01ca 11       		.uleb128 0x11
 3610 01cb 01       		.uleb128 0x1
 3611 01cc 12       		.uleb128 0x12
 3612 01cd 06       		.uleb128 0x6
 3613 01ce 40       		.uleb128 0x40
 3614 01cf 18       		.uleb128 0x18
 3615 01d0 9642     		.uleb128 0x2116
 3616 01d2 19       		.uleb128 0x19
 3617 01d3 01       		.uleb128 0x1
 3618 01d4 13       		.uleb128 0x13
 3619 01d5 00       		.byte	0
 3620 01d6 00       		.byte	0
 3621 01d7 1D       		.uleb128 0x1d
 3622 01d8 2E       		.uleb128 0x2e
 3623 01d9 01       		.byte	0x1
 3624 01da 3F       		.uleb128 0x3f
 3625 01db 19       		.uleb128 0x19
 3626 01dc 03       		.uleb128 0x3
 3627 01dd 0E       		.uleb128 0xe
 3628 01de 3A       		.uleb128 0x3a
 3629 01df 0B       		.uleb128 0xb
ARM GAS  C:\Users\Runeg\AppData\Local\Temp\cci0HMiU.s 			page 77


 3630 01e0 3B       		.uleb128 0x3b
 3631 01e1 0B       		.uleb128 0xb
 3632 01e2 11       		.uleb128 0x11
 3633 01e3 01       		.uleb128 0x1
 3634 01e4 12       		.uleb128 0x12
 3635 01e5 06       		.uleb128 0x6
 3636 01e6 40       		.uleb128 0x40
 3637 01e7 18       		.uleb128 0x18
 3638 01e8 9642     		.uleb128 0x2116
 3639 01ea 19       		.uleb128 0x19
 3640 01eb 01       		.uleb128 0x1
 3641 01ec 13       		.uleb128 0x13
 3642 01ed 00       		.byte	0
 3643 01ee 00       		.byte	0
 3644 01ef 1E       		.uleb128 0x1e
 3645 01f0 0B       		.uleb128 0xb
 3646 01f1 01       		.byte	0x1
 3647 01f2 11       		.uleb128 0x11
 3648 01f3 01       		.uleb128 0x1
 3649 01f4 12       		.uleb128 0x12
 3650 01f5 06       		.uleb128 0x6
 3651 01f6 00       		.byte	0
 3652 01f7 00       		.byte	0
 3653 01f8 1F       		.uleb128 0x1f
 3654 01f9 2E       		.uleb128 0x2e
 3655 01fa 01       		.byte	0x1
 3656 01fb 3F       		.uleb128 0x3f
 3657 01fc 19       		.uleb128 0x19
 3658 01fd 03       		.uleb128 0x3
 3659 01fe 0E       		.uleb128 0xe
 3660 01ff 3A       		.uleb128 0x3a
 3661 0200 0B       		.uleb128 0xb
 3662 0201 3B       		.uleb128 0x3b
 3663 0202 0B       		.uleb128 0xb
 3664 0203 27       		.uleb128 0x27
 3665 0204 19       		.uleb128 0x19
 3666 0205 11       		.uleb128 0x11
 3667 0206 01       		.uleb128 0x1
 3668 0207 12       		.uleb128 0x12
 3669 0208 06       		.uleb128 0x6
 3670 0209 40       		.uleb128 0x40
 3671 020a 18       		.uleb128 0x18
 3672 020b 9742     		.uleb128 0x2117
 3673 020d 19       		.uleb128 0x19
 3674 020e 01       		.uleb128 0x1
 3675 020f 13       		.uleb128 0x13
 3676 0210 00       		.byte	0
 3677 0211 00       		.byte	0
 3678 0212 20       		.uleb128 0x20
 3679 0213 0B       		.uleb128 0xb
 3680 0214 01       		.byte	0x1
 3681 0215 11       		.uleb128 0x11
 3682 0216 01       		.uleb128 0x1
 3683 0217 12       		.uleb128 0x12
 3684 0218 06       		.uleb128 0x6
 3685 0219 01       		.uleb128 0x1
 3686 021a 13       		.uleb128 0x13
ARM GAS  C:\Users\Runeg\AppData\Local\Temp\cci0HMiU.s 			page 78


 3687 021b 00       		.byte	0
 3688 021c 00       		.byte	0
 3689 021d 21       		.uleb128 0x21
 3690 021e 2E       		.uleb128 0x2e
 3691 021f 01       		.byte	0x1
 3692 0220 3F       		.uleb128 0x3f
 3693 0221 19       		.uleb128 0x19
 3694 0222 03       		.uleb128 0x3
 3695 0223 0E       		.uleb128 0xe
 3696 0224 3A       		.uleb128 0x3a
 3697 0225 0B       		.uleb128 0xb
 3698 0226 3B       		.uleb128 0x3b
 3699 0227 0B       		.uleb128 0xb
 3700 0228 27       		.uleb128 0x27
 3701 0229 19       		.uleb128 0x19
 3702 022a 11       		.uleb128 0x11
 3703 022b 01       		.uleb128 0x1
 3704 022c 12       		.uleb128 0x12
 3705 022d 06       		.uleb128 0x6
 3706 022e 40       		.uleb128 0x40
 3707 022f 18       		.uleb128 0x18
 3708 0230 9642     		.uleb128 0x2116
 3709 0232 19       		.uleb128 0x19
 3710 0233 01       		.uleb128 0x1
 3711 0234 13       		.uleb128 0x13
 3712 0235 00       		.byte	0
 3713 0236 00       		.byte	0
 3714 0237 22       		.uleb128 0x22
 3715 0238 2E       		.uleb128 0x2e
 3716 0239 01       		.byte	0x1
 3717 023a 3F       		.uleb128 0x3f
 3718 023b 19       		.uleb128 0x19
 3719 023c 03       		.uleb128 0x3
 3720 023d 0E       		.uleb128 0xe
 3721 023e 3A       		.uleb128 0x3a
 3722 023f 0B       		.uleb128 0xb
 3723 0240 3B       		.uleb128 0x3b
 3724 0241 0B       		.uleb128 0xb
 3725 0242 27       		.uleb128 0x27
 3726 0243 19       		.uleb128 0x19
 3727 0244 49       		.uleb128 0x49
 3728 0245 13       		.uleb128 0x13
 3729 0246 11       		.uleb128 0x11
 3730 0247 01       		.uleb128 0x1
 3731 0248 12       		.uleb128 0x12
 3732 0249 06       		.uleb128 0x6
 3733 024a 40       		.uleb128 0x40
 3734 024b 18       		.uleb128 0x18
 3735 024c 9642     		.uleb128 0x2116
 3736 024e 19       		.uleb128 0x19
 3737 024f 01       		.uleb128 0x1
 3738 0250 13       		.uleb128 0x13
 3739 0251 00       		.byte	0
 3740 0252 00       		.byte	0
 3741 0253 23       		.uleb128 0x23
 3742 0254 34       		.uleb128 0x34
 3743 0255 00       		.byte	0
ARM GAS  C:\Users\Runeg\AppData\Local\Temp\cci0HMiU.s 			page 79


 3744 0256 03       		.uleb128 0x3
 3745 0257 0E       		.uleb128 0xe
 3746 0258 3A       		.uleb128 0x3a
 3747 0259 0B       		.uleb128 0xb
 3748 025a 3B       		.uleb128 0x3b
 3749 025b 05       		.uleb128 0x5
 3750 025c 49       		.uleb128 0x49
 3751 025d 13       		.uleb128 0x13
 3752 025e 3F       		.uleb128 0x3f
 3753 025f 19       		.uleb128 0x19
 3754 0260 3C       		.uleb128 0x3c
 3755 0261 19       		.uleb128 0x19
 3756 0262 00       		.byte	0
 3757 0263 00       		.byte	0
 3758 0264 24       		.uleb128 0x24
 3759 0265 35       		.uleb128 0x35
 3760 0266 00       		.byte	0
 3761 0267 49       		.uleb128 0x49
 3762 0268 13       		.uleb128 0x13
 3763 0269 00       		.byte	0
 3764 026a 00       		.byte	0
 3765 026b 25       		.uleb128 0x25
 3766 026c 34       		.uleb128 0x34
 3767 026d 00       		.byte	0
 3768 026e 03       		.uleb128 0x3
 3769 026f 0E       		.uleb128 0xe
 3770 0270 3A       		.uleb128 0x3a
 3771 0271 0B       		.uleb128 0xb
 3772 0272 3B       		.uleb128 0x3b
 3773 0273 0B       		.uleb128 0xb
 3774 0274 49       		.uleb128 0x49
 3775 0275 13       		.uleb128 0x13
 3776 0276 3F       		.uleb128 0x3f
 3777 0277 19       		.uleb128 0x19
 3778 0278 02       		.uleb128 0x2
 3779 0279 18       		.uleb128 0x18
 3780 027a 00       		.byte	0
 3781 027b 00       		.byte	0
 3782 027c 00       		.byte	0
 3783              		.section	.debug_aranges,"",%progbits
 3784 0000 D4000000 		.4byte	0xd4
 3785 0004 0200     		.2byte	0x2
 3786 0006 00000000 		.4byte	.Ldebug_info0
 3787 000a 04       		.byte	0x4
 3788 000b 00       		.byte	0
 3789 000c 0000     		.2byte	0
 3790 000e 0000     		.2byte	0
 3791 0010 00000000 		.4byte	.LFB63
 3792 0014 4E000000 		.4byte	.LFE63-.LFB63
 3793 0018 00000000 		.4byte	.LFB64
 3794 001c 20000000 		.4byte	.LFE64-.LFB64
 3795 0020 00000000 		.4byte	.LFB65
 3796 0024 2C000000 		.4byte	.LFE65-.LFB65
 3797 0028 00000000 		.4byte	.LFB66
 3798 002c 44000000 		.4byte	.LFE66-.LFB66
 3799 0030 00000000 		.4byte	.LFB67
 3800 0034 36000000 		.4byte	.LFE67-.LFB67
ARM GAS  C:\Users\Runeg\AppData\Local\Temp\cci0HMiU.s 			page 80


 3801 0038 00000000 		.4byte	.LFB68
 3802 003c 60000000 		.4byte	.LFE68-.LFB68
 3803 0040 00000000 		.4byte	.LFB69
 3804 0044 4C000000 		.4byte	.LFE69-.LFB69
 3805 0048 00000000 		.4byte	.LFB70
 3806 004c 7A000000 		.4byte	.LFE70-.LFB70
 3807 0050 00000000 		.4byte	.LFB71
 3808 0054 24000000 		.4byte	.LFE71-.LFB71
 3809 0058 00000000 		.4byte	.LFB72
 3810 005c 44000000 		.4byte	.LFE72-.LFB72
 3811 0060 00000000 		.4byte	.LFB73
 3812 0064 24000000 		.4byte	.LFE73-.LFB73
 3813 0068 00000000 		.4byte	.LFB74
 3814 006c 44000000 		.4byte	.LFE74-.LFB74
 3815 0070 00000000 		.4byte	.LFB75
 3816 0074 4A000000 		.4byte	.LFE75-.LFB75
 3817 0078 00000000 		.4byte	.LFB76
 3818 007c 7E000000 		.4byte	.LFE76-.LFB76
 3819 0080 00000000 		.4byte	.LFB78
 3820 0084 40000000 		.4byte	.LFE78-.LFB78
 3821 0088 00000000 		.4byte	.LFB79
 3822 008c F0000000 		.4byte	.LFE79-.LFB79
 3823 0090 00000000 		.4byte	.LFB80
 3824 0094 50000000 		.4byte	.LFE80-.LFB80
 3825 0098 00000000 		.4byte	.LFB81
 3826 009c 2C000000 		.4byte	.LFE81-.LFB81
 3827 00a0 00000000 		.4byte	.LFB82
 3828 00a4 48000000 		.4byte	.LFE82-.LFB82
 3829 00a8 00000000 		.4byte	.LFB83
 3830 00ac 3C010000 		.4byte	.LFE83-.LFB83
 3831 00b0 00000000 		.4byte	.LFB84
 3832 00b4 20000000 		.4byte	.LFE84-.LFB84
 3833 00b8 00000000 		.4byte	.LFB85
 3834 00bc 56000000 		.4byte	.LFE85-.LFB85
 3835 00c0 00000000 		.4byte	.LFB86
 3836 00c4 50000000 		.4byte	.LFE86-.LFB86
 3837 00c8 00000000 		.4byte	.LFB87
 3838 00cc 4C000000 		.4byte	.LFE87-.LFB87
 3839 00d0 00000000 		.4byte	0
 3840 00d4 00000000 		.4byte	0
 3841              		.section	.debug_ranges,"",%progbits
 3842              	.Ldebug_ranges0:
 3843 0000 00000000 		.4byte	.LFB63
 3844 0004 4E000000 		.4byte	.LFE63
 3845 0008 00000000 		.4byte	.LFB64
 3846 000c 20000000 		.4byte	.LFE64
 3847 0010 00000000 		.4byte	.LFB65
 3848 0014 2C000000 		.4byte	.LFE65
 3849 0018 00000000 		.4byte	.LFB66
 3850 001c 44000000 		.4byte	.LFE66
 3851 0020 00000000 		.4byte	.LFB67
 3852 0024 36000000 		.4byte	.LFE67
 3853 0028 00000000 		.4byte	.LFB68
 3854 002c 60000000 		.4byte	.LFE68
 3855 0030 00000000 		.4byte	.LFB69
 3856 0034 4C000000 		.4byte	.LFE69
 3857 0038 00000000 		.4byte	.LFB70
ARM GAS  C:\Users\Runeg\AppData\Local\Temp\cci0HMiU.s 			page 81


 3858 003c 7A000000 		.4byte	.LFE70
 3859 0040 00000000 		.4byte	.LFB71
 3860 0044 24000000 		.4byte	.LFE71
 3861 0048 00000000 		.4byte	.LFB72
 3862 004c 44000000 		.4byte	.LFE72
 3863 0050 00000000 		.4byte	.LFB73
 3864 0054 24000000 		.4byte	.LFE73
 3865 0058 00000000 		.4byte	.LFB74
 3866 005c 44000000 		.4byte	.LFE74
 3867 0060 00000000 		.4byte	.LFB75
 3868 0064 4A000000 		.4byte	.LFE75
 3869 0068 00000000 		.4byte	.LFB76
 3870 006c 7E000000 		.4byte	.LFE76
 3871 0070 00000000 		.4byte	.LFB78
 3872 0074 40000000 		.4byte	.LFE78
 3873 0078 00000000 		.4byte	.LFB79
 3874 007c F0000000 		.4byte	.LFE79
 3875 0080 00000000 		.4byte	.LFB80
 3876 0084 50000000 		.4byte	.LFE80
 3877 0088 00000000 		.4byte	.LFB81
 3878 008c 2C000000 		.4byte	.LFE81
 3879 0090 00000000 		.4byte	.LFB82
 3880 0094 48000000 		.4byte	.LFE82
 3881 0098 00000000 		.4byte	.LFB83
 3882 009c 3C010000 		.4byte	.LFE83
 3883 00a0 00000000 		.4byte	.LFB84
 3884 00a4 20000000 		.4byte	.LFE84
 3885 00a8 00000000 		.4byte	.LFB85
 3886 00ac 56000000 		.4byte	.LFE85
 3887 00b0 00000000 		.4byte	.LFB86
 3888 00b4 50000000 		.4byte	.LFE86
 3889 00b8 00000000 		.4byte	.LFB87
 3890 00bc 4C000000 		.4byte	.LFE87
 3891 00c0 00000000 		.4byte	0
 3892 00c4 00000000 		.4byte	0
 3893              		.section	.debug_line,"",%progbits
 3894              	.Ldebug_line0:
 3895 0000 28050000 		.section	.debug_str,"MS",%progbits,1
 3895      02004C02 
 3895      00000201 
 3895      FB0E0D00 
 3895      01010101 
 3896              	.LASF78:
 3897 0000 646D635F 		.ascii	"dmc_packet_complete\000"
 3897      7061636B 
 3897      65745F63 
 3897      6F6D706C 
 3897      65746500 
 3898              	.LASF103:
 3899 0014 7365745F 		.ascii	"set_out_of_order_reason\000"
 3899      6F75745F 
 3899      6F665F6F 
 3899      72646572 
 3899      5F726561 
 3900              	.LASF70:
 3901 002c 77656967 		.ascii	"weight_number\000"
 3901      68745F6E 
ARM GAS  C:\Users\Runeg\AppData\Local\Temp\cci0HMiU.s 			page 82


 3901      756D6265 
 3901      7200
 3902              	.LASF99:
 3903 003a 50455249 		.ascii	"PERIODS_PR_CL\000"
 3903      4F44535F 
 3903      50525F43 
 3903      4C00
 3904              	.LASF81:
 3905 0048 66726F6D 		.ascii	"from\000"
 3905      00
 3906              	.LASF104:
 3907 004d 6F75745F 		.ascii	"out_of_order_packet\000"
 3907      6F665F6F 
 3907      72646572 
 3907      5F706163 
 3907      6B657400 
 3908              	.LASF91:
 3909 0061 646D635F 		.ascii	"dmc_packet_marshal_fluid_pour_requested\000"
 3909      7061636B 
 3909      65745F6D 
 3909      61727368 
 3909      616C5F66 
 3910              	.LASF47:
 3911 0089 616D6F75 		.ascii	"amount\000"
 3911      6E7400
 3912              	.LASF41:
 3913 0090 646D635F 		.ascii	"dmc_packet_container_volume_measured\000"
 3913      7061636B 
 3913      65745F63 
 3913      6F6E7461 
 3913      696E6572 
 3914              	.LASF92:
 3915 00b5 70756D70 		.ascii	"pump_timer\000"
 3915      5F74696D 
 3915      657200
 3916              	.LASF12:
 3917 00c0 756E7369 		.ascii	"unsigned int\000"
 3917      676E6564 
 3917      20696E74 
 3917      00
 3918              	.LASF90:
 3919 00cd 646D635F 		.ascii	"dmc_packet_unmarshal_fluid_pour_requested\000"
 3919      7061636B 
 3919      65745F75 
 3919      6E6D6172 
 3919      7368616C 
 3920              	.LASF32:
 3921 00f7 646D635F 		.ascii	"dmc_packet_type\000"
 3921      7061636B 
 3921      65745F74 
 3921      79706500 
 3922              	.LASF7:
 3923 0107 5F5F696E 		.ascii	"__int32_t\000"
 3923      7433325F 
 3923      7400
 3924              	.LASF49:
 3925 0111 50554D50 		.ascii	"PUMP_TIMER_1\000"
ARM GAS  C:\Users\Runeg\AppData\Local\Temp\cci0HMiU.s 			page 83


 3925      5F54494D 
 3925      45525F31 
 3925      00
 3926              	.LASF50:
 3927 011e 50554D50 		.ascii	"PUMP_TIMER_2\000"
 3927      5F54494D 
 3927      45525F32 
 3927      00
 3928              	.LASF51:
 3929 012b 50554D50 		.ascii	"PUMP_TIMER_3\000"
 3929      5F54494D 
 3929      45525F33 
 3929      00
 3930              	.LASF93:
 3931 0138 74656D70 		.ascii	"temp_result\000"
 3931      5F726573 
 3931      756C7400 
 3932              	.LASF127:
 3933 0144 474E5520 		.ascii	"GNU C11 5.4.1 20160609 (release) [ARM/embedded-5-br"
 3933      43313120 
 3933      352E342E 
 3933      31203230 
 3933      31363036 
 3934 0177 616E6368 		.ascii	"anch revision 237715] -mcpu=cortex-m3 -mthumb -g -O"
 3934      20726576 
 3934      6973696F 
 3934      6E203233 
 3934      37373135 
 3935 01aa 30202D66 		.ascii	"0 -ffunction-sections -ffat-lto-objects\000"
 3935      66756E63 
 3935      74696F6E 
 3935      2D736563 
 3935      74696F6E 
 3936              	.LASF128:
 3937 01d2 646D635F 		.ascii	"dmc_controller.c\000"
 3937      636F6E74 
 3937      726F6C6C 
 3937      65722E63 
 3937      00
 3938              	.LASF126:
 3939 01e3 70756D70 		.ascii	"pump_3_periods_pr_cl\000"
 3939      5F335F70 
 3939      6572696F 
 3939      64735F70 
 3939      725F636C 
 3940              	.LASF66:
 3941 01f8 57454947 		.ascii	"WEIGHT_1\000"
 3941      48545F31 
 3941      00
 3942              	.LASF67:
 3943 0201 57454947 		.ascii	"WEIGHT_2\000"
 3943      48545F32 
 3943      00
 3944              	.LASF68:
 3945 020a 57454947 		.ascii	"WEIGHT_3\000"
 3945      48545F33 
 3945      00
ARM GAS  C:\Users\Runeg\AppData\Local\Temp\cci0HMiU.s 			page 84


 3946              	.LASF125:
 3947 0213 70756D70 		.ascii	"pump_2_periods_pr_cl\000"
 3947      5F325F70 
 3947      6572696F 
 3947      64735F70 
 3947      725F636C 
 3948              	.LASF124:
 3949 0228 70756D70 		.ascii	"pump_1_periods_pr_cl\000"
 3949      5F315F70 
 3949      6572696F 
 3949      64735F70 
 3949      725F636C 
 3950              	.LASF86:
 3951 023d 646D635F 		.ascii	"dmc_packet_unmarshal_user_confirm\000"
 3951      7061636B 
 3951      65745F75 
 3951      6E6D6172 
 3951      7368616C 
 3952              	.LASF106:
 3953 025f 646F5F70 		.ascii	"do_periodic_weight_check\000"
 3953      6572696F 
 3953      6469635F 
 3953      77656967 
 3953      68745F63 
 3954              	.LASF45:
 3955 0278 646D635F 		.ascii	"dmc_packet_machine_ok\000"
 3955      7061636B 
 3955      65745F6D 
 3955      61636869 
 3955      6E655F6F 
 3956              	.LASF28:
 3957 028e 444D435F 		.ascii	"DMC_PACKET_MACHINE_OK\000"
 3957      5041434B 
 3957      45545F4D 
 3957      41434849 
 3957      4E455F4F 
 3958              	.LASF43:
 3959 02a4 766F6C75 		.ascii	"volume\000"
 3959      6D6500
 3960              	.LASF17:
 3961 02ab 666C6F61 		.ascii	"float\000"
 3961      7400
 3962              	.LASF112:
 3963 02b1 72657175 		.ascii	"requested_drink\000"
 3963      65737465 
 3963      645F6472 
 3963      696E6B00 
 3964              	.LASF74:
 3965 02c1 6F75745F 		.ascii	"out_of_order\000"
 3965      6F665F6F 
 3965      72646572 
 3965      00
 3966              	.LASF129:
 3967 02ce 433A5C6B 		.ascii	"C:\\kode til PRJ3\\semesterproject3\\source\\psoc\\"
 3967      6F646520 
 3967      74696C20 
 3967      50524A33 
ARM GAS  C:\Users\Runeg\AppData\Local\Temp\cci0HMiU.s 			page 85


 3967      5C73656D 
 3968 02fc 646D632D 		.ascii	"dmc-psoc\\dmc-psoc.cydsn\000"
 3968      70736F63 
 3968      5C646D63 
 3968      2D70736F 
 3968      632E6379 
 3969              	.LASF71:
 3970 0314 72657375 		.ascii	"result\000"
 3970      6C7400
 3971              	.LASF120:
 3972 031b 77656967 		.ascii	"weight2\000"
 3972      68743200 
 3973              	.LASF35:
 3974 0323 444D435F 		.ascii	"DMC_PACKET_OUT_OF_ORDER_REASON_FLUID_CONTAINER_1_RE"
 3974      5041434B 
 3974      45545F4F 
 3974      55545F4F 
 3974      465F4F52 
 3975 0356 4D4F5645 		.ascii	"MOVED\000"
 3975      4400
 3976              	.LASF11:
 3977 035c 6C6F6E67 		.ascii	"long long unsigned int\000"
 3977      206C6F6E 
 3977      6720756E 
 3977      7369676E 
 3977      65642069 
 3978              	.LASF117:
 3979 0373 63757272 		.ascii	"current_job\000"
 3979      656E745F 
 3979      6A6F6200 
 3980              	.LASF34:
 3981 037f 444D435F 		.ascii	"DMC_PACKET_OUT_OF_ORDER_REASON_UNKNOWN\000"
 3981      5041434B 
 3981      45545F4F 
 3981      55545F4F 
 3981      465F4F52 
 3982              	.LASF40:
 3983 03a6 72656173 		.ascii	"reason\000"
 3983      6F6E00
 3984              	.LASF5:
 3985 03ad 5F5F7569 		.ascii	"__uint16_t\000"
 3985      6E743136 
 3985      5F7400
 3986              	.LASF113:
 3987 03b8 74696D65 		.ascii	"timer_period\000"
 3987      725F7065 
 3987      72696F64 
 3987      00
 3988              	.LASF20:
 3989 03c5 73697A65 		.ascii	"size_t\000"
 3989      5F7400
 3990              	.LASF111:
 3991 03cc 68616E64 		.ascii	"handle_packet\000"
 3991      6C655F70 
 3991      61636B65 
 3991      7400
 3992              	.LASF82:
ARM GAS  C:\Users\Runeg\AppData\Local\Temp\cci0HMiU.s 			page 86


 3993 03da 6F666673 		.ascii	"offset\000"
 3993      657400
 3994              	.LASF54:
 3995 03e1 54494D45 		.ascii	"TIMER_ACTION_CHECK_WEIGHT\000"
 3995      525F4143 
 3995      54494F4E 
 3995      5F434845 
 3995      434B5F57 
 3996              	.LASF60:
 3997 03fb 4A4F425F 		.ascii	"JOB_TYPE_TIMER\000"
 3997      54595045 
 3997      5F54494D 
 3997      455200
 3998              	.LASF94:
 3999 040a 74656D70 		.ascii	"temp_max\000"
 3999      5F6D6178 
 3999      00
 4000              	.LASF56:
 4001 0413 6F726967 		.ascii	"origin\000"
 4001      696E00
 4002              	.LASF118:
 4003 041a 49544D5F 		.ascii	"ITM_RxBuffer\000"
 4003      52784275 
 4003      66666572 
 4003      00
 4004              	.LASF33:
 4005 0427 646D635F 		.ascii	"dmc_packet_out_of_order_reason\000"
 4005      7061636B 
 4005      65745F6F 
 4005      75745F6F 
 4005      665F6F72 
 4006              	.LASF53:
 4007 0446 54494D45 		.ascii	"TIMER_ACTION_STOP_PUMP\000"
 4007      525F4143 
 4007      54494F4E 
 4007      5F53544F 
 4007      505F5055 
 4008              	.LASF123:
 4009 045d 4D41585F 		.ascii	"MAX_VOLUME_IN_CONTAINER\000"
 4009      564F4C55 
 4009      4D455F49 
 4009      4E5F434F 
 4009      4E544149 
 4010              	.LASF87:
 4011 0475 646D635F 		.ascii	"dmc_packet_marshal_user_confirm\000"
 4011      7061636B 
 4011      65745F6D 
 4011      61727368 
 4011      616C5F75 
 4012              	.LASF57:
 4013 0495 6A6F625F 		.ascii	"job_type\000"
 4013      74797065 
 4013      00
 4014              	.LASF80:
 4015 049e 646D635F 		.ascii	"dmc_packet_unmarshal_out_of_order\000"
 4015      7061636B 
 4015      65745F75 
ARM GAS  C:\Users\Runeg\AppData\Local\Temp\cci0HMiU.s 			page 87


 4015      6E6D6172 
 4015      7368616C 
 4016              	.LASF19:
 4017 04c0 63686172 		.ascii	"char\000"
 4017      00
 4018              	.LASF122:
 4019 04c5 63757272 		.ascii	"current_weight\000"
 4019      656E745F 
 4019      77656967 
 4019      687400
 4020              	.LASF72:
 4021 04d4 74617261 		.ascii	"tara\000"
 4021      00
 4022              	.LASF108:
 4023 04d9 6D616368 		.ascii	"machine_ok\000"
 4023      696E655F 
 4023      6F6B00
 4024              	.LASF55:
 4025 04e4 646D635F 		.ascii	"dmc_timer_action\000"
 4025      74696D65 
 4025      725F6163 
 4025      74696F6E 
 4025      00
 4026              	.LASF30:
 4027 04f5 64617461 		.ascii	"data\000"
 4027      00
 4028              	.LASF42:
 4029 04fa 636F6E74 		.ascii	"container\000"
 4029      61696E65 
 4029      7200
 4030              	.LASF59:
 4031 0504 4A4F425F 		.ascii	"JOB_TYPE_PACKET\000"
 4031      54595045 
 4031      5F504143 
 4031      4B455400 
 4032              	.LASF13:
 4033 0514 75696E74 		.ascii	"uint8_t\000"
 4033      385F7400 
 4034              	.LASF26:
 4035 051c 444D435F 		.ascii	"DMC_PACKET_FLUID_POUR_REQUESTED\000"
 4035      5041434B 
 4035      45545F46 
 4035      4C554944 
 4035      5F504F55 
 4036              	.LASF88:
 4037 053c 646D635F 		.ascii	"dmc_packet_unmarshal_machine_ok\000"
 4037      7061636B 
 4037      65745F75 
 4037      6E6D6172 
 4037      7368616C 
 4038              	.LASF10:
 4039 055c 6C6F6E67 		.ascii	"long long int\000"
 4039      206C6F6E 
 4039      6720696E 
 4039      7400
 4040              	.LASF38:
 4041 056a 646D635F 		.ascii	"dmc_packet\000"
ARM GAS  C:\Users\Runeg\AppData\Local\Temp\cci0HMiU.s 			page 88


 4041      7061636B 
 4041      657400
 4042              	.LASF109:
 4043 0575 72616973 		.ascii	"raise_flag\000"
 4043      655F666C 
 4043      616700
 4044              	.LASF130:
 4045 0580 646D635F 		.ascii	"dmc_packet_free\000"
 4045      7061636B 
 4045      65745F66 
 4045      72656500 
 4046              	.LASF3:
 4047 0590 5F5F696E 		.ascii	"__int16_t\000"
 4047      7431365F 
 4047      7400
 4048              	.LASF36:
 4049 059a 444D435F 		.ascii	"DMC_PACKET_OUT_OF_ORDER_REASON_FLUID_CONTAINER_2_RE"
 4049      5041434B 
 4049      45545F4F 
 4049      55545F4F 
 4049      465F4F52 
 4050 05cd 4D4F5645 		.ascii	"MOVED\000"
 4050      4400
 4051              	.LASF83:
 4052 05d3 646D635F 		.ascii	"dmc_packet_marshal_out_of_order\000"
 4052      7061636B 
 4052      65745F6D 
 4052      61727368 
 4052      616C5F6F 
 4053              	.LASF105:
 4054 05f3 636F6E74 		.ascii	"container_amount_init\000"
 4054      61696E65 
 4054      725F616D 
 4054      6F756E74 
 4054      5F696E69 
 4055              	.LASF25:
 4056 0609 444D435F 		.ascii	"DMC_PACKET_USER_CONFIRM\000"
 4056      5041434B 
 4056      45545F55 
 4056      5345525F 
 4056      434F4E46 
 4057              	.LASF107:
 4058 0621 6F75745F 		.ascii	"out_of_order_message\000"
 4058      6F665F6F 
 4058      72646572 
 4058      5F6D6573 
 4058      73616765 
 4059              	.LASF79:
 4060 0636 646D635F 		.ascii	"dmc_packet_append_byte\000"
 4060      7061636B 
 4060      65745F61 
 4060      7070656E 
 4060      645F6279 
 4061              	.LASF114:
 4062 064d 68616E64 		.ascii	"handle_timer\000"
 4062      6C655F74 
 4062      696D6572 
ARM GAS  C:\Users\Runeg\AppData\Local\Temp\cci0HMiU.s 			page 89


 4062      00
 4063              	.LASF21:
 4064 065a 6C6F6E67 		.ascii	"long double\000"
 4064      20646F75 
 4064      626C6500 
 4065              	.LASF15:
 4066 0666 75696E74 		.ascii	"uint16_t\000"
 4066      31365F74 
 4066      00
 4067              	.LASF31:
 4068 066f 64617461 		.ascii	"data_len\000"
 4068      5F6C656E 
 4068      00
 4069              	.LASF23:
 4070 0678 444D435F 		.ascii	"DMC_PACKET_OUT_OF_ORDER\000"
 4070      5041434B 
 4070      45545F4F 
 4070      55545F4F 
 4070      465F4F52 
 4071              	.LASF101:
 4072 0690 6D656173 		.ascii	"measured_weight_value\000"
 4072      75726564 
 4072      5F776569 
 4072      6768745F 
 4072      76616C75 
 4073              	.LASF98:
 4074 06a6 77656967 		.ascii	"weight_to_check\000"
 4074      68745F74 
 4074      6F5F6368 
 4074      65636B00 
 4075              	.LASF97:
 4076 06b6 7072696E 		.ascii	"print\000"
 4076      7400
 4077              	.LASF4:
 4078 06bc 73686F72 		.ascii	"short int\000"
 4078      7420696E 
 4078      7400
 4079              	.LASF8:
 4080 06c6 6C6F6E67 		.ascii	"long int\000"
 4080      20696E74 
 4080      00
 4081              	.LASF61:
 4082 06cf 646D635F 		.ascii	"dmc_pump\000"
 4082      70756D70 
 4082      00
 4083              	.LASF14:
 4084 06d8 696E7431 		.ascii	"int16_t\000"
 4084      365F7400 
 4085              	.LASF102:
 4086 06e0 77656967 		.ascii	"weight_to_cl\000"
 4086      68745F74 
 4086      6F5F636C 
 4086      00
 4087              	.LASF48:
 4088 06ed 646D635F 		.ascii	"dmc_pump_timer\000"
 4088      70756D70 
 4088      5F74696D 
ARM GAS  C:\Users\Runeg\AppData\Local\Temp\cci0HMiU.s 			page 90


 4088      657200
 4089              	.LASF115:
 4090 06fc 61637469 		.ascii	"action\000"
 4090      6F6E00
 4091              	.LASF119:
 4092 0703 77656967 		.ascii	"weight1\000"
 4092      68743100 
 4093              	.LASF46:
 4094 070b 646D635F 		.ascii	"dmc_packet_fluid_pour_requested\000"
 4094      7061636B 
 4094      65745F66 
 4094      6C756964 
 4094      5F706F75 
 4095              	.LASF121:
 4096 072b 77656967 		.ascii	"weight3\000"
 4096      68743300 
 4097              	.LASF69:
 4098 0733 77656967 		.ascii	"weight\000"
 4098      687400
 4099              	.LASF2:
 4100 073a 5F5F7569 		.ascii	"__uint8_t\000"
 4100      6E74385F 
 4100      7400
 4101              	.LASF62:
 4102 0744 50554D50 		.ascii	"PUMP_1\000"
 4102      5F3100
 4103              	.LASF63:
 4104 074b 50554D50 		.ascii	"PUMP_2\000"
 4104      5F3200
 4105              	.LASF64:
 4106 0752 50554D50 		.ascii	"PUMP_3\000"
 4106      5F3300
 4107              	.LASF52:
 4108 0759 646D635F 		.ascii	"dmc_timer_action_type\000"
 4108      74696D65 
 4108      725F6163 
 4108      74696F6E 
 4108      5F747970 
 4109              	.LASF44:
 4110 076f 646D635F 		.ascii	"dmc_packet_user_confirm\000"
 4110      7061636B 
 4110      65745F75 
 4110      7365725F 
 4110      636F6E66 
 4111              	.LASF22:
 4112 0787 73697A65 		.ascii	"sizetype\000"
 4112      74797065 
 4112      00
 4113              	.LASF9:
 4114 0790 6C6F6E67 		.ascii	"long unsigned int\000"
 4114      20756E73 
 4114      69676E65 
 4114      6420696E 
 4114      7400
 4115              	.LASF16:
 4116 07a2 696E7433 		.ascii	"int32_t\000"
 4116      325F7400 
ARM GAS  C:\Users\Runeg\AppData\Local\Temp\cci0HMiU.s 			page 91


 4117              	.LASF76:
 4118 07aa 7061636B 		.ascii	"packet\000"
 4118      657400
 4119              	.LASF27:
 4120 07b1 444D435F 		.ascii	"DMC_PACKET_DEBUG\000"
 4120      5041434B 
 4120      45545F44 
 4120      45425547 
 4120      00
 4121              	.LASF37:
 4122 07c2 444D435F 		.ascii	"DMC_PACKET_OUT_OF_ORDER_REASON_FLUID_CONTAINER_3_RE"
 4122      5041434B 
 4122      45545F4F 
 4122      55545F4F 
 4122      465F4F52 
 4123 07f5 4D4F5645 		.ascii	"MOVED\000"
 4123      4400
 4124              	.LASF96:
 4125 07fb 70657263 		.ascii	"percent\000"
 4125      656E7400 
 4126              	.LASF24:
 4127 0803 444D435F 		.ascii	"DMC_PACKET_CONTAINER_VOLUME_MEASURED\000"
 4127      5041434B 
 4127      45545F43 
 4127      4F4E5441 
 4127      494E4552 
 4128              	.LASF29:
 4129 0828 74797065 		.ascii	"type\000"
 4129      00
 4130              	.LASF1:
 4131 082d 756E7369 		.ascii	"unsigned char\000"
 4131      676E6564 
 4131      20636861 
 4131      7200
 4132              	.LASF73:
 4133 083b 6164635F 		.ascii	"adc_divider\000"
 4133      64697669 
 4133      64657200 
 4134              	.LASF65:
 4135 0847 646D635F 		.ascii	"dmc_weight_number\000"
 4135      77656967 
 4135      68745F6E 
 4135      756D6265 
 4135      7200
 4136              	.LASF89:
 4137 0859 646D635F 		.ascii	"dmc_packet_marshal_machine_ok\000"
 4137      7061636B 
 4137      65745F6D 
 4137      61727368 
 4137      616C5F6D 
 4138              	.LASF95:
 4139 0877 74656D70 		.ascii	"temp_min\000"
 4139      5F6D696E 
 4139      00
 4140              	.LASF85:
 4141 0880 646D635F 		.ascii	"dmc_packet_marshal_container_volume_measured\000"
 4141      7061636B 
ARM GAS  C:\Users\Runeg\AppData\Local\Temp\cci0HMiU.s 			page 92


 4141      65745F6D 
 4141      61727368 
 4141      616C5F63 
 4142              	.LASF39:
 4143 08ad 646D635F 		.ascii	"dmc_packet_out_of_order\000"
 4143      7061636B 
 4143      65745F6F 
 4143      75745F6F 
 4143      665F6F72 
 4144              	.LASF0:
 4145 08c5 7369676E 		.ascii	"signed char\000"
 4145      65642063 
 4145      68617200 
 4146              	.LASF84:
 4147 08d1 646D635F 		.ascii	"dmc_packet_unmarshal_container_volume_measured\000"
 4147      7061636B 
 4147      65745F75 
 4147      6E6D6172 
 4147      7368616C 
 4148              	.LASF6:
 4149 0900 73686F72 		.ascii	"short unsigned int\000"
 4149      7420756E 
 4149      7369676E 
 4149      65642069 
 4149      6E7400
 4150              	.LASF116:
 4151 0913 6D61696E 		.ascii	"main\000"
 4151      00
 4152              	.LASF77:
 4153 0918 646D635F 		.ascii	"dmc_packet_init\000"
 4153      7061636B 
 4153      65745F69 
 4153      6E697400 
 4154              	.LASF100:
 4155 0928 69735F77 		.ascii	"is_weight_within_lower_threshold\000"
 4155      65696768 
 4155      745F7769 
 4155      7468696E 
 4155      5F6C6F77 
 4156              	.LASF18:
 4157 0949 646F7562 		.ascii	"double\000"
 4157      6C6500
 4158              	.LASF75:
 4159 0950 64617461 		.ascii	"data_bytes\000"
 4159      5F627974 
 4159      657300
 4160              	.LASF58:
 4161 095b 4A4F425F 		.ascii	"JOB_TYPE_UNDEFINED\000"
 4161      54595045 
 4161      5F554E44 
 4161      4546494E 
 4161      454400
 4162              	.LASF110:
 4163 096e 7061636B 		.ascii	"packet_to_check\000"
 4163      65745F74 
 4163      6F5F6368 
 4163      65636B00 
ARM GAS  C:\Users\Runeg\AppData\Local\Temp\cci0HMiU.s 			page 93


 4164              		.ident	"GCC: (GNU Tools for ARM Embedded Processors) 5.4.1 20160609 (release) [ARM/embedded-5-bran
