ARM GAS  C:\Users\Runeg\AppData\Local\Temp\cci0HMiU.s 			page 1


   1              		.syntax unified
   2              		.cpu cortex-m3
   3              		.fpu softvfp
   4              		.eabi_attribute 20, 1
   5              		.eabi_attribute 21, 1
   6              		.eabi_attribute 23, 3
   7              		.eabi_attribute 24, 1
   8              		.eabi_attribute 25, 1
   9              		.eabi_attribute 26, 1
  10              		.eabi_attribute 30, 6
  11              		.eabi_attribute 34, 1
  12              		.eabi_attribute 18, 4
  13              		.thumb
  14              		.syntax unified
  15              		.file	"dmc_controller.c"
  16              		.text
  17              	.Ltext0:
  18              		.cfi_sections	.debug_frame
  19              		.section	.text.dmc_packet_init,"ax",%progbits
  20              		.align	2
  21              		.thumb
  22              		.thumb_func
  23              		.type	dmc_packet_init, %function
  24              	dmc_packet_init:
  25              	.LFB63:
  26              		.file 1 "..\\..\\..\\common\\hw\\include\\base_packet.h"
   1:..\..\..\common\hw\include/base_packet.h **** #ifndef DMC_BASE_PACKET_H
   2:..\..\..\common\hw\include/base_packet.h **** #define DMC_BASE_PACKET_H
   3:..\..\..\common\hw\include/base_packet.h **** 
   4:..\..\..\common\hw\include/base_packet.h **** #ifdef MODULE // Include kernel space memory allocation with kmalloc
   5:..\..\..\common\hw\include/base_packet.h **** #include <linux/slab.h>
   6:..\..\..\common\hw\include/base_packet.h **** #else
   7:..\..\..\common\hw\include/base_packet.h **** #include <stdlib.h>
   8:..\..\..\common\hw\include/base_packet.h **** #endif
   9:..\..\..\common\hw\include/base_packet.h **** 
  10:..\..\..\common\hw\include/base_packet.h **** /**
  11:..\..\..\common\hw\include/base_packet.h ****  * @brief Type of packet. (MAYBE: MSB is required to be 1 as this signals a
  12:..\..\..\common\hw\include/base_packet.h ****  * header byte)
  13:..\..\..\common\hw\include/base_packet.h ****  */
  14:..\..\..\common\hw\include/base_packet.h **** enum dmc_packet_type
  15:..\..\..\common\hw\include/base_packet.h **** {
  16:..\..\..\common\hw\include/base_packet.h ****   DMC_PACKET_OUT_OF_ORDER              = 0b10000001,
  17:..\..\..\common\hw\include/base_packet.h ****   DMC_PACKET_CONTAINER_VOLUME_MEASURED = 0b10010010,
  18:..\..\..\common\hw\include/base_packet.h ****   DMC_PACKET_USER_CONFIRM              = 0b10100000,
  19:..\..\..\common\hw\include/base_packet.h ****   DMC_PACKET_FLUID_POUR_REQUESTED      = 0b10110010,
  20:..\..\..\common\hw\include/base_packet.h ****   DMC_PACKET_DEBUG                     = 0b11000010,
  21:..\..\..\common\hw\include/base_packet.h ****   DMC_PACKET_MACHINE_OK                = 0b11010000,
  22:..\..\..\common\hw\include/base_packet.h **** };
  23:..\..\..\common\hw\include/base_packet.h **** 
  24:..\..\..\common\hw\include/base_packet.h **** struct dmc_packet
  25:..\..\..\common\hw\include/base_packet.h **** {
  26:..\..\..\common\hw\include/base_packet.h ****   /**
  27:..\..\..\common\hw\include/base_packet.h ****    * @brief Type of packet. This is the first byte received.
  28:..\..\..\common\hw\include/base_packet.h ****    */
  29:..\..\..\common\hw\include/base_packet.h ****   enum dmc_packet_type type;
  30:..\..\..\common\hw\include/base_packet.h **** 
  31:..\..\..\common\hw\include/base_packet.h ****   /**
ARM GAS  C:\Users\Runeg\AppData\Local\Temp\cci0HMiU.s 			page 2


  32:..\..\..\common\hw\include/base_packet.h ****    * @brief Data payload of packet
  33:..\..\..\common\hw\include/base_packet.h ****    */
  34:..\..\..\common\hw\include/base_packet.h ****   char *data;
  35:..\..\..\common\hw\include/base_packet.h **** 
  36:..\..\..\common\hw\include/base_packet.h ****   /**
  37:..\..\..\common\hw\include/base_packet.h ****    * @brief Length of payload in bytes.
  38:..\..\..\common\hw\include/base_packet.h ****    */
  39:..\..\..\common\hw\include/base_packet.h ****   size_t data_len;
  40:..\..\..\common\hw\include/base_packet.h **** };
  41:..\..\..\common\hw\include/base_packet.h **** 
  42:..\..\..\common\hw\include/base_packet.h **** /**
  43:..\..\..\common\hw\include/base_packet.h ****  * @brief Allocates and initializes a packet with a type. Primarily
  44:..\..\..\common\hw\include/base_packet.h ****  * used when starting to read data from a given source.
  45:..\..\..\common\hw\include/base_packet.h ****  */
  46:..\..\..\common\hw\include/base_packet.h **** static struct dmc_packet *dmc_packet_init(enum dmc_packet_type type)
  47:..\..\..\common\hw\include/base_packet.h **** {
  27              		.loc 1 47 0
  28              		.cfi_startproc
  29              		@ args = 0, pretend = 0, frame = 16
  30              		@ frame_needed = 1, uses_anonymous_args = 0
  31 0000 80B5     		push	{r7, lr}
  32              		.cfi_def_cfa_offset 8
  33              		.cfi_offset 7, -8
  34              		.cfi_offset 14, -4
  35 0002 84B0     		sub	sp, sp, #16
  36              		.cfi_def_cfa_offset 24
  37 0004 00AF     		add	r7, sp, #0
  38              		.cfi_def_cfa_register 7
  39 0006 0346     		mov	r3, r0
  40 0008 FB71     		strb	r3, [r7, #7]
  48:..\..\..\common\hw\include/base_packet.h ****   unsigned char data_bytes = type & 0b00001111;
  41              		.loc 1 48 0
  42 000a FB79     		ldrb	r3, [r7, #7]
  43 000c 03F00F03 		and	r3, r3, #15
  44 0010 FB73     		strb	r3, [r7, #15]
  49:..\..\..\common\hw\include/base_packet.h **** 
  50:..\..\..\common\hw\include/base_packet.h ****   // Allocate and initialize packet with default values
  51:..\..\..\common\hw\include/base_packet.h ****   struct dmc_packet *packet;
  52:..\..\..\common\hw\include/base_packet.h **** #ifdef MODULE // Differeniate between kernel and use space allocations
  53:..\..\..\common\hw\include/base_packet.h ****   packet = (struct dmc_packet *)kmalloc(sizeof(struct dmc_packet), GFP_KERNEL);
  54:..\..\..\common\hw\include/base_packet.h **** #else
  55:..\..\..\common\hw\include/base_packet.h ****   packet = (struct dmc_packet *)malloc(sizeof(struct dmc_packet));
  45              		.loc 1 55 0
  46 0012 0C20     		movs	r0, #12
  47 0014 FFF7FEFF 		bl	malloc
  48 0018 0346     		mov	r3, r0
  49 001a BB60     		str	r3, [r7, #8]
  56:..\..\..\common\hw\include/base_packet.h **** #endif
  57:..\..\..\common\hw\include/base_packet.h ****   packet->type     = type;
  50              		.loc 1 57 0
  51 001c BB68     		ldr	r3, [r7, #8]
  52 001e FA79     		ldrb	r2, [r7, #7]
  53 0020 1A70     		strb	r2, [r3]
  58:..\..\..\common\hw\include/base_packet.h ****   packet->data_len = 0;
  54              		.loc 1 58 0
  55 0022 BB68     		ldr	r3, [r7, #8]
  56 0024 0022     		movs	r2, #0
ARM GAS  C:\Users\Runeg\AppData\Local\Temp\cci0HMiU.s 			page 3


  57 0026 9A60     		str	r2, [r3, #8]
  59:..\..\..\common\hw\include/base_packet.h ****   packet->data     = NULL;
  58              		.loc 1 59 0
  59 0028 BB68     		ldr	r3, [r7, #8]
  60 002a 0022     		movs	r2, #0
  61 002c 5A60     		str	r2, [r3, #4]
  60:..\..\..\common\hw\include/base_packet.h **** 
  61:..\..\..\common\hw\include/base_packet.h ****   // Allocate packet data if needed
  62:..\..\..\common\hw\include/base_packet.h ****   if (data_bytes > 0)
  62              		.loc 1 62 0
  63 002e FB7B     		ldrb	r3, [r7, #15]	@ zero_extendqisi2
  64 0030 002B     		cmp	r3, #0
  65 0032 07D0     		beq	.L2
  63:..\..\..\common\hw\include/base_packet.h ****   {
  64:..\..\..\common\hw\include/base_packet.h **** #ifdef MODULE // Differeniate between kernel and use space allocations
  65:..\..\..\common\hw\include/base_packet.h ****     packet->data = (char *)kmalloc(sizeof(char) * data_bytes, GFP_KERNEL);
  66:..\..\..\common\hw\include/base_packet.h **** #else
  67:..\..\..\common\hw\include/base_packet.h ****     packet->data = (char *)malloc(sizeof(char) * data_bytes);
  66              		.loc 1 67 0
  67 0034 FB7B     		ldrb	r3, [r7, #15]	@ zero_extendqisi2
  68 0036 1846     		mov	r0, r3
  69 0038 FFF7FEFF 		bl	malloc
  70 003c 0346     		mov	r3, r0
  71 003e 1A46     		mov	r2, r3
  72 0040 BB68     		ldr	r3, [r7, #8]
  73 0042 5A60     		str	r2, [r3, #4]
  74              	.L2:
  68:..\..\..\common\hw\include/base_packet.h **** #endif
  69:..\..\..\common\hw\include/base_packet.h ****   }
  70:..\..\..\common\hw\include/base_packet.h **** 
  71:..\..\..\common\hw\include/base_packet.h ****   return packet;
  75              		.loc 1 71 0
  76 0044 BB68     		ldr	r3, [r7, #8]
  72:..\..\..\common\hw\include/base_packet.h **** }
  77              		.loc 1 72 0
  78 0046 1846     		mov	r0, r3
  79 0048 1037     		adds	r7, r7, #16
  80              		.cfi_def_cfa_offset 8
  81 004a BD46     		mov	sp, r7
  82              		.cfi_def_cfa_register 13
  83              		@ sp needed
  84 004c 80BD     		pop	{r7, pc}
  85              		.cfi_endproc
  86              	.LFE63:
  87              		.size	dmc_packet_init, .-dmc_packet_init
  88 004e 00BF     		.section	.text.dmc_packet_free,"ax",%progbits
  89              		.align	2
  90              		.thumb
  91              		.thumb_func
  92              		.type	dmc_packet_free, %function
  93              	dmc_packet_free:
  94              	.LFB64:
  73:..\..\..\common\hw\include/base_packet.h **** 
  74:..\..\..\common\hw\include/base_packet.h **** /**
  75:..\..\..\common\hw\include/base_packet.h ****  * @brief De-allocate packet and its data
  76:..\..\..\common\hw\include/base_packet.h ****  */
  77:..\..\..\common\hw\include/base_packet.h **** static void dmc_packet_free(struct dmc_packet *packet)
ARM GAS  C:\Users\Runeg\AppData\Local\Temp\cci0HMiU.s 			page 4


  78:..\..\..\common\hw\include/base_packet.h **** {
  95              		.loc 1 78 0
  96              		.cfi_startproc
  97              		@ args = 0, pretend = 0, frame = 8
  98              		@ frame_needed = 1, uses_anonymous_args = 0
  99 0000 80B5     		push	{r7, lr}
 100              		.cfi_def_cfa_offset 8
 101              		.cfi_offset 7, -8
 102              		.cfi_offset 14, -4
 103 0002 82B0     		sub	sp, sp, #8
 104              		.cfi_def_cfa_offset 16
 105 0004 00AF     		add	r7, sp, #0
 106              		.cfi_def_cfa_register 7
 107 0006 7860     		str	r0, [r7, #4]
  79:..\..\..\common\hw\include/base_packet.h **** #ifdef MODULE // Differeniate between kernel and use space de-allocations
  80:..\..\..\common\hw\include/base_packet.h ****   kfree((void *)packet->data);
  81:..\..\..\common\hw\include/base_packet.h ****   kfree((void *)packet);
  82:..\..\..\common\hw\include/base_packet.h **** #else
  83:..\..\..\common\hw\include/base_packet.h ****   free((void *)packet->data);
 108              		.loc 1 83 0
 109 0008 7B68     		ldr	r3, [r7, #4]
 110 000a 5B68     		ldr	r3, [r3, #4]
 111 000c 1846     		mov	r0, r3
 112 000e FFF7FEFF 		bl	free
  84:..\..\..\common\hw\include/base_packet.h ****   free((void *)packet);
 113              		.loc 1 84 0
 114 0012 7868     		ldr	r0, [r7, #4]
 115 0014 FFF7FEFF 		bl	free
  85:..\..\..\common\hw\include/base_packet.h **** #endif
  86:..\..\..\common\hw\include/base_packet.h **** }
 116              		.loc 1 86 0
 117 0018 00BF     		nop
 118 001a 0837     		adds	r7, r7, #8
 119              		.cfi_def_cfa_offset 8
 120 001c BD46     		mov	sp, r7
 121              		.cfi_def_cfa_register 13
 122              		@ sp needed
 123 001e 80BD     		pop	{r7, pc}
 124              		.cfi_endproc
 125              	.LFE64:
 126              		.size	dmc_packet_free, .-dmc_packet_free
 127              		.section	.text.dmc_packet_complete,"ax",%progbits
 128              		.align	2
 129              		.thumb
 130              		.thumb_func
 131              		.type	dmc_packet_complete, %function
 132              	dmc_packet_complete:
 133              	.LFB65:
  87:..\..\..\common\hw\include/base_packet.h **** 
  88:..\..\..\common\hw\include/base_packet.h **** /**
  89:..\..\..\common\hw\include/base_packet.h ****  * @brief Checks if a packet is fully complete, in the sense that all intended
  90:..\..\..\common\hw\include/base_packet.h ****  * data is received
  91:..\..\..\common\hw\include/base_packet.h ****  * @returns True, if packet is complete.
  92:..\..\..\common\hw\include/base_packet.h ****  */
  93:..\..\..\common\hw\include/base_packet.h **** static unsigned char dmc_packet_complete(struct dmc_packet *packet)
  94:..\..\..\common\hw\include/base_packet.h **** {
 134              		.loc 1 94 0
ARM GAS  C:\Users\Runeg\AppData\Local\Temp\cci0HMiU.s 			page 5


 135              		.cfi_startproc
 136              		@ args = 0, pretend = 0, frame = 16
 137              		@ frame_needed = 1, uses_anonymous_args = 0
 138              		@ link register save eliminated.
 139 0000 80B4     		push	{r7}
 140              		.cfi_def_cfa_offset 4
 141              		.cfi_offset 7, -4
 142 0002 85B0     		sub	sp, sp, #20
 143              		.cfi_def_cfa_offset 24
 144 0004 00AF     		add	r7, sp, #0
 145              		.cfi_def_cfa_register 7
 146 0006 7860     		str	r0, [r7, #4]
  95:..\..\..\common\hw\include/base_packet.h ****   unsigned char data_bytes = packet->type & 0b00001111;
 147              		.loc 1 95 0
 148 0008 7B68     		ldr	r3, [r7, #4]
 149 000a 1B78     		ldrb	r3, [r3]	@ zero_extendqisi2
 150 000c 03F00F03 		and	r3, r3, #15
 151 0010 FB73     		strb	r3, [r7, #15]
  96:..\..\..\common\hw\include/base_packet.h ****   return data_bytes == packet->data_len;
 152              		.loc 1 96 0
 153 0012 FA7B     		ldrb	r2, [r7, #15]	@ zero_extendqisi2
 154 0014 7B68     		ldr	r3, [r7, #4]
 155 0016 9B68     		ldr	r3, [r3, #8]
 156 0018 9A42     		cmp	r2, r3
 157 001a 0CBF     		ite	eq
 158 001c 0123     		moveq	r3, #1
 159 001e 0023     		movne	r3, #0
 160 0020 DBB2     		uxtb	r3, r3
  97:..\..\..\common\hw\include/base_packet.h **** }
 161              		.loc 1 97 0
 162 0022 1846     		mov	r0, r3
 163 0024 1437     		adds	r7, r7, #20
 164              		.cfi_def_cfa_offset 4
 165 0026 BD46     		mov	sp, r7
 166              		.cfi_def_cfa_register 13
 167              		@ sp needed
 168 0028 80BC     		pop	{r7}
 169              		.cfi_restore 7
 170              		.cfi_def_cfa_offset 0
 171 002a 7047     		bx	lr
 172              		.cfi_endproc
 173              	.LFE65:
 174              		.size	dmc_packet_complete, .-dmc_packet_complete
 175              		.section	.text.dmc_packet_append_byte,"ax",%progbits
 176              		.align	2
 177              		.thumb
 178              		.thumb_func
 179              		.type	dmc_packet_append_byte, %function
 180              	dmc_packet_append_byte:
 181              	.LFB66:
  98:..\..\..\common\hw\include/base_packet.h **** 
  99:..\..\..\common\hw\include/base_packet.h **** /**
 100:..\..\..\common\hw\include/base_packet.h ****  * @brief Appends data byte to packet payload.
 101:..\..\..\common\hw\include/base_packet.h ****  * @returns 0 if successful, 1 if payload is already at capacity.
 102:..\..\..\common\hw\include/base_packet.h ****  */
 103:..\..\..\common\hw\include/base_packet.h **** static unsigned char dmc_packet_append_byte(struct dmc_packet *packet,
 104:..\..\..\common\hw\include/base_packet.h ****                                             unsigned char      data)
ARM GAS  C:\Users\Runeg\AppData\Local\Temp\cci0HMiU.s 			page 6


 105:..\..\..\common\hw\include/base_packet.h **** {
 182              		.loc 1 105 0
 183              		.cfi_startproc
 184              		@ args = 0, pretend = 0, frame = 16
 185              		@ frame_needed = 1, uses_anonymous_args = 0
 186              		@ link register save eliminated.
 187 0000 80B4     		push	{r7}
 188              		.cfi_def_cfa_offset 4
 189              		.cfi_offset 7, -4
 190 0002 85B0     		sub	sp, sp, #20
 191              		.cfi_def_cfa_offset 24
 192 0004 00AF     		add	r7, sp, #0
 193              		.cfi_def_cfa_register 7
 194 0006 7860     		str	r0, [r7, #4]
 195 0008 0B46     		mov	r3, r1
 196 000a FB70     		strb	r3, [r7, #3]
 106:..\..\..\common\hw\include/base_packet.h ****   unsigned char data_bytes = packet->type & 0b00001111;
 197              		.loc 1 106 0
 198 000c 7B68     		ldr	r3, [r7, #4]
 199 000e 1B78     		ldrb	r3, [r3]	@ zero_extendqisi2
 200 0010 03F00F03 		and	r3, r3, #15
 201 0014 FB73     		strb	r3, [r7, #15]
 107:..\..\..\common\hw\include/base_packet.h ****   if (data_bytes == packet->data_len)
 202              		.loc 1 107 0
 203 0016 FA7B     		ldrb	r2, [r7, #15]	@ zero_extendqisi2
 204 0018 7B68     		ldr	r3, [r7, #4]
 205 001a 9B68     		ldr	r3, [r3, #8]
 206 001c 9A42     		cmp	r2, r3
 207 001e 01D1     		bne	.L8
 108:..\..\..\common\hw\include/base_packet.h ****   {
 109:..\..\..\common\hw\include/base_packet.h ****     return 1;
 208              		.loc 1 109 0
 209 0020 0123     		movs	r3, #1
 210 0022 0AE0     		b	.L9
 211              	.L8:
 110:..\..\..\common\hw\include/base_packet.h ****   }
 111:..\..\..\common\hw\include/base_packet.h **** 
 112:..\..\..\common\hw\include/base_packet.h ****   packet->data[packet->data_len++] = data;
 212              		.loc 1 112 0
 213 0024 7B68     		ldr	r3, [r7, #4]
 214 0026 5A68     		ldr	r2, [r3, #4]
 215 0028 7B68     		ldr	r3, [r7, #4]
 216 002a 9B68     		ldr	r3, [r3, #8]
 217 002c 581C     		adds	r0, r3, #1
 218 002e 7968     		ldr	r1, [r7, #4]
 219 0030 8860     		str	r0, [r1, #8]
 220 0032 1344     		add	r3, r3, r2
 221 0034 FA78     		ldrb	r2, [r7, #3]
 222 0036 1A70     		strb	r2, [r3]
 113:..\..\..\common\hw\include/base_packet.h ****   return 0;
 223              		.loc 1 113 0
 224 0038 0023     		movs	r3, #0
 225              	.L9:
 114:..\..\..\common\hw\include/base_packet.h **** }
 226              		.loc 1 114 0
 227 003a 1846     		mov	r0, r3
 228 003c 1437     		adds	r7, r7, #20
ARM GAS  C:\Users\Runeg\AppData\Local\Temp\cci0HMiU.s 			page 7


 229              		.cfi_def_cfa_offset 4
 230 003e BD46     		mov	sp, r7
 231              		.cfi_def_cfa_register 13
 232              		@ sp needed
 233 0040 80BC     		pop	{r7}
 234              		.cfi_restore 7
 235              		.cfi_def_cfa_offset 0
 236 0042 7047     		bx	lr
 237              		.cfi_endproc
 238              	.LFE66:
 239              		.size	dmc_packet_append_byte, .-dmc_packet_append_byte
 240              		.section	.text.dmc_packet_unmarshal_out_of_order,"ax",%progbits
 241              		.align	2
 242              		.thumb
 243              		.thumb_func
 244              		.type	dmc_packet_unmarshal_out_of_order, %function
 245              	dmc_packet_unmarshal_out_of_order:
 246              	.LFB67:
 247              		.file 2 "..\\..\\..\\common\\hw\\include\\packet.h"
   1:..\..\..\common\hw\include/packet.h **** #ifndef DMC_PACKET_H
   2:..\..\..\common\hw\include/packet.h **** #define DMC_PACKET_H
   3:..\..\..\common\hw\include/packet.h **** 
   4:..\..\..\common\hw\include/packet.h **** #include "base_packet.h"
   5:..\..\..\common\hw\include/packet.h **** 
   6:..\..\..\common\hw\include/packet.h **** #ifdef MODULE
   7:..\..\..\common\hw\include/packet.h **** #include <linux/types.h>
   8:..\..\..\common\hw\include/packet.h **** #else
   9:..\..\..\common\hw\include/packet.h **** #include <stdint.h>
  10:..\..\..\common\hw\include/packet.h **** #endif
  11:..\..\..\common\hw\include/packet.h **** 
  12:..\..\..\common\hw\include/packet.h **** /**
  13:..\..\..\common\hw\include/packet.h ****  * @brief Reason codes for why the machine is out of order
  14:..\..\..\common\hw\include/packet.h ****  */
  15:..\..\..\common\hw\include/packet.h **** enum dmc_packet_out_of_order_reason
  16:..\..\..\common\hw\include/packet.h **** {
  17:..\..\..\common\hw\include/packet.h ****   /**
  18:..\..\..\common\hw\include/packet.h ****    * @brief An unknown error has occured
  19:..\..\..\common\hw\include/packet.h ****    */
  20:..\..\..\common\hw\include/packet.h ****   DMC_PACKET_OUT_OF_ORDER_REASON_UNKNOWN = 0,
  21:..\..\..\common\hw\include/packet.h **** 
  22:..\..\..\common\hw\include/packet.h ****   /**
  23:..\..\..\common\hw\include/packet.h ****    * @brief The machine detected that a fluid container 1
  24:..\..\..\common\hw\include/packet.h ****    * was removed from the machine
  25:..\..\..\common\hw\include/packet.h ****    */
  26:..\..\..\common\hw\include/packet.h ****   DMC_PACKET_OUT_OF_ORDER_REASON_FLUID_CONTAINER_1_REMOVED = 1,
  27:..\..\..\common\hw\include/packet.h **** 
  28:..\..\..\common\hw\include/packet.h ****   /**
  29:..\..\..\common\hw\include/packet.h ****    * @brief The machine detected that a fluid container 2
  30:..\..\..\common\hw\include/packet.h ****    * was removed from the machine
  31:..\..\..\common\hw\include/packet.h ****    */
  32:..\..\..\common\hw\include/packet.h ****   DMC_PACKET_OUT_OF_ORDER_REASON_FLUID_CONTAINER_2_REMOVED = 2,
  33:..\..\..\common\hw\include/packet.h **** 
  34:..\..\..\common\hw\include/packet.h ****   /**
  35:..\..\..\common\hw\include/packet.h ****    * @brief The machine detected that a fluid container 3
  36:..\..\..\common\hw\include/packet.h ****    * was removed from the machine
  37:..\..\..\common\hw\include/packet.h ****    */
  38:..\..\..\common\hw\include/packet.h ****   DMC_PACKET_OUT_OF_ORDER_REASON_FLUID_CONTAINER_3_REMOVED = 3,
ARM GAS  C:\Users\Runeg\AppData\Local\Temp\cci0HMiU.s 			page 8


  39:..\..\..\common\hw\include/packet.h **** };
  40:..\..\..\common\hw\include/packet.h **** 
  41:..\..\..\common\hw\include/packet.h **** /**
  42:..\..\..\common\hw\include/packet.h ****  * @brief Packet declaring machine is out of order with a reason code. So errors
  43:..\..\..\common\hw\include/packet.h ****  * can be viewed on the touch screen UI.
  44:..\..\..\common\hw\include/packet.h ****  *
  45:..\..\..\common\hw\include/packet.h ****  * Direction: PSoC -> RPi
  46:..\..\..\common\hw\include/packet.h ****  */
  47:..\..\..\common\hw\include/packet.h **** struct dmc_packet_out_of_order
  48:..\..\..\common\hw\include/packet.h **** {
  49:..\..\..\common\hw\include/packet.h ****   /**
  50:..\..\..\common\hw\include/packet.h ****    * @brief The reason code for the machine to be out of order. See enum
  51:..\..\..\common\hw\include/packet.h ****    * dmc_packet_out_of_order_reason for what the codes mean
  52:..\..\..\common\hw\include/packet.h ****    */
  53:..\..\..\common\hw\include/packet.h ****   enum dmc_packet_out_of_order_reason reason;
  54:..\..\..\common\hw\include/packet.h **** };
  55:..\..\..\common\hw\include/packet.h **** 
  56:..\..\..\common\hw\include/packet.h **** /**
  57:..\..\..\common\hw\include/packet.h ****  * @brief Unmarshal data into out of order packet from base packet
  58:..\..\..\common\hw\include/packet.h ****  */
  59:..\..\..\common\hw\include/packet.h **** static int
  60:..\..\..\common\hw\include/packet.h **** dmc_packet_unmarshal_out_of_order(struct dmc_packet_out_of_order *packet,
  61:..\..\..\common\hw\include/packet.h ****                                   struct dmc_packet              *from)
  62:..\..\..\common\hw\include/packet.h **** {
 248              		.loc 2 62 0
 249              		.cfi_startproc
 250              		@ args = 0, pretend = 0, frame = 16
 251              		@ frame_needed = 1, uses_anonymous_args = 0
 252              		@ link register save eliminated.
 253 0000 80B4     		push	{r7}
 254              		.cfi_def_cfa_offset 4
 255              		.cfi_offset 7, -4
 256 0002 85B0     		sub	sp, sp, #20
 257              		.cfi_def_cfa_offset 24
 258 0004 00AF     		add	r7, sp, #0
 259              		.cfi_def_cfa_register 7
 260 0006 7860     		str	r0, [r7, #4]
 261 0008 3960     		str	r1, [r7]
  63:..\..\..\common\hw\include/packet.h ****   if (from->type != DMC_PACKET_OUT_OF_ORDER)
 262              		.loc 2 63 0
 263 000a 3B68     		ldr	r3, [r7]
 264 000c 1B78     		ldrb	r3, [r3]	@ zero_extendqisi2
 265 000e 812B     		cmp	r3, #129
 266 0010 02D0     		beq	.L11
  64:..\..\..\common\hw\include/packet.h ****   {
  65:..\..\..\common\hw\include/packet.h ****     return -1;
 267              		.loc 2 65 0
 268 0012 4FF0FF33 		mov	r3, #-1
 269 0016 09E0     		b	.L12
 270              	.L11:
  66:..\..\..\common\hw\include/packet.h ****   }
  67:..\..\..\common\hw\include/packet.h **** 
  68:..\..\..\common\hw\include/packet.h ****   uint8_t offset = 0;
 271              		.loc 2 68 0
 272 0018 0023     		movs	r3, #0
 273 001a FB73     		strb	r3, [r7, #15]
  69:..\..\..\common\hw\include/packet.h ****   packet->reason = *(uint8_t *)(from->data + offset);
ARM GAS  C:\Users\Runeg\AppData\Local\Temp\cci0HMiU.s 			page 9


 274              		.loc 2 69 0
 275 001c 3B68     		ldr	r3, [r7]
 276 001e 5A68     		ldr	r2, [r3, #4]
 277 0020 FB7B     		ldrb	r3, [r7, #15]	@ zero_extendqisi2
 278 0022 1344     		add	r3, r3, r2
 279 0024 1A78     		ldrb	r2, [r3]	@ zero_extendqisi2
 280 0026 7B68     		ldr	r3, [r7, #4]
 281 0028 1A70     		strb	r2, [r3]
  70:..\..\..\common\hw\include/packet.h **** 
  71:..\..\..\common\hw\include/packet.h ****   return 0;
 282              		.loc 2 71 0
 283 002a 0023     		movs	r3, #0
 284              	.L12:
  72:..\..\..\common\hw\include/packet.h **** }
 285              		.loc 2 72 0
 286 002c 1846     		mov	r0, r3
 287 002e 1437     		adds	r7, r7, #20
 288              		.cfi_def_cfa_offset 4
 289 0030 BD46     		mov	sp, r7
 290              		.cfi_def_cfa_register 13
 291              		@ sp needed
 292 0032 80BC     		pop	{r7}
 293              		.cfi_restore 7
 294              		.cfi_def_cfa_offset 0
 295 0034 7047     		bx	lr
 296              		.cfi_endproc
 297              	.LFE67:
 298              		.size	dmc_packet_unmarshal_out_of_order, .-dmc_packet_unmarshal_out_of_order
 299 0036 00BF     		.section	.text.dmc_packet_marshal_out_of_order,"ax",%progbits
 300              		.align	2
 301              		.thumb
 302              		.thumb_func
 303              		.type	dmc_packet_marshal_out_of_order, %function
 304              	dmc_packet_marshal_out_of_order:
 305              	.LFB68:
  73:..\..\..\common\hw\include/packet.h **** 
  74:..\..\..\common\hw\include/packet.h **** /**
  75:..\..\..\common\hw\include/packet.h ****  * @brief Marshal out of order packet struct into base packet
  76:..\..\..\common\hw\include/packet.h ****  */
  77:..\..\..\common\hw\include/packet.h **** static int
  78:..\..\..\common\hw\include/packet.h **** dmc_packet_marshal_out_of_order(struct dmc_packet             **to,
  79:..\..\..\common\hw\include/packet.h ****                                 struct dmc_packet_out_of_order *packet)
  80:..\..\..\common\hw\include/packet.h **** {
 306              		.loc 2 80 0
 307              		.cfi_startproc
 308              		@ args = 0, pretend = 0, frame = 16
 309              		@ frame_needed = 1, uses_anonymous_args = 0
 310 0000 80B5     		push	{r7, lr}
 311              		.cfi_def_cfa_offset 8
 312              		.cfi_offset 7, -8
 313              		.cfi_offset 14, -4
 314 0002 84B0     		sub	sp, sp, #16
 315              		.cfi_def_cfa_offset 24
 316 0004 00AF     		add	r7, sp, #0
 317              		.cfi_def_cfa_register 7
 318 0006 7860     		str	r0, [r7, #4]
 319 0008 3960     		str	r1, [r7]
ARM GAS  C:\Users\Runeg\AppData\Local\Temp\cci0HMiU.s 			page 10


  81:..\..\..\common\hw\include/packet.h ****   if (to == NULL)
 320              		.loc 2 81 0
 321 000a 7B68     		ldr	r3, [r7, #4]
 322 000c 002B     		cmp	r3, #0
 323 000e 02D1     		bne	.L14
  82:..\..\..\common\hw\include/packet.h ****   {
  83:..\..\..\common\hw\include/packet.h ****     // Pointer to the pointer must not be null
  84:..\..\..\common\hw\include/packet.h ****     return -1;
 324              		.loc 2 84 0
 325 0010 4FF0FF33 		mov	r3, #-1
 326 0014 20E0     		b	.L15
 327              	.L14:
  85:..\..\..\common\hw\include/packet.h ****   }
  86:..\..\..\common\hw\include/packet.h ****   if (*to == NULL)
 328              		.loc 2 86 0
 329 0016 7B68     		ldr	r3, [r7, #4]
 330 0018 1B68     		ldr	r3, [r3]
 331 001a 002B     		cmp	r3, #0
 332 001c 05D1     		bne	.L16
  87:..\..\..\common\hw\include/packet.h ****   {
  88:..\..\..\common\hw\include/packet.h ****     *to = dmc_packet_init(DMC_PACKET_OUT_OF_ORDER);
 333              		.loc 2 88 0
 334 001e 8120     		movs	r0, #129
 335 0020 FFF7FEFF 		bl	dmc_packet_init
 336 0024 0246     		mov	r2, r0
 337 0026 7B68     		ldr	r3, [r7, #4]
 338 0028 1A60     		str	r2, [r3]
 339              	.L16:
  89:..\..\..\common\hw\include/packet.h ****   }
  90:..\..\..\common\hw\include/packet.h ****   if ((*to)->type != DMC_PACKET_OUT_OF_ORDER)
 340              		.loc 2 90 0
 341 002a 7B68     		ldr	r3, [r7, #4]
 342 002c 1B68     		ldr	r3, [r3]
 343 002e 1B78     		ldrb	r3, [r3]	@ zero_extendqisi2
 344 0030 812B     		cmp	r3, #129
 345 0032 02D0     		beq	.L17
  91:..\..\..\common\hw\include/packet.h ****   {
  92:..\..\..\common\hw\include/packet.h ****     return -2;
 346              		.loc 2 92 0
 347 0034 6FF00103 		mvn	r3, #1
 348 0038 0EE0     		b	.L15
 349              	.L17:
  93:..\..\..\common\hw\include/packet.h ****   }
  94:..\..\..\common\hw\include/packet.h **** 
  95:..\..\..\common\hw\include/packet.h ****   uint8_t offset                     = 0;
 350              		.loc 2 95 0
 351 003a 0023     		movs	r3, #0
 352 003c FB73     		strb	r3, [r7, #15]
  96:..\..\..\common\hw\include/packet.h ****   *(uint8_t *)((*to)->data + offset) = packet->reason;
 353              		.loc 2 96 0
 354 003e 7B68     		ldr	r3, [r7, #4]
 355 0040 1B68     		ldr	r3, [r3]
 356 0042 5A68     		ldr	r2, [r3, #4]
 357 0044 FB7B     		ldrb	r3, [r7, #15]	@ zero_extendqisi2
 358 0046 1344     		add	r3, r3, r2
 359 0048 3A68     		ldr	r2, [r7]
 360 004a 1278     		ldrb	r2, [r2]	@ zero_extendqisi2
ARM GAS  C:\Users\Runeg\AppData\Local\Temp\cci0HMiU.s 			page 11


 361 004c 1A70     		strb	r2, [r3]
  97:..\..\..\common\hw\include/packet.h **** 
  98:..\..\..\common\hw\include/packet.h ****   (*to)->data_len = 1;
 362              		.loc 2 98 0
 363 004e 7B68     		ldr	r3, [r7, #4]
 364 0050 1B68     		ldr	r3, [r3]
 365 0052 0122     		movs	r2, #1
 366 0054 9A60     		str	r2, [r3, #8]
  99:..\..\..\common\hw\include/packet.h ****   return 0;
 367              		.loc 2 99 0
 368 0056 0023     		movs	r3, #0
 369              	.L15:
 100:..\..\..\common\hw\include/packet.h **** }
 370              		.loc 2 100 0
 371 0058 1846     		mov	r0, r3
 372 005a 1037     		adds	r7, r7, #16
 373              		.cfi_def_cfa_offset 8
 374 005c BD46     		mov	sp, r7
 375              		.cfi_def_cfa_register 13
 376              		@ sp needed
 377 005e 80BD     		pop	{r7, pc}
 378              		.cfi_endproc
 379              	.LFE68:
 380              		.size	dmc_packet_marshal_out_of_order, .-dmc_packet_marshal_out_of_order
 381              		.section	.text.dmc_packet_unmarshal_container_volume_measured,"ax",%progbits
 382              		.align	2
 383              		.thumb
 384              		.thumb_func
 385              		.type	dmc_packet_unmarshal_container_volume_measured, %function
 386              	dmc_packet_unmarshal_container_volume_measured:
 387              	.LFB69:
 101:..\..\..\common\hw\include/packet.h **** 
 102:..\..\..\common\hw\include/packet.h **** /**
 103:..\..\..\common\hw\include/packet.h ****  * @brief Packet declaring that a new weight measurement has been made.
 104:..\..\..\common\hw\include/packet.h ****  *
 105:..\..\..\common\hw\include/packet.h ****  * Direction: PSoC -> RPi
 106:..\..\..\common\hw\include/packet.h ****  */
 107:..\..\..\common\hw\include/packet.h **** struct dmc_packet_container_volume_measured
 108:..\..\..\common\hw\include/packet.h **** {
 109:..\..\..\common\hw\include/packet.h ****   /**
 110:..\..\..\common\hw\include/packet.h ****    * @brief The container the measurement was from. Ranging from 0-2
 111:..\..\..\common\hw\include/packet.h ****    */
 112:..\..\..\common\hw\include/packet.h ****   uint8_t container;
 113:..\..\..\common\hw\include/packet.h **** 
 114:..\..\..\common\hw\include/packet.h ****   /**
 115:..\..\..\common\hw\include/packet.h ****    * @brief Volume measured in centiliters
 116:..\..\..\common\hw\include/packet.h ****    */
 117:..\..\..\common\hw\include/packet.h ****   int16_t volume;
 118:..\..\..\common\hw\include/packet.h **** };
 119:..\..\..\common\hw\include/packet.h **** 
 120:..\..\..\common\hw\include/packet.h **** /**
 121:..\..\..\common\hw\include/packet.h ****  * @brief Unmarshal data into container volume measured packet from base packet
 122:..\..\..\common\hw\include/packet.h ****  */
 123:..\..\..\common\hw\include/packet.h **** static int dmc_packet_unmarshal_container_volume_measured(
 124:..\..\..\common\hw\include/packet.h ****     struct dmc_packet_container_volume_measured *packet,
 125:..\..\..\common\hw\include/packet.h ****     struct dmc_packet                           *from)
 126:..\..\..\common\hw\include/packet.h **** {
ARM GAS  C:\Users\Runeg\AppData\Local\Temp\cci0HMiU.s 			page 12


 388              		.loc 2 126 0
 389              		.cfi_startproc
 390              		@ args = 0, pretend = 0, frame = 16
 391              		@ frame_needed = 1, uses_anonymous_args = 0
 392              		@ link register save eliminated.
 393 0000 80B4     		push	{r7}
 394              		.cfi_def_cfa_offset 4
 395              		.cfi_offset 7, -4
 396 0002 85B0     		sub	sp, sp, #20
 397              		.cfi_def_cfa_offset 24
 398 0004 00AF     		add	r7, sp, #0
 399              		.cfi_def_cfa_register 7
 400 0006 7860     		str	r0, [r7, #4]
 401 0008 3960     		str	r1, [r7]
 127:..\..\..\common\hw\include/packet.h ****   if (from->type != DMC_PACKET_CONTAINER_VOLUME_MEASURED)
 402              		.loc 2 127 0
 403 000a 3B68     		ldr	r3, [r7]
 404 000c 1B78     		ldrb	r3, [r3]	@ zero_extendqisi2
 405 000e 922B     		cmp	r3, #146
 406 0010 02D0     		beq	.L19
 128:..\..\..\common\hw\include/packet.h ****   {
 129:..\..\..\common\hw\include/packet.h ****     return -1;
 407              		.loc 2 129 0
 408 0012 4FF0FF33 		mov	r3, #-1
 409 0016 14E0     		b	.L20
 410              	.L19:
 130:..\..\..\common\hw\include/packet.h ****   }
 131:..\..\..\common\hw\include/packet.h **** 
 132:..\..\..\common\hw\include/packet.h ****   uint8_t offset    = 0;
 411              		.loc 2 132 0
 412 0018 0023     		movs	r3, #0
 413 001a FB73     		strb	r3, [r7, #15]
 133:..\..\..\common\hw\include/packet.h ****   packet->container = *(uint8_t *)(from->data + offset);
 414              		.loc 2 133 0
 415 001c 3B68     		ldr	r3, [r7]
 416 001e 5A68     		ldr	r2, [r3, #4]
 417 0020 FB7B     		ldrb	r3, [r7, #15]	@ zero_extendqisi2
 418 0022 1344     		add	r3, r3, r2
 419 0024 1A78     		ldrb	r2, [r3]	@ zero_extendqisi2
 420 0026 7B68     		ldr	r3, [r7, #4]
 421 0028 1A70     		strb	r2, [r3]
 134:..\..\..\common\hw\include/packet.h **** 
 135:..\..\..\common\hw\include/packet.h ****   offset += sizeof(packet->container); // Move offset of previous data
 422              		.loc 2 135 0
 423 002a FB7B     		ldrb	r3, [r7, #15]
 424 002c 0133     		adds	r3, r3, #1
 425 002e FB73     		strb	r3, [r7, #15]
 136:..\..\..\common\hw\include/packet.h ****   packet->volume = *(uint8_t *)(from->data + offset);
 426              		.loc 2 136 0
 427 0030 3B68     		ldr	r3, [r7]
 428 0032 5A68     		ldr	r2, [r3, #4]
 429 0034 FB7B     		ldrb	r3, [r7, #15]	@ zero_extendqisi2
 430 0036 1344     		add	r3, r3, r2
 431 0038 1B78     		ldrb	r3, [r3]	@ zero_extendqisi2
 432 003a 1AB2     		sxth	r2, r3
 433 003c 7B68     		ldr	r3, [r7, #4]
 434 003e 5A80     		strh	r2, [r3, #2]	@ movhi
ARM GAS  C:\Users\Runeg\AppData\Local\Temp\cci0HMiU.s 			page 13


 137:..\..\..\common\hw\include/packet.h **** 
 138:..\..\..\common\hw\include/packet.h ****   return 0;
 435              		.loc 2 138 0
 436 0040 0023     		movs	r3, #0
 437              	.L20:
 139:..\..\..\common\hw\include/packet.h **** }
 438              		.loc 2 139 0
 439 0042 1846     		mov	r0, r3
 440 0044 1437     		adds	r7, r7, #20
 441              		.cfi_def_cfa_offset 4
 442 0046 BD46     		mov	sp, r7
 443              		.cfi_def_cfa_register 13
 444              		@ sp needed
 445 0048 80BC     		pop	{r7}
 446              		.cfi_restore 7
 447              		.cfi_def_cfa_offset 0
 448 004a 7047     		bx	lr
 449              		.cfi_endproc
 450              	.LFE69:
 451              		.size	dmc_packet_unmarshal_container_volume_measured, .-dmc_packet_unmarshal_container_volume_meas
 452              		.section	.text.dmc_packet_marshal_container_volume_measured,"ax",%progbits
 453              		.align	2
 454              		.thumb
 455              		.thumb_func
 456              		.type	dmc_packet_marshal_container_volume_measured, %function
 457              	dmc_packet_marshal_container_volume_measured:
 458              	.LFB70:
 140:..\..\..\common\hw\include/packet.h **** 
 141:..\..\..\common\hw\include/packet.h **** /**
 142:..\..\..\common\hw\include/packet.h ****  * @brief Marshal container volume measured packet struct into base packet
 143:..\..\..\common\hw\include/packet.h ****  */
 144:..\..\..\common\hw\include/packet.h **** static int dmc_packet_marshal_container_volume_measured(
 145:..\..\..\common\hw\include/packet.h ****     struct dmc_packet **to, struct dmc_packet_container_volume_measured *packet)
 146:..\..\..\common\hw\include/packet.h **** {
 459              		.loc 2 146 0
 460              		.cfi_startproc
 461              		@ args = 0, pretend = 0, frame = 16
 462              		@ frame_needed = 1, uses_anonymous_args = 0
 463 0000 80B5     		push	{r7, lr}
 464              		.cfi_def_cfa_offset 8
 465              		.cfi_offset 7, -8
 466              		.cfi_offset 14, -4
 467 0002 84B0     		sub	sp, sp, #16
 468              		.cfi_def_cfa_offset 24
 469 0004 00AF     		add	r7, sp, #0
 470              		.cfi_def_cfa_register 7
 471 0006 7860     		str	r0, [r7, #4]
 472 0008 3960     		str	r1, [r7]
 147:..\..\..\common\hw\include/packet.h ****   if (to == NULL)
 473              		.loc 2 147 0
 474 000a 7B68     		ldr	r3, [r7, #4]
 475 000c 002B     		cmp	r3, #0
 476 000e 02D1     		bne	.L22
 148:..\..\..\common\hw\include/packet.h ****   {
 149:..\..\..\common\hw\include/packet.h ****     // Pointer to the pointer must not be null
 150:..\..\..\common\hw\include/packet.h ****     return -1;
 477              		.loc 2 150 0
ARM GAS  C:\Users\Runeg\AppData\Local\Temp\cci0HMiU.s 			page 14


 478 0010 4FF0FF33 		mov	r3, #-1
 479 0014 2DE0     		b	.L23
 480              	.L22:
 151:..\..\..\common\hw\include/packet.h ****   }
 152:..\..\..\common\hw\include/packet.h ****   if (*to == NULL)
 481              		.loc 2 152 0
 482 0016 7B68     		ldr	r3, [r7, #4]
 483 0018 1B68     		ldr	r3, [r3]
 484 001a 002B     		cmp	r3, #0
 485 001c 05D1     		bne	.L24
 153:..\..\..\common\hw\include/packet.h ****   {
 154:..\..\..\common\hw\include/packet.h ****     *to = dmc_packet_init(DMC_PACKET_CONTAINER_VOLUME_MEASURED);
 486              		.loc 2 154 0
 487 001e 9220     		movs	r0, #146
 488 0020 FFF7FEFF 		bl	dmc_packet_init
 489 0024 0246     		mov	r2, r0
 490 0026 7B68     		ldr	r3, [r7, #4]
 491 0028 1A60     		str	r2, [r3]
 492              	.L24:
 155:..\..\..\common\hw\include/packet.h ****   }
 156:..\..\..\common\hw\include/packet.h ****   if ((*to)->type != DMC_PACKET_CONTAINER_VOLUME_MEASURED)
 493              		.loc 2 156 0
 494 002a 7B68     		ldr	r3, [r7, #4]
 495 002c 1B68     		ldr	r3, [r3]
 496 002e 1B78     		ldrb	r3, [r3]	@ zero_extendqisi2
 497 0030 922B     		cmp	r3, #146
 498 0032 02D0     		beq	.L25
 157:..\..\..\common\hw\include/packet.h ****   {
 158:..\..\..\common\hw\include/packet.h ****     return -2;
 499              		.loc 2 158 0
 500 0034 6FF00103 		mvn	r3, #1
 501 0038 1BE0     		b	.L23
 502              	.L25:
 159:..\..\..\common\hw\include/packet.h ****   }
 160:..\..\..\common\hw\include/packet.h **** 
 161:..\..\..\common\hw\include/packet.h ****   uint8_t offset                     = 0;
 503              		.loc 2 161 0
 504 003a 0023     		movs	r3, #0
 505 003c FB73     		strb	r3, [r7, #15]
 162:..\..\..\common\hw\include/packet.h ****   *(uint8_t *)((*to)->data + offset) = packet->container;
 506              		.loc 2 162 0
 507 003e 7B68     		ldr	r3, [r7, #4]
 508 0040 1B68     		ldr	r3, [r3]
 509 0042 5A68     		ldr	r2, [r3, #4]
 510 0044 FB7B     		ldrb	r3, [r7, #15]	@ zero_extendqisi2
 511 0046 1344     		add	r3, r3, r2
 512 0048 3A68     		ldr	r2, [r7]
 513 004a 1278     		ldrb	r2, [r2]	@ zero_extendqisi2
 514 004c 1A70     		strb	r2, [r3]
 163:..\..\..\common\hw\include/packet.h **** 
 164:..\..\..\common\hw\include/packet.h ****   offset += sizeof(packet->container); // Move offset of previous data
 515              		.loc 2 164 0
 516 004e FB7B     		ldrb	r3, [r7, #15]
 517 0050 0133     		adds	r3, r3, #1
 518 0052 FB73     		strb	r3, [r7, #15]
 165:..\..\..\common\hw\include/packet.h ****   *(uint8_t *)((*to)->data + offset) = packet->volume;
 519              		.loc 2 165 0
ARM GAS  C:\Users\Runeg\AppData\Local\Temp\cci0HMiU.s 			page 15


 520 0054 7B68     		ldr	r3, [r7, #4]
 521 0056 1B68     		ldr	r3, [r3]
 522 0058 5A68     		ldr	r2, [r3, #4]
 523 005a FB7B     		ldrb	r3, [r7, #15]	@ zero_extendqisi2
 524 005c 1344     		add	r3, r3, r2
 525 005e 3A68     		ldr	r2, [r7]
 526 0060 B2F90220 		ldrsh	r2, [r2, #2]
 527 0064 D2B2     		uxtb	r2, r2
 528 0066 1A70     		strb	r2, [r3]
 166:..\..\..\common\hw\include/packet.h **** 
 167:..\..\..\common\hw\include/packet.h ****   (*to)->data_len = sizeof(packet->container) + sizeof(packet->volume);
 529              		.loc 2 167 0
 530 0068 7B68     		ldr	r3, [r7, #4]
 531 006a 1B68     		ldr	r3, [r3]
 532 006c 0322     		movs	r2, #3
 533 006e 9A60     		str	r2, [r3, #8]
 168:..\..\..\common\hw\include/packet.h ****   return 0;
 534              		.loc 2 168 0
 535 0070 0023     		movs	r3, #0
 536              	.L23:
 169:..\..\..\common\hw\include/packet.h **** }
 537              		.loc 2 169 0
 538 0072 1846     		mov	r0, r3
 539 0074 1037     		adds	r7, r7, #16
 540              		.cfi_def_cfa_offset 8
 541 0076 BD46     		mov	sp, r7
 542              		.cfi_def_cfa_register 13
 543              		@ sp needed
 544 0078 80BD     		pop	{r7, pc}
 545              		.cfi_endproc
 546              	.LFE70:
 547              		.size	dmc_packet_marshal_container_volume_measured, .-dmc_packet_marshal_container_volume_measured
 548 007a 00BF     		.section	.text.dmc_packet_unmarshal_user_confirm,"ax",%progbits
 549              		.align	2
 550              		.thumb
 551              		.thumb_func
 552              		.type	dmc_packet_unmarshal_user_confirm, %function
 553              	dmc_packet_unmarshal_user_confirm:
 554              	.LFB71:
 170:..\..\..\common\hw\include/packet.h **** 
 171:..\..\..\common\hw\include/packet.h **** /**
 172:..\..\..\common\hw\include/packet.h ****  * @brief Packet declaring that a user has confirmed something on the
 173:..\..\..\common\hw\include/packet.h ****  * touchscreen
 174:..\..\..\common\hw\include/packet.h ****  *
 175:..\..\..\common\hw\include/packet.h ****  * Direction: RPi -> PSoC
 176:..\..\..\common\hw\include/packet.h ****  */
 177:..\..\..\common\hw\include/packet.h **** struct dmc_packet_user_confirm
 178:..\..\..\common\hw\include/packet.h **** {
 179:..\..\..\common\hw\include/packet.h **** };
 180:..\..\..\common\hw\include/packet.h **** 
 181:..\..\..\common\hw\include/packet.h **** /**
 182:..\..\..\common\hw\include/packet.h ****  * @brief Unmarshal data into user confirm packet from base packet
 183:..\..\..\common\hw\include/packet.h ****  */
 184:..\..\..\common\hw\include/packet.h **** static int
 185:..\..\..\common\hw\include/packet.h **** dmc_packet_unmarshal_user_confirm(struct dmc_packet_user_confirm *packet,
 186:..\..\..\common\hw\include/packet.h ****                                   struct dmc_packet              *from)
 187:..\..\..\common\hw\include/packet.h **** {
ARM GAS  C:\Users\Runeg\AppData\Local\Temp\cci0HMiU.s 			page 16


 555              		.loc 2 187 0
 556              		.cfi_startproc
 557              		@ args = 0, pretend = 0, frame = 8
 558              		@ frame_needed = 1, uses_anonymous_args = 0
 559              		@ link register save eliminated.
 560 0000 80B4     		push	{r7}
 561              		.cfi_def_cfa_offset 4
 562              		.cfi_offset 7, -4
 563 0002 83B0     		sub	sp, sp, #12
 564              		.cfi_def_cfa_offset 16
 565 0004 00AF     		add	r7, sp, #0
 566              		.cfi_def_cfa_register 7
 567 0006 7860     		str	r0, [r7, #4]
 568 0008 3960     		str	r1, [r7]
 188:..\..\..\common\hw\include/packet.h ****   if (from->type != DMC_PACKET_USER_CONFIRM)
 569              		.loc 2 188 0
 570 000a 3B68     		ldr	r3, [r7]
 571 000c 1B78     		ldrb	r3, [r3]	@ zero_extendqisi2
 572 000e A02B     		cmp	r3, #160
 573 0010 02D0     		beq	.L27
 189:..\..\..\common\hw\include/packet.h ****   {
 190:..\..\..\common\hw\include/packet.h ****     return -1;
 574              		.loc 2 190 0
 575 0012 4FF0FF33 		mov	r3, #-1
 576 0016 00E0     		b	.L28
 577              	.L27:
 191:..\..\..\common\hw\include/packet.h ****   }
 192:..\..\..\common\hw\include/packet.h **** 
 193:..\..\..\common\hw\include/packet.h ****   return 0;
 578              		.loc 2 193 0
 579 0018 0023     		movs	r3, #0
 580              	.L28:
 194:..\..\..\common\hw\include/packet.h **** }
 581              		.loc 2 194 0
 582 001a 1846     		mov	r0, r3
 583 001c 0C37     		adds	r7, r7, #12
 584              		.cfi_def_cfa_offset 4
 585 001e BD46     		mov	sp, r7
 586              		.cfi_def_cfa_register 13
 587              		@ sp needed
 588 0020 80BC     		pop	{r7}
 589              		.cfi_restore 7
 590              		.cfi_def_cfa_offset 0
 591 0022 7047     		bx	lr
 592              		.cfi_endproc
 593              	.LFE71:
 594              		.size	dmc_packet_unmarshal_user_confirm, .-dmc_packet_unmarshal_user_confirm
 595              		.section	.text.dmc_packet_marshal_user_confirm,"ax",%progbits
 596              		.align	2
 597              		.thumb
 598              		.thumb_func
 599              		.type	dmc_packet_marshal_user_confirm, %function
 600              	dmc_packet_marshal_user_confirm:
 601              	.LFB72:
 195:..\..\..\common\hw\include/packet.h **** 
 196:..\..\..\common\hw\include/packet.h **** /**
 197:..\..\..\common\hw\include/packet.h ****  * @brief Marshal user confirm packet struct into base packet
ARM GAS  C:\Users\Runeg\AppData\Local\Temp\cci0HMiU.s 			page 17


 198:..\..\..\common\hw\include/packet.h ****  */
 199:..\..\..\common\hw\include/packet.h **** static int
 200:..\..\..\common\hw\include/packet.h **** dmc_packet_marshal_user_confirm(struct dmc_packet             **to,
 201:..\..\..\common\hw\include/packet.h ****                                 struct dmc_packet_user_confirm *packet)
 202:..\..\..\common\hw\include/packet.h **** {
 602              		.loc 2 202 0
 603              		.cfi_startproc
 604              		@ args = 0, pretend = 0, frame = 8
 605              		@ frame_needed = 1, uses_anonymous_args = 0
 606 0000 80B5     		push	{r7, lr}
 607              		.cfi_def_cfa_offset 8
 608              		.cfi_offset 7, -8
 609              		.cfi_offset 14, -4
 610 0002 82B0     		sub	sp, sp, #8
 611              		.cfi_def_cfa_offset 16
 612 0004 00AF     		add	r7, sp, #0
 613              		.cfi_def_cfa_register 7
 614 0006 7860     		str	r0, [r7, #4]
 615 0008 3960     		str	r1, [r7]
 203:..\..\..\common\hw\include/packet.h ****   if (to == NULL)
 616              		.loc 2 203 0
 617 000a 7B68     		ldr	r3, [r7, #4]
 618 000c 002B     		cmp	r3, #0
 619 000e 02D1     		bne	.L30
 204:..\..\..\common\hw\include/packet.h ****   {
 205:..\..\..\common\hw\include/packet.h ****     // Pointer to the pointer must not be null
 206:..\..\..\common\hw\include/packet.h ****     return -1;
 620              		.loc 2 206 0
 621 0010 4FF0FF33 		mov	r3, #-1
 622 0014 12E0     		b	.L31
 623              	.L30:
 207:..\..\..\common\hw\include/packet.h ****   }
 208:..\..\..\common\hw\include/packet.h ****   if (*to == NULL)
 624              		.loc 2 208 0
 625 0016 7B68     		ldr	r3, [r7, #4]
 626 0018 1B68     		ldr	r3, [r3]
 627 001a 002B     		cmp	r3, #0
 628 001c 05D1     		bne	.L32
 209:..\..\..\common\hw\include/packet.h ****   {
 210:..\..\..\common\hw\include/packet.h ****     *to = dmc_packet_init(DMC_PACKET_USER_CONFIRM);
 629              		.loc 2 210 0
 630 001e A020     		movs	r0, #160
 631 0020 FFF7FEFF 		bl	dmc_packet_init
 632 0024 0246     		mov	r2, r0
 633 0026 7B68     		ldr	r3, [r7, #4]
 634 0028 1A60     		str	r2, [r3]
 635              	.L32:
 211:..\..\..\common\hw\include/packet.h ****   }
 212:..\..\..\common\hw\include/packet.h ****   if ((*to)->type != DMC_PACKET_USER_CONFIRM)
 636              		.loc 2 212 0
 637 002a 7B68     		ldr	r3, [r7, #4]
 638 002c 1B68     		ldr	r3, [r3]
 639 002e 1B78     		ldrb	r3, [r3]	@ zero_extendqisi2
 640 0030 A02B     		cmp	r3, #160
 641 0032 02D0     		beq	.L33
 213:..\..\..\common\hw\include/packet.h ****   {
 214:..\..\..\common\hw\include/packet.h ****     return -2;
ARM GAS  C:\Users\Runeg\AppData\Local\Temp\cci0HMiU.s 			page 18


 642              		.loc 2 214 0
 643 0034 6FF00103 		mvn	r3, #1
 644 0038 00E0     		b	.L31
 645              	.L33:
 215:..\..\..\common\hw\include/packet.h ****   }
 216:..\..\..\common\hw\include/packet.h **** 
 217:..\..\..\common\hw\include/packet.h ****   return 0;
 646              		.loc 2 217 0
 647 003a 0023     		movs	r3, #0
 648              	.L31:
 218:..\..\..\common\hw\include/packet.h **** }
 649              		.loc 2 218 0
 650 003c 1846     		mov	r0, r3
 651 003e 0837     		adds	r7, r7, #8
 652              		.cfi_def_cfa_offset 8
 653 0040 BD46     		mov	sp, r7
 654              		.cfi_def_cfa_register 13
 655              		@ sp needed
 656 0042 80BD     		pop	{r7, pc}
 657              		.cfi_endproc
 658              	.LFE72:
 659              		.size	dmc_packet_marshal_user_confirm, .-dmc_packet_marshal_user_confirm
 660              		.section	.text.dmc_packet_unmarshal_machine_ok,"ax",%progbits
 661              		.align	2
 662              		.thumb
 663              		.thumb_func
 664              		.type	dmc_packet_unmarshal_machine_ok, %function
 665              	dmc_packet_unmarshal_machine_ok:
 666              	.LFB73:
 219:..\..\..\common\hw\include/packet.h **** 
 220:..\..\..\common\hw\include/packet.h **** /**
 221:..\..\..\common\hw\include/packet.h ****  * @brief Packet declaring that machine is ok after being out of order
 222:..\..\..\common\hw\include/packet.h ****  *
 223:..\..\..\common\hw\include/packet.h ****  * Direction: RPi -> PSoC
 224:..\..\..\common\hw\include/packet.h ****  */
 225:..\..\..\common\hw\include/packet.h **** struct dmc_packet_machine_ok
 226:..\..\..\common\hw\include/packet.h **** {
 227:..\..\..\common\hw\include/packet.h **** };
 228:..\..\..\common\hw\include/packet.h **** 
 229:..\..\..\common\hw\include/packet.h **** /**
 230:..\..\..\common\hw\include/packet.h ****  * @brief Unmarshal data into machine ok packet from base packet
 231:..\..\..\common\hw\include/packet.h ****  */
 232:..\..\..\common\hw\include/packet.h **** static int dmc_packet_unmarshal_machine_ok(struct dmc_packet_machine_ok *packet,
 233:..\..\..\common\hw\include/packet.h ****                                            struct dmc_packet            *from)
 234:..\..\..\common\hw\include/packet.h **** {
 667              		.loc 2 234 0
 668              		.cfi_startproc
 669              		@ args = 0, pretend = 0, frame = 8
 670              		@ frame_needed = 1, uses_anonymous_args = 0
 671              		@ link register save eliminated.
 672 0000 80B4     		push	{r7}
 673              		.cfi_def_cfa_offset 4
 674              		.cfi_offset 7, -4
 675 0002 83B0     		sub	sp, sp, #12
 676              		.cfi_def_cfa_offset 16
 677 0004 00AF     		add	r7, sp, #0
 678              		.cfi_def_cfa_register 7
ARM GAS  C:\Users\Runeg\AppData\Local\Temp\cci0HMiU.s 			page 19


 679 0006 7860     		str	r0, [r7, #4]
 680 0008 3960     		str	r1, [r7]
 235:..\..\..\common\hw\include/packet.h ****   if (from->type != DMC_PACKET_MACHINE_OK)
 681              		.loc 2 235 0
 682 000a 3B68     		ldr	r3, [r7]
 683 000c 1B78     		ldrb	r3, [r3]	@ zero_extendqisi2
 684 000e D02B     		cmp	r3, #208
 685 0010 02D0     		beq	.L35
 236:..\..\..\common\hw\include/packet.h ****   {
 237:..\..\..\common\hw\include/packet.h ****     return -1;
 686              		.loc 2 237 0
 687 0012 4FF0FF33 		mov	r3, #-1
 688 0016 00E0     		b	.L36
 689              	.L35:
 238:..\..\..\common\hw\include/packet.h ****   }
 239:..\..\..\common\hw\include/packet.h **** 
 240:..\..\..\common\hw\include/packet.h ****   return 0;
 690              		.loc 2 240 0
 691 0018 0023     		movs	r3, #0
 692              	.L36:
 241:..\..\..\common\hw\include/packet.h **** }
 693              		.loc 2 241 0
 694 001a 1846     		mov	r0, r3
 695 001c 0C37     		adds	r7, r7, #12
 696              		.cfi_def_cfa_offset 4
 697 001e BD46     		mov	sp, r7
 698              		.cfi_def_cfa_register 13
 699              		@ sp needed
 700 0020 80BC     		pop	{r7}
 701              		.cfi_restore 7
 702              		.cfi_def_cfa_offset 0
 703 0022 7047     		bx	lr
 704              		.cfi_endproc
 705              	.LFE73:
 706              		.size	dmc_packet_unmarshal_machine_ok, .-dmc_packet_unmarshal_machine_ok
 707              		.section	.text.dmc_packet_marshal_machine_ok,"ax",%progbits
 708              		.align	2
 709              		.thumb
 710              		.thumb_func
 711              		.type	dmc_packet_marshal_machine_ok, %function
 712              	dmc_packet_marshal_machine_ok:
 713              	.LFB74:
 242:..\..\..\common\hw\include/packet.h **** 
 243:..\..\..\common\hw\include/packet.h **** /**
 244:..\..\..\common\hw\include/packet.h ****  * @brief Marshal machine ok packet struct into base packet
 245:..\..\..\common\hw\include/packet.h ****  */
 246:..\..\..\common\hw\include/packet.h **** static int
 247:..\..\..\common\hw\include/packet.h **** dmc_packet_marshal_machine_ok(struct dmc_packet             **to,
 248:..\..\..\common\hw\include/packet.h ****                                 struct dmc_packet_machine_ok *packet)
 249:..\..\..\common\hw\include/packet.h **** {
 714              		.loc 2 249 0
 715              		.cfi_startproc
 716              		@ args = 0, pretend = 0, frame = 8
 717              		@ frame_needed = 1, uses_anonymous_args = 0
 718 0000 80B5     		push	{r7, lr}
 719              		.cfi_def_cfa_offset 8
 720              		.cfi_offset 7, -8
ARM GAS  C:\Users\Runeg\AppData\Local\Temp\cci0HMiU.s 			page 20


 721              		.cfi_offset 14, -4
 722 0002 82B0     		sub	sp, sp, #8
 723              		.cfi_def_cfa_offset 16
 724 0004 00AF     		add	r7, sp, #0
 725              		.cfi_def_cfa_register 7
 726 0006 7860     		str	r0, [r7, #4]
 727 0008 3960     		str	r1, [r7]
 250:..\..\..\common\hw\include/packet.h ****   if (to == NULL)
 728              		.loc 2 250 0
 729 000a 7B68     		ldr	r3, [r7, #4]
 730 000c 002B     		cmp	r3, #0
 731 000e 02D1     		bne	.L38
 251:..\..\..\common\hw\include/packet.h ****   {
 252:..\..\..\common\hw\include/packet.h ****     // Pointer to the pointer must not be null
 253:..\..\..\common\hw\include/packet.h ****     return -1;
 732              		.loc 2 253 0
 733 0010 4FF0FF33 		mov	r3, #-1
 734 0014 12E0     		b	.L39
 735              	.L38:
 254:..\..\..\common\hw\include/packet.h ****   }
 255:..\..\..\common\hw\include/packet.h ****   if (*to == NULL)
 736              		.loc 2 255 0
 737 0016 7B68     		ldr	r3, [r7, #4]
 738 0018 1B68     		ldr	r3, [r3]
 739 001a 002B     		cmp	r3, #0
 740 001c 05D1     		bne	.L40
 256:..\..\..\common\hw\include/packet.h ****   {
 257:..\..\..\common\hw\include/packet.h ****     *to = dmc_packet_init(DMC_PACKET_MACHINE_OK);
 741              		.loc 2 257 0
 742 001e D020     		movs	r0, #208
 743 0020 FFF7FEFF 		bl	dmc_packet_init
 744 0024 0246     		mov	r2, r0
 745 0026 7B68     		ldr	r3, [r7, #4]
 746 0028 1A60     		str	r2, [r3]
 747              	.L40:
 258:..\..\..\common\hw\include/packet.h ****   }
 259:..\..\..\common\hw\include/packet.h ****   if ((*to)->type != DMC_PACKET_MACHINE_OK)
 748              		.loc 2 259 0
 749 002a 7B68     		ldr	r3, [r7, #4]
 750 002c 1B68     		ldr	r3, [r3]
 751 002e 1B78     		ldrb	r3, [r3]	@ zero_extendqisi2
 752 0030 D02B     		cmp	r3, #208
 753 0032 02D0     		beq	.L41
 260:..\..\..\common\hw\include/packet.h ****   {
 261:..\..\..\common\hw\include/packet.h ****     return -2;
 754              		.loc 2 261 0
 755 0034 6FF00103 		mvn	r3, #1
 756 0038 00E0     		b	.L39
 757              	.L41:
 262:..\..\..\common\hw\include/packet.h ****   }
 263:..\..\..\common\hw\include/packet.h **** 
 264:..\..\..\common\hw\include/packet.h ****    return 0;
 758              		.loc 2 264 0
 759 003a 0023     		movs	r3, #0
 760              	.L39:
 265:..\..\..\common\hw\include/packet.h **** }
 761              		.loc 2 265 0
ARM GAS  C:\Users\Runeg\AppData\Local\Temp\cci0HMiU.s 			page 21


 762 003c 1846     		mov	r0, r3
 763 003e 0837     		adds	r7, r7, #8
 764              		.cfi_def_cfa_offset 8
 765 0040 BD46     		mov	sp, r7
 766              		.cfi_def_cfa_register 13
 767              		@ sp needed
 768 0042 80BD     		pop	{r7, pc}
 769              		.cfi_endproc
 770              	.LFE74:
 771              		.size	dmc_packet_marshal_machine_ok, .-dmc_packet_marshal_machine_ok
 772              		.section	.text.dmc_packet_unmarshal_fluid_pour_requested,"ax",%progbits
 773              		.align	2
 774              		.thumb
 775              		.thumb_func
 776              		.type	dmc_packet_unmarshal_fluid_pour_requested, %function
 777              	dmc_packet_unmarshal_fluid_pour_requested:
 778              	.LFB75:
 266:..\..\..\common\hw\include/packet.h **** 
 267:..\..\..\common\hw\include/packet.h **** /**
 268:..\..\..\common\hw\include/packet.h ****  * @brief Packet declaring that the machine should start to pour fluid.
 269:..\..\..\common\hw\include/packet.h ****  *
 270:..\..\..\common\hw\include/packet.h ****  * Direction: RPi -> PSoC
 271:..\..\..\common\hw\include/packet.h ****  */
 272:..\..\..\common\hw\include/packet.h **** struct dmc_packet_fluid_pour_requested
 273:..\..\..\common\hw\include/packet.h **** {
 274:..\..\..\common\hw\include/packet.h ****   /**
 275:..\..\..\common\hw\include/packet.h ****    * @brief The container to pour from. Ranging from 0-2
 276:..\..\..\common\hw\include/packet.h ****    */
 277:..\..\..\common\hw\include/packet.h ****   uint8_t container;
 278:..\..\..\common\hw\include/packet.h **** 
 279:..\..\..\common\hw\include/packet.h ****   /**
 280:..\..\..\common\hw\include/packet.h ****    * @brief Amount to pour in centiliters
 281:..\..\..\common\hw\include/packet.h ****    */
 282:..\..\..\common\hw\include/packet.h ****   uint8_t amount;
 283:..\..\..\common\hw\include/packet.h **** };
 284:..\..\..\common\hw\include/packet.h **** 
 285:..\..\..\common\hw\include/packet.h **** /**
 286:..\..\..\common\hw\include/packet.h ****  * @brief Unmarshal data into fluid pour requested packet from base packet
 287:..\..\..\common\hw\include/packet.h ****  */
 288:..\..\..\common\hw\include/packet.h **** static int dmc_packet_unmarshal_fluid_pour_requested(
 289:..\..\..\common\hw\include/packet.h ****     struct dmc_packet_fluid_pour_requested *packet, struct dmc_packet *from)
 290:..\..\..\common\hw\include/packet.h **** {
 779              		.loc 2 290 0
 780              		.cfi_startproc
 781              		@ args = 0, pretend = 0, frame = 16
 782              		@ frame_needed = 1, uses_anonymous_args = 0
 783              		@ link register save eliminated.
 784 0000 80B4     		push	{r7}
 785              		.cfi_def_cfa_offset 4
 786              		.cfi_offset 7, -4
 787 0002 85B0     		sub	sp, sp, #20
 788              		.cfi_def_cfa_offset 24
 789 0004 00AF     		add	r7, sp, #0
 790              		.cfi_def_cfa_register 7
 791 0006 7860     		str	r0, [r7, #4]
 792 0008 3960     		str	r1, [r7]
 291:..\..\..\common\hw\include/packet.h ****   if (from->type != DMC_PACKET_FLUID_POUR_REQUESTED)
ARM GAS  C:\Users\Runeg\AppData\Local\Temp\cci0HMiU.s 			page 22


 793              		.loc 2 291 0
 794 000a 3B68     		ldr	r3, [r7]
 795 000c 1B78     		ldrb	r3, [r3]	@ zero_extendqisi2
 796 000e B22B     		cmp	r3, #178
 797 0010 02D0     		beq	.L43
 292:..\..\..\common\hw\include/packet.h ****   {
 293:..\..\..\common\hw\include/packet.h ****     return -1;
 798              		.loc 2 293 0
 799 0012 4FF0FF33 		mov	r3, #-1
 800 0016 13E0     		b	.L44
 801              	.L43:
 294:..\..\..\common\hw\include/packet.h ****   }
 295:..\..\..\common\hw\include/packet.h **** 
 296:..\..\..\common\hw\include/packet.h ****   uint8_t offset    = 0;
 802              		.loc 2 296 0
 803 0018 0023     		movs	r3, #0
 804 001a FB73     		strb	r3, [r7, #15]
 297:..\..\..\common\hw\include/packet.h ****   packet->container = *(uint8_t *)(from->data + offset);
 805              		.loc 2 297 0
 806 001c 3B68     		ldr	r3, [r7]
 807 001e 5A68     		ldr	r2, [r3, #4]
 808 0020 FB7B     		ldrb	r3, [r7, #15]	@ zero_extendqisi2
 809 0022 1344     		add	r3, r3, r2
 810 0024 1A78     		ldrb	r2, [r3]	@ zero_extendqisi2
 811 0026 7B68     		ldr	r3, [r7, #4]
 812 0028 1A70     		strb	r2, [r3]
 298:..\..\..\common\hw\include/packet.h **** 
 299:..\..\..\common\hw\include/packet.h ****   offset += sizeof(packet->container); // Move offset of previous data
 813              		.loc 2 299 0
 814 002a FB7B     		ldrb	r3, [r7, #15]
 815 002c 0133     		adds	r3, r3, #1
 816 002e FB73     		strb	r3, [r7, #15]
 300:..\..\..\common\hw\include/packet.h ****   packet->amount = *(uint8_t *)(from->data + offset);
 817              		.loc 2 300 0
 818 0030 3B68     		ldr	r3, [r7]
 819 0032 5A68     		ldr	r2, [r3, #4]
 820 0034 FB7B     		ldrb	r3, [r7, #15]	@ zero_extendqisi2
 821 0036 1344     		add	r3, r3, r2
 822 0038 1A78     		ldrb	r2, [r3]	@ zero_extendqisi2
 823 003a 7B68     		ldr	r3, [r7, #4]
 824 003c 5A70     		strb	r2, [r3, #1]
 301:..\..\..\common\hw\include/packet.h **** 
 302:..\..\..\common\hw\include/packet.h ****   return 0;
 825              		.loc 2 302 0
 826 003e 0023     		movs	r3, #0
 827              	.L44:
 303:..\..\..\common\hw\include/packet.h **** }
 828              		.loc 2 303 0
 829 0040 1846     		mov	r0, r3
 830 0042 1437     		adds	r7, r7, #20
 831              		.cfi_def_cfa_offset 4
 832 0044 BD46     		mov	sp, r7
 833              		.cfi_def_cfa_register 13
 834              		@ sp needed
 835 0046 80BC     		pop	{r7}
 836              		.cfi_restore 7
 837              		.cfi_def_cfa_offset 0
ARM GAS  C:\Users\Runeg\AppData\Local\Temp\cci0HMiU.s 			page 23


 838 0048 7047     		bx	lr
 839              		.cfi_endproc
 840              	.LFE75:
 841              		.size	dmc_packet_unmarshal_fluid_pour_requested, .-dmc_packet_unmarshal_fluid_pour_requested
 842 004a 00BF     		.section	.text.dmc_packet_marshal_fluid_pour_requested,"ax",%progbits
 843              		.align	2
 844              		.thumb
 845              		.thumb_func
 846              		.type	dmc_packet_marshal_fluid_pour_requested, %function
 847              	dmc_packet_marshal_fluid_pour_requested:
 848              	.LFB76:
 304:..\..\..\common\hw\include/packet.h **** 
 305:..\..\..\common\hw\include/packet.h **** /**
 306:..\..\..\common\hw\include/packet.h ****  * @brief Marshal fluid pour requested packet struct into base packet
 307:..\..\..\common\hw\include/packet.h ****  */
 308:..\..\..\common\hw\include/packet.h **** static int dmc_packet_marshal_fluid_pour_requested(
 309:..\..\..\common\hw\include/packet.h ****     struct dmc_packet **to, struct dmc_packet_fluid_pour_requested *packet)
 310:..\..\..\common\hw\include/packet.h **** {
 849              		.loc 2 310 0
 850              		.cfi_startproc
 851              		@ args = 0, pretend = 0, frame = 16
 852              		@ frame_needed = 1, uses_anonymous_args = 0
 853 0000 80B5     		push	{r7, lr}
 854              		.cfi_def_cfa_offset 8
 855              		.cfi_offset 7, -8
 856              		.cfi_offset 14, -4
 857 0002 84B0     		sub	sp, sp, #16
 858              		.cfi_def_cfa_offset 24
 859 0004 00AF     		add	r7, sp, #0
 860              		.cfi_def_cfa_register 7
 861 0006 7860     		str	r0, [r7, #4]
 862 0008 3960     		str	r1, [r7]
 311:..\..\..\common\hw\include/packet.h ****   if (to == NULL)
 863              		.loc 2 311 0
 864 000a 7B68     		ldr	r3, [r7, #4]
 865 000c 002B     		cmp	r3, #0
 866 000e 02D1     		bne	.L46
 312:..\..\..\common\hw\include/packet.h ****   {
 313:..\..\..\common\hw\include/packet.h ****     // Pointer to the pointer must not be null
 314:..\..\..\common\hw\include/packet.h ****     return -1;
 867              		.loc 2 314 0
 868 0010 4FF0FF33 		mov	r3, #-1
 869 0014 2FE0     		b	.L47
 870              	.L46:
 315:..\..\..\common\hw\include/packet.h ****   }
 316:..\..\..\common\hw\include/packet.h ****   if (*to == NULL)
 871              		.loc 2 316 0
 872 0016 7B68     		ldr	r3, [r7, #4]
 873 0018 1B68     		ldr	r3, [r3]
 874 001a 002B     		cmp	r3, #0
 875 001c 05D1     		bne	.L48
 317:..\..\..\common\hw\include/packet.h ****   {
 318:..\..\..\common\hw\include/packet.h ****     // If the underlying dmc_packet* is not yet allocalted, allocate it
 319:..\..\..\common\hw\include/packet.h ****     *to = dmc_packet_init(DMC_PACKET_FLUID_POUR_REQUESTED);
 876              		.loc 2 319 0
 877 001e B220     		movs	r0, #178
 878 0020 FFF7FEFF 		bl	dmc_packet_init
ARM GAS  C:\Users\Runeg\AppData\Local\Temp\cci0HMiU.s 			page 24


 879 0024 0246     		mov	r2, r0
 880 0026 7B68     		ldr	r3, [r7, #4]
 881 0028 1A60     		str	r2, [r3]
 882              	.L48:
 320:..\..\..\common\hw\include/packet.h ****   }
 321:..\..\..\common\hw\include/packet.h ****   if (*to != NULL && (*to)->type != DMC_PACKET_FLUID_POUR_REQUESTED)
 883              		.loc 2 321 0
 884 002a 7B68     		ldr	r3, [r7, #4]
 885 002c 1B68     		ldr	r3, [r3]
 886 002e 002B     		cmp	r3, #0
 887 0030 07D0     		beq	.L49
 888              		.loc 2 321 0 is_stmt 0 discriminator 1
 889 0032 7B68     		ldr	r3, [r7, #4]
 890 0034 1B68     		ldr	r3, [r3]
 891 0036 1B78     		ldrb	r3, [r3]	@ zero_extendqisi2
 892 0038 B22B     		cmp	r3, #178
 893 003a 02D0     		beq	.L49
 322:..\..\..\common\hw\include/packet.h ****   {
 323:..\..\..\common\hw\include/packet.h ****     // If type of underlying dmc_packet* is not the same as the packet type,
 324:..\..\..\common\hw\include/packet.h ****     // then return error
 325:..\..\..\common\hw\include/packet.h ****     return -2;
 894              		.loc 2 325 0 is_stmt 1
 895 003c 6FF00103 		mvn	r3, #1
 896 0040 19E0     		b	.L47
 897              	.L49:
 326:..\..\..\common\hw\include/packet.h ****   }
 327:..\..\..\common\hw\include/packet.h **** 
 328:..\..\..\common\hw\include/packet.h ****   uint8_t offset                     = 0;
 898              		.loc 2 328 0
 899 0042 0023     		movs	r3, #0
 900 0044 FB73     		strb	r3, [r7, #15]
 329:..\..\..\common\hw\include/packet.h ****   *(uint8_t *)((*to)->data + offset) = packet->container;
 901              		.loc 2 329 0
 902 0046 7B68     		ldr	r3, [r7, #4]
 903 0048 1B68     		ldr	r3, [r3]
 904 004a 5A68     		ldr	r2, [r3, #4]
 905 004c FB7B     		ldrb	r3, [r7, #15]	@ zero_extendqisi2
 906 004e 1344     		add	r3, r3, r2
 907 0050 3A68     		ldr	r2, [r7]
 908 0052 1278     		ldrb	r2, [r2]	@ zero_extendqisi2
 909 0054 1A70     		strb	r2, [r3]
 330:..\..\..\common\hw\include/packet.h **** 
 331:..\..\..\common\hw\include/packet.h ****   offset += sizeof(packet->container); // Move offset of previous data
 910              		.loc 2 331 0
 911 0056 FB7B     		ldrb	r3, [r7, #15]
 912 0058 0133     		adds	r3, r3, #1
 913 005a FB73     		strb	r3, [r7, #15]
 332:..\..\..\common\hw\include/packet.h ****   *(uint8_t *)((*to)->data + offset) = packet->amount;
 914              		.loc 2 332 0
 915 005c 7B68     		ldr	r3, [r7, #4]
 916 005e 1B68     		ldr	r3, [r3]
 917 0060 5A68     		ldr	r2, [r3, #4]
 918 0062 FB7B     		ldrb	r3, [r7, #15]	@ zero_extendqisi2
 919 0064 1344     		add	r3, r3, r2
 920 0066 3A68     		ldr	r2, [r7]
 921 0068 5278     		ldrb	r2, [r2, #1]	@ zero_extendqisi2
 922 006a 1A70     		strb	r2, [r3]
ARM GAS  C:\Users\Runeg\AppData\Local\Temp\cci0HMiU.s 			page 25


 333:..\..\..\common\hw\include/packet.h **** 
 334:..\..\..\common\hw\include/packet.h ****   (*to)->data_len = sizeof(packet->container) + sizeof(packet->amount);
 923              		.loc 2 334 0
 924 006c 7B68     		ldr	r3, [r7, #4]
 925 006e 1B68     		ldr	r3, [r3]
 926 0070 0222     		movs	r2, #2
 927 0072 9A60     		str	r2, [r3, #8]
 335:..\..\..\common\hw\include/packet.h ****   return 0;
 928              		.loc 2 335 0
 929 0074 0023     		movs	r3, #0
 930              	.L47:
 336:..\..\..\common\hw\include/packet.h **** }
 931              		.loc 2 336 0
 932 0076 1846     		mov	r0, r3
 933 0078 1037     		adds	r7, r7, #16
 934              		.cfi_def_cfa_offset 8
 935 007a BD46     		mov	sp, r7
 936              		.cfi_def_cfa_register 13
 937              		@ sp needed
 938 007c 80BD     		pop	{r7, pc}
 939              		.cfi_endproc
 940              	.LFE76:
 941              		.size	dmc_packet_marshal_fluid_pour_requested, .-dmc_packet_marshal_fluid_pour_requested
 942              		.comm	weight1,14,4
 943              		.comm	weight2,14,4
 944              		.comm	weight3,14,4
 945              		.comm	current_weight,4,4
 946              		.global	MAX_VOLUME_IN_CONTAINER
 947 007e 00BF     		.data
 948              		.type	MAX_VOLUME_IN_CONTAINER, %object
 949              		.size	MAX_VOLUME_IN_CONTAINER, 1
 950              	MAX_VOLUME_IN_CONTAINER:
 951 0000 46       		.byte	70
 952              		.global	pump_1_periods_pr_cl
 953 0001 000000   		.align	2
 954              		.type	pump_1_periods_pr_cl, %object
 955              		.size	pump_1_periods_pr_cl, 4
 956              	pump_1_periods_pr_cl:
 957 0004 60090000 		.word	2400
 958              		.global	pump_2_periods_pr_cl
 959              		.align	2
 960              		.type	pump_2_periods_pr_cl, %object
 961              		.size	pump_2_periods_pr_cl, 4
 962              	pump_2_periods_pr_cl:
 963 0008 900B0000 		.word	2960
 964              		.global	pump_3_periods_pr_cl
 965              		.align	2
 966              		.type	pump_3_periods_pr_cl, %object
 967              		.size	pump_3_periods_pr_cl, 4
 968              	pump_3_periods_pr_cl:
 969 000c 900B0000 		.word	2960
 970              		.section	.text.PERIODS_PR_CL,"ax",%progbits
 971              		.align	2
 972              		.global	PERIODS_PR_CL
 973              		.thumb
 974              		.thumb_func
 975              		.type	PERIODS_PR_CL, %function
ARM GAS  C:\Users\Runeg\AppData\Local\Temp\cci0HMiU.s 			page 26


 976              	PERIODS_PR_CL:
 977              	.LFB78:
 978              		.file 3 "dmc_controller.c"
   1:dmc_controller.c **** /* ========================================
   2:dmc_controller.c ****  *
   3:dmc_controller.c ****  * Copyright YOUR COMPANY, THE YEAR
   4:dmc_controller.c ****  * All Rights Reserved
   5:dmc_controller.c ****  * UNPUBLISHED, LICENSED SOFTWARE.
   6:dmc_controller.c ****  *
   7:dmc_controller.c ****  * CONFIDENTIAL AND PROPRIETARY INFORMATION
   8:dmc_controller.c ****  * WHICH IS THE PROPERTY OF your company.
   9:dmc_controller.c ****  *
  10:dmc_controller.c ****  * ========================================
  11:dmc_controller.c **** */
  12:dmc_controller.c **** #include "project.h"
  13:dmc_controller.c **** #include "dmc_job_queue.h"
  14:dmc_controller.c **** #include "dmc_pump_control.h"
  15:dmc_controller.c **** #include <stdio.h>
  16:dmc_controller.c **** #include "dmc_weight.h"
  17:dmc_controller.c **** #include "dmc_uart_rpi.h"
  18:dmc_controller.c **** 
  19:dmc_controller.c **** 
  20:dmc_controller.c **** uint8_t MAX_VOLUME_IN_CONTAINER = 70;
  21:dmc_controller.c **** int pump_1_periods_pr_cl = 2400;
  22:dmc_controller.c **** int pump_2_periods_pr_cl = 2960;
  23:dmc_controller.c **** int pump_3_periods_pr_cl = 2960;
  24:dmc_controller.c **** 
  25:dmc_controller.c **** 
  26:dmc_controller.c **** int PERIODS_PR_CL(enum dmc_pump_timer pump_timer)
  27:dmc_controller.c **** {
 979              		.loc 3 27 0
 980              		.cfi_startproc
 981              		@ args = 0, pretend = 0, frame = 8
 982              		@ frame_needed = 1, uses_anonymous_args = 0
 983              		@ link register save eliminated.
 984 0000 80B4     		push	{r7}
 985              		.cfi_def_cfa_offset 4
 986              		.cfi_offset 7, -4
 987 0002 83B0     		sub	sp, sp, #12
 988              		.cfi_def_cfa_offset 16
 989 0004 00AF     		add	r7, sp, #0
 990              		.cfi_def_cfa_register 7
 991 0006 0346     		mov	r3, r0
 992 0008 FB71     		strb	r3, [r7, #7]
  28:dmc_controller.c ****     switch (pump_timer)
 993              		.loc 3 28 0
 994 000a FB79     		ldrb	r3, [r7, #7]	@ zero_extendqisi2
 995 000c 022B     		cmp	r3, #2
 996 000e 06D0     		beq	.L52
 997 0010 032B     		cmp	r3, #3
 998 0012 07D0     		beq	.L53
 999 0014 012B     		cmp	r3, #1
 1000 0016 08D1     		bne	.L56
  29:dmc_controller.c ****     {
  30:dmc_controller.c ****     case PUMP_TIMER_1: return pump_1_periods_pr_cl;
 1001              		.loc 3 30 0
 1002 0018 064B     		ldr	r3, .L57
ARM GAS  C:\Users\Runeg\AppData\Local\Temp\cci0HMiU.s 			page 27


 1003 001a 1B68     		ldr	r3, [r3]
 1004 001c 05E0     		b	.L50
 1005              	.L52:
  31:dmc_controller.c ****     case PUMP_TIMER_2: return pump_2_periods_pr_cl;
 1006              		.loc 3 31 0
 1007 001e 064B     		ldr	r3, .L57+4
 1008 0020 1B68     		ldr	r3, [r3]
 1009 0022 02E0     		b	.L50
 1010              	.L53:
  32:dmc_controller.c ****     case PUMP_TIMER_3: return pump_3_periods_pr_cl;
 1011              		.loc 3 32 0
 1012 0024 054B     		ldr	r3, .L57+8
 1013 0026 1B68     		ldr	r3, [r3]
 1014 0028 FFE7     		b	.L50
 1015              	.L56:
 1016              	.L50:
  33:dmc_controller.c ****     }
  34:dmc_controller.c **** 
  35:dmc_controller.c **** }
 1017              		.loc 3 35 0
 1018 002a 1846     		mov	r0, r3
 1019 002c 0C37     		adds	r7, r7, #12
 1020              		.cfi_def_cfa_offset 4
 1021 002e BD46     		mov	sp, r7
 1022              		.cfi_def_cfa_register 13
 1023              		@ sp needed
 1024 0030 80BC     		pop	{r7}
 1025              		.cfi_restore 7
 1026              		.cfi_def_cfa_offset 0
 1027 0032 7047     		bx	lr
 1028              	.L58:
 1029              		.align	2
 1030              	.L57:
 1031 0034 00000000 		.word	pump_1_periods_pr_cl
 1032 0038 00000000 		.word	pump_2_periods_pr_cl
 1033 003c 00000000 		.word	pump_3_periods_pr_cl
 1034              		.cfi_endproc
 1035              	.LFE78:
 1036              		.size	PERIODS_PR_CL, .-PERIODS_PR_CL
 1037              		.global	__aeabi_ui2d
 1038              		.global	__aeabi_ddiv
 1039              		.global	__aeabi_dmul
 1040              		.global	__aeabi_dcmpgt
 1041              		.global	__aeabi_dcmplt
 1042              		.global	__aeabi_i2d
 1043              		.global	__aeabi_d2uiz
 1044              		.section	.text.weight_to_cl,"ax",%progbits
 1045              		.align	2
 1046              		.global	weight_to_cl
 1047              		.thumb
 1048              		.thumb_func
 1049              		.type	weight_to_cl, %function
 1050              	weight_to_cl:
 1051              	.LFB79:
  36:dmc_controller.c **** 
  37:dmc_controller.c **** uint16_t weight_to_cl()
  38:dmc_controller.c **** {   
ARM GAS  C:\Users\Runeg\AppData\Local\Temp\cci0HMiU.s 			page 28


 1052              		.loc 3 38 0
 1053              		.cfi_startproc
 1054              		@ args = 0, pretend = 0, frame = 24
 1055              		@ frame_needed = 1, uses_anonymous_args = 0
 1056 0000 B0B5     		push	{r4, r5, r7, lr}
 1057              		.cfi_def_cfa_offset 16
 1058              		.cfi_offset 4, -16
 1059              		.cfi_offset 5, -12
 1060              		.cfi_offset 7, -8
 1061              		.cfi_offset 14, -4
 1062 0002 86B0     		sub	sp, sp, #24
 1063              		.cfi_def_cfa_offset 40
 1064 0004 00AF     		add	r7, sp, #0
 1065              		.cfi_def_cfa_register 7
  39:dmc_controller.c ****     
  40:dmc_controller.c ****     uint16_t temp_result = (current_weight->result - current_weight->tara - current_weight->min);
 1066              		.loc 3 40 0
 1067 0006 364B     		ldr	r3, .L66
 1068 0008 1B68     		ldr	r3, [r3]
 1069 000a 5A88     		ldrh	r2, [r3, #2]
 1070 000c 344B     		ldr	r3, .L66
 1071 000e 1B68     		ldr	r3, [r3]
 1072 0010 B3F90430 		ldrsh	r3, [r3, #4]
 1073 0014 9BB2     		uxth	r3, r3
 1074 0016 D31A     		subs	r3, r2, r3
 1075 0018 9AB2     		uxth	r2, r3
 1076 001a 314B     		ldr	r3, .L66
 1077 001c 1B68     		ldr	r3, [r3]
 1078 001e 1B89     		ldrh	r3, [r3, #8]
 1079 0020 D31A     		subs	r3, r2, r3
 1080 0022 FB82     		strh	r3, [r7, #22]	@ movhi
  41:dmc_controller.c ****     uint16_t temp_max = (current_weight->max - current_weight->min);
 1081              		.loc 3 41 0
 1082 0024 2E4B     		ldr	r3, .L66
 1083 0026 1B68     		ldr	r3, [r3]
 1084 0028 5A89     		ldrh	r2, [r3, #10]
 1085 002a 2D4B     		ldr	r3, .L66
 1086 002c 1B68     		ldr	r3, [r3]
 1087 002e 1B89     		ldrh	r3, [r3, #8]
 1088 0030 D31A     		subs	r3, r2, r3
 1089 0032 BB82     		strh	r3, [r7, #20]	@ movhi
  42:dmc_controller.c ****     uint16_t temp_min = current_weight->min;
 1090              		.loc 3 42 0
 1091 0034 2A4B     		ldr	r3, .L66
 1092 0036 1B68     		ldr	r3, [r3]
 1093 0038 1B89     		ldrh	r3, [r3, #8]	@ movhi
 1094 003a 7B82     		strh	r3, [r7, #18]	@ movhi
  43:dmc_controller.c ****     
  44:dmc_controller.c ****     
  45:dmc_controller.c ****     //If value is extraordinary big, it is error from weight
  46:dmc_controller.c ****     if (temp_result > 2500)
 1095              		.loc 3 46 0
 1096 003c FB8A     		ldrh	r3, [r7, #22]
 1097 003e 40F6C412 		movw	r2, #2500
 1098 0042 9342     		cmp	r3, r2
 1099 0044 01D9     		bls	.L60
  47:dmc_controller.c ****         temp_result = 0;
ARM GAS  C:\Users\Runeg\AppData\Local\Temp\cci0HMiU.s 			page 29


 1100              		.loc 3 47 0
 1101 0046 0023     		movs	r3, #0
 1102 0048 FB82     		strh	r3, [r7, #22]	@ movhi
 1103              	.L60:
  48:dmc_controller.c ****     
  49:dmc_controller.c ****     
  50:dmc_controller.c ****     double percent = (double)temp_result/(double)temp_max;
 1104              		.loc 3 50 0
 1105 004a FB8A     		ldrh	r3, [r7, #22]
 1106 004c 1846     		mov	r0, r3
 1107 004e FFF7FEFF 		bl	__aeabi_ui2d
 1108 0052 0446     		mov	r4, r0
 1109 0054 0D46     		mov	r5, r1
 1110 0056 BB8A     		ldrh	r3, [r7, #20]
 1111 0058 1846     		mov	r0, r3
 1112 005a FFF7FEFF 		bl	__aeabi_ui2d
 1113 005e 0246     		mov	r2, r0
 1114 0060 0B46     		mov	r3, r1
 1115 0062 2046     		mov	r0, r4
 1116 0064 2946     		mov	r1, r5
 1117 0066 FFF7FEFF 		bl	__aeabi_ddiv
 1118 006a 0346     		mov	r3, r0
 1119 006c 0C46     		mov	r4, r1
 1120 006e C7E90234 		strd	r3, [r7, #8]
  51:dmc_controller.c ****     
  52:dmc_controller.c ****     double print = percent*70;
 1121              		.loc 3 52 0
 1122 0072 4FF00002 		mov	r2, #0
 1123 0076 1B4B     		ldr	r3, .L66+4
 1124 0078 D7E90201 		ldrd	r0, [r7, #8]
 1125 007c FFF7FEFF 		bl	__aeabi_dmul
 1126 0080 0346     		mov	r3, r0
 1127 0082 0C46     		mov	r4, r1
 1128 0084 C7E90034 		strd	r3, [r7]
  53:dmc_controller.c ****     
  54:dmc_controller.c ****     if (percent > 120 || percent < 0)
 1129              		.loc 3 54 0
 1130 0088 4FF00002 		mov	r2, #0
 1131 008c 164B     		ldr	r3, .L66+8
 1132 008e D7E90201 		ldrd	r0, [r7, #8]
 1133 0092 FFF7FEFF 		bl	__aeabi_dcmpgt
 1134 0096 0346     		mov	r3, r0
 1135 0098 002B     		cmp	r3, #0
 1136 009a 0AD1     		bne	.L61
 1137              		.loc 3 54 0 is_stmt 0 discriminator 1
 1138 009c 4FF00002 		mov	r2, #0
 1139 00a0 4FF00003 		mov	r3, #0
 1140 00a4 D7E90201 		ldrd	r0, [r7, #8]
 1141 00a8 FFF7FEFF 		bl	__aeabi_dcmplt
 1142 00ac 0346     		mov	r3, r0
 1143 00ae 002B     		cmp	r3, #0
 1144 00b0 01D0     		beq	.L65
 1145              	.L61:
  55:dmc_controller.c ****         return 0;
 1146              		.loc 3 55 0 is_stmt 1
 1147 00b2 0023     		movs	r3, #0
 1148 00b4 10E0     		b	.L64
ARM GAS  C:\Users\Runeg\AppData\Local\Temp\cci0HMiU.s 			page 30


 1149              	.L65:
  56:dmc_controller.c ****     
  57:dmc_controller.c ****     return (double)(percent*MAX_VOLUME_IN_CONTAINER);
 1150              		.loc 3 57 0
 1151 00b6 0D4B     		ldr	r3, .L66+12
 1152 00b8 1B78     		ldrb	r3, [r3]	@ zero_extendqisi2
 1153 00ba 1846     		mov	r0, r3
 1154 00bc FFF7FEFF 		bl	__aeabi_i2d
 1155 00c0 D7E90223 		ldrd	r2, [r7, #8]
 1156 00c4 FFF7FEFF 		bl	__aeabi_dmul
 1157 00c8 0346     		mov	r3, r0
 1158 00ca 0C46     		mov	r4, r1
 1159 00cc 1846     		mov	r0, r3
 1160 00ce 2146     		mov	r1, r4
 1161 00d0 FFF7FEFF 		bl	__aeabi_d2uiz
 1162 00d4 0346     		mov	r3, r0
 1163 00d6 9BB2     		uxth	r3, r3
 1164              	.L64:
  58:dmc_controller.c ****     
  59:dmc_controller.c ****     
  60:dmc_controller.c **** }
 1165              		.loc 3 60 0
 1166 00d8 1846     		mov	r0, r3
 1167 00da 1837     		adds	r7, r7, #24
 1168              		.cfi_def_cfa_offset 16
 1169 00dc BD46     		mov	sp, r7
 1170              		.cfi_def_cfa_register 13
 1171              		@ sp needed
 1172 00de B0BD     		pop	{r4, r5, r7, pc}
 1173              	.L67:
 1174              		.align	2
 1175              	.L66:
 1176 00e0 00000000 		.word	current_weight
 1177 00e4 00805140 		.word	1079083008
 1178 00e8 00005E40 		.word	1079902208
 1179 00ec 00000000 		.word	MAX_VOLUME_IN_CONTAINER
 1180              		.cfi_endproc
 1181              	.LFE79:
 1182              		.size	weight_to_cl, .-weight_to_cl
 1183              		.section	.text.container_amount_init,"ax",%progbits
 1184              		.align	2
 1185              		.global	container_amount_init
 1186              		.thumb
 1187              		.thumb_func
 1188              		.type	container_amount_init, %function
 1189              	container_amount_init:
 1190              	.LFB80:
  61:dmc_controller.c **** 
  62:dmc_controller.c **** void container_amount_init()
  63:dmc_controller.c **** {
 1191              		.loc 3 63 0
 1192              		.cfi_startproc
 1193              		@ args = 0, pretend = 0, frame = 8
 1194              		@ frame_needed = 1, uses_anonymous_args = 0
 1195 0000 80B5     		push	{r7, lr}
 1196              		.cfi_def_cfa_offset 8
 1197              		.cfi_offset 7, -8
ARM GAS  C:\Users\Runeg\AppData\Local\Temp\cci0HMiU.s 			page 31


 1198              		.cfi_offset 14, -4
 1199 0002 82B0     		sub	sp, sp, #8
 1200              		.cfi_def_cfa_offset 16
 1201 0004 00AF     		add	r7, sp, #0
 1202              		.cfi_def_cfa_register 7
 1203              	.LBB2:
  64:dmc_controller.c ****     for (int weight_to_check = 1; weight_to_check <= 3; weight_to_check++)
 1204              		.loc 3 64 0
 1205 0006 0123     		movs	r3, #1
 1206 0008 7B60     		str	r3, [r7, #4]
 1207 000a 17E0     		b	.L69
 1208              	.L70:
 1209              	.LBB3:
  65:dmc_controller.c ****             {
  66:dmc_controller.c ****                 CyDelay(10);
 1210              		.loc 3 66 0 discriminator 3
 1211 000c 0A20     		movs	r0, #10
 1212 000e FFF7FEFF 		bl	CyDelay
  67:dmc_controller.c ****                 set_current_weight((enum dmc_weight_number)weight_to_check);
 1213              		.loc 3 67 0 discriminator 3
 1214 0012 7B68     		ldr	r3, [r7, #4]
 1215 0014 DBB2     		uxtb	r3, r3
 1216 0016 1846     		mov	r0, r3
 1217 0018 FFF7FEFF 		bl	set_current_weight
  68:dmc_controller.c ****                 struct dmc_packet_container_volume_measured packet;
  69:dmc_controller.c ****                 packet.container = (uint8_t)current_weight->weight_number;
 1218              		.loc 3 69 0 discriminator 3
 1219 001c 0B4B     		ldr	r3, .L71
 1220 001e 1B68     		ldr	r3, [r3]
 1221 0020 1B78     		ldrb	r3, [r3]	@ zero_extendqisi2
 1222 0022 3B70     		strb	r3, [r7]
  70:dmc_controller.c ****                 packet.volume = weight_to_cl();
 1223              		.loc 3 70 0 discriminator 3
 1224 0024 FFF7FEFF 		bl	weight_to_cl
 1225 0028 0346     		mov	r3, r0
 1226 002a 1BB2     		sxth	r3, r3
 1227 002c 7B80     		strh	r3, [r7, #2]	@ movhi
  71:dmc_controller.c ****                 send_container_volume_measured(&packet);
 1228              		.loc 3 71 0 discriminator 3
 1229 002e 3B46     		mov	r3, r7
 1230 0030 1846     		mov	r0, r3
 1231 0032 FFF7FEFF 		bl	send_container_volume_measured
 1232              	.LBE3:
  64:dmc_controller.c ****             {
 1233              		.loc 3 64 0 discriminator 3
 1234 0036 7B68     		ldr	r3, [r7, #4]
 1235 0038 0133     		adds	r3, r3, #1
 1236 003a 7B60     		str	r3, [r7, #4]
 1237              	.L69:
  64:dmc_controller.c ****             {
 1238              		.loc 3 64 0 is_stmt 0 discriminator 1
 1239 003c 7B68     		ldr	r3, [r7, #4]
 1240 003e 032B     		cmp	r3, #3
 1241 0040 E4DD     		ble	.L70
 1242              	.LBE2:
  72:dmc_controller.c ****             }
  73:dmc_controller.c **** }
ARM GAS  C:\Users\Runeg\AppData\Local\Temp\cci0HMiU.s 			page 32


 1243              		.loc 3 73 0 is_stmt 1
 1244 0042 00BF     		nop
 1245 0044 0837     		adds	r7, r7, #8
 1246              		.cfi_def_cfa_offset 8
 1247 0046 BD46     		mov	sp, r7
 1248              		.cfi_def_cfa_register 13
 1249              		@ sp needed
 1250 0048 80BD     		pop	{r7, pc}
 1251              	.L72:
 1252 004a 00BF     		.align	2
 1253              	.L71:
 1254 004c 00000000 		.word	current_weight
 1255              		.cfi_endproc
 1256              	.LFE80:
 1257              		.size	container_amount_init, .-container_amount_init
 1258              		.section	.text.is_weight_within_lower_threshold,"ax",%progbits
 1259              		.align	2
 1260              		.global	is_weight_within_lower_threshold
 1261              		.thumb
 1262              		.thumb_func
 1263              		.type	is_weight_within_lower_threshold, %function
 1264              	is_weight_within_lower_threshold:
 1265              	.LFB81:
  74:dmc_controller.c **** 
  75:dmc_controller.c **** 
  76:dmc_controller.c **** int is_weight_within_lower_threshold(uint16_t measured_weight_value)
  77:dmc_controller.c **** {
 1266              		.loc 3 77 0
 1267              		.cfi_startproc
 1268              		@ args = 0, pretend = 0, frame = 8
 1269              		@ frame_needed = 1, uses_anonymous_args = 0
 1270              		@ link register save eliminated.
 1271 0000 80B4     		push	{r7}
 1272              		.cfi_def_cfa_offset 4
 1273              		.cfi_offset 7, -4
 1274 0002 83B0     		sub	sp, sp, #12
 1275              		.cfi_def_cfa_offset 16
 1276 0004 00AF     		add	r7, sp, #0
 1277              		.cfi_def_cfa_register 7
 1278 0006 0346     		mov	r3, r0
 1279 0008 FB80     		strh	r3, [r7, #6]	@ movhi
  78:dmc_controller.c ****     return measured_weight_value > current_weight->min - 10;
 1280              		.loc 3 78 0
 1281 000a FA88     		ldrh	r2, [r7, #6]
 1282 000c 064B     		ldr	r3, .L75
 1283 000e 1B68     		ldr	r3, [r3]
 1284 0010 1B89     		ldrh	r3, [r3, #8]
 1285 0012 0A3B     		subs	r3, r3, #10
 1286 0014 9A42     		cmp	r2, r3
 1287 0016 CCBF     		ite	gt
 1288 0018 0123     		movgt	r3, #1
 1289 001a 0023     		movle	r3, #0
 1290 001c DBB2     		uxtb	r3, r3
  79:dmc_controller.c **** }
 1291              		.loc 3 79 0
 1292 001e 1846     		mov	r0, r3
 1293 0020 0C37     		adds	r7, r7, #12
ARM GAS  C:\Users\Runeg\AppData\Local\Temp\cci0HMiU.s 			page 33


 1294              		.cfi_def_cfa_offset 4
 1295 0022 BD46     		mov	sp, r7
 1296              		.cfi_def_cfa_register 13
 1297              		@ sp needed
 1298 0024 80BC     		pop	{r7}
 1299              		.cfi_restore 7
 1300              		.cfi_def_cfa_offset 0
 1301 0026 7047     		bx	lr
 1302              	.L76:
 1303              		.align	2
 1304              	.L75:
 1305 0028 00000000 		.word	current_weight
 1306              		.cfi_endproc
 1307              	.LFE81:
 1308              		.size	is_weight_within_lower_threshold, .-is_weight_within_lower_threshold
 1309              		.section	.text.set_out_of_order_reason,"ax",%progbits
 1310              		.align	2
 1311              		.global	set_out_of_order_reason
 1312              		.thumb
 1313              		.thumb_func
 1314              		.type	set_out_of_order_reason, %function
 1315              	set_out_of_order_reason:
 1316              	.LFB82:
  80:dmc_controller.c **** 
  81:dmc_controller.c **** void set_out_of_order_reason(struct dmc_packet_out_of_order* out_of_order_packet)
  82:dmc_controller.c **** {
 1317              		.loc 3 82 0
 1318              		.cfi_startproc
 1319              		@ args = 0, pretend = 0, frame = 8
 1320              		@ frame_needed = 1, uses_anonymous_args = 0
 1321              		@ link register save eliminated.
 1322 0000 80B4     		push	{r7}
 1323              		.cfi_def_cfa_offset 4
 1324              		.cfi_offset 7, -4
 1325 0002 83B0     		sub	sp, sp, #12
 1326              		.cfi_def_cfa_offset 16
 1327 0004 00AF     		add	r7, sp, #0
 1328              		.cfi_def_cfa_register 7
 1329 0006 7860     		str	r0, [r7, #4]
  83:dmc_controller.c ****     if (weight1.out_of_order)
 1330              		.loc 3 83 0
 1331 0008 0C4B     		ldr	r3, .L82
 1332 000a 1B7B     		ldrb	r3, [r3, #12]	@ zero_extendqisi2
 1333 000c 002B     		cmp	r3, #0
 1334 000e 02D0     		beq	.L78
  84:dmc_controller.c ****         out_of_order_packet->reason = DMC_PACKET_OUT_OF_ORDER_REASON_FLUID_CONTAINER_1_REMOVED;
 1335              		.loc 3 84 0
 1336 0010 7B68     		ldr	r3, [r7, #4]
 1337 0012 0122     		movs	r2, #1
 1338 0014 1A70     		strb	r2, [r3]
 1339              	.L78:
  85:dmc_controller.c ****     if (weight2.out_of_order)
 1340              		.loc 3 85 0
 1341 0016 0A4B     		ldr	r3, .L82+4
 1342 0018 1B7B     		ldrb	r3, [r3, #12]	@ zero_extendqisi2
 1343 001a 002B     		cmp	r3, #0
 1344 001c 02D0     		beq	.L79
ARM GAS  C:\Users\Runeg\AppData\Local\Temp\cci0HMiU.s 			page 34


  86:dmc_controller.c ****         out_of_order_packet->reason = DMC_PACKET_OUT_OF_ORDER_REASON_FLUID_CONTAINER_2_REMOVED;
 1345              		.loc 3 86 0
 1346 001e 7B68     		ldr	r3, [r7, #4]
 1347 0020 0222     		movs	r2, #2
 1348 0022 1A70     		strb	r2, [r3]
 1349              	.L79:
  87:dmc_controller.c ****     if (weight3.out_of_order)
 1350              		.loc 3 87 0
 1351 0024 074B     		ldr	r3, .L82+8
 1352 0026 1B7B     		ldrb	r3, [r3, #12]	@ zero_extendqisi2
 1353 0028 002B     		cmp	r3, #0
 1354 002a 02D0     		beq	.L81
  88:dmc_controller.c ****         out_of_order_packet->reason = DMC_PACKET_OUT_OF_ORDER_REASON_FLUID_CONTAINER_3_REMOVED;    
 1355              		.loc 3 88 0
 1356 002c 7B68     		ldr	r3, [r7, #4]
 1357 002e 0322     		movs	r2, #3
 1358 0030 1A70     		strb	r2, [r3]
 1359              	.L81:
  89:dmc_controller.c **** }
 1360              		.loc 3 89 0
 1361 0032 00BF     		nop
 1362 0034 0C37     		adds	r7, r7, #12
 1363              		.cfi_def_cfa_offset 4
 1364 0036 BD46     		mov	sp, r7
 1365              		.cfi_def_cfa_register 13
 1366              		@ sp needed
 1367 0038 80BC     		pop	{r7}
 1368              		.cfi_restore 7
 1369              		.cfi_def_cfa_offset 0
 1370 003a 7047     		bx	lr
 1371              	.L83:
 1372              		.align	2
 1373              	.L82:
 1374 003c 00000000 		.word	weight1
 1375 0040 00000000 		.word	weight2
 1376 0044 00000000 		.word	weight3
 1377              		.cfi_endproc
 1378              	.LFE82:
 1379              		.size	set_out_of_order_reason, .-set_out_of_order_reason
 1380              		.section	.text.do_periodic_weight_check,"ax",%progbits
 1381              		.align	2
 1382              		.global	do_periodic_weight_check
 1383              		.thumb
 1384              		.thumb_func
 1385              		.type	do_periodic_weight_check, %function
 1386              	do_periodic_weight_check:
 1387              	.LFB83:
  90:dmc_controller.c **** 
  91:dmc_controller.c **** 
  92:dmc_controller.c **** void do_periodic_weight_check()
  93:dmc_controller.c **** {
 1388              		.loc 3 93 0
 1389              		.cfi_startproc
 1390              		@ args = 0, pretend = 0, frame = 24
 1391              		@ frame_needed = 1, uses_anonymous_args = 0
 1392 0000 80B5     		push	{r7, lr}
 1393              		.cfi_def_cfa_offset 8
ARM GAS  C:\Users\Runeg\AppData\Local\Temp\cci0HMiU.s 			page 35


 1394              		.cfi_offset 7, -8
 1395              		.cfi_offset 14, -4
 1396 0002 86B0     		sub	sp, sp, #24
 1397              		.cfi_def_cfa_offset 32
 1398 0004 00AF     		add	r7, sp, #0
 1399              		.cfi_def_cfa_register 7
 1400              	.LBB4:
  94:dmc_controller.c ****    
  95:dmc_controller.c ****     for (int weight_to_check = 1; weight_to_check <= 3; weight_to_check++)
 1401              		.loc 3 95 0
 1402 0006 0123     		movs	r3, #1
 1403 0008 7B61     		str	r3, [r7, #20]
 1404 000a 86E0     		b	.L85
 1405              	.L91:
 1406              	.LBB5:
  96:dmc_controller.c ****     {
  97:dmc_controller.c ****         set_current_weight((enum dmc_weight_number)weight_to_check);
 1407              		.loc 3 97 0
 1408 000c 7B69     		ldr	r3, [r7, #20]
 1409 000e DBB2     		uxtb	r3, r3
 1410 0010 1846     		mov	r0, r3
 1411 0012 FFF7FEFF 		bl	set_current_weight
  98:dmc_controller.c ****     
  99:dmc_controller.c ****         uint16_t measured_weight_value = measure_weight_value();
 1412              		.loc 3 99 0
 1413 0016 FFF7FEFF 		bl	measure_weight_value
 1414 001a 0346     		mov	r3, r0
 1415 001c 7B82     		strh	r3, [r7, #18]	@ movhi
 100:dmc_controller.c **** 
 101:dmc_controller.c ****         if (!is_weight_within_lower_threshold(measured_weight_value))
 1416              		.loc 3 101 0
 1417 001e 7B8A     		ldrh	r3, [r7, #18]
 1418 0020 1846     		mov	r0, r3
 1419 0022 FFF7FEFF 		bl	is_weight_within_lower_threshold
 1420 0026 0346     		mov	r3, r0
 1421 0028 002B     		cmp	r3, #0
 1422 002a 1ED1     		bne	.L86
 102:dmc_controller.c ****             {
 103:dmc_controller.c ****                 if (!weight1.out_of_order && !weight2.out_of_order && !weight3.out_of_order)
 1423              		.loc 3 103 0
 1424 002c 3F4B     		ldr	r3, .L92
 1425 002e 1B7B     		ldrb	r3, [r3, #12]	@ zero_extendqisi2
 1426 0030 002B     		cmp	r3, #0
 1427 0032 15D1     		bne	.L87
 1428              		.loc 3 103 0 is_stmt 0 discriminator 1
 1429 0034 3E4B     		ldr	r3, .L92+4
 1430 0036 1B7B     		ldrb	r3, [r3, #12]	@ zero_extendqisi2
 1431 0038 002B     		cmp	r3, #0
 1432 003a 11D1     		bne	.L87
 1433              		.loc 3 103 0 discriminator 2
 1434 003c 3D4B     		ldr	r3, .L92+8
 1435 003e 1B7B     		ldrb	r3, [r3, #12]	@ zero_extendqisi2
 1436 0040 002B     		cmp	r3, #0
 1437 0042 0DD1     		bne	.L87
 1438              	.LBB6:
 104:dmc_controller.c ****                 {
 105:dmc_controller.c ****                     current_weight->out_of_order = 1;
ARM GAS  C:\Users\Runeg\AppData\Local\Temp\cci0HMiU.s 			page 36


 1439              		.loc 3 105 0 is_stmt 1
 1440 0044 3C4B     		ldr	r3, .L92+12
 1441 0046 1B68     		ldr	r3, [r3]
 1442 0048 0122     		movs	r2, #1
 1443 004a 1A73     		strb	r2, [r3, #12]
 106:dmc_controller.c ****                     struct dmc_packet_out_of_order out_of_order_message;
 107:dmc_controller.c ****                     set_out_of_order_reason(&out_of_order_message);
 1444              		.loc 3 107 0
 1445 004c 07F11003 		add	r3, r7, #16
 1446 0050 1846     		mov	r0, r3
 1447 0052 FFF7FEFF 		bl	set_out_of_order_reason
 108:dmc_controller.c ****                     send_out_of_order_message(&out_of_order_message);
 1448              		.loc 3 108 0
 1449 0056 07F11003 		add	r3, r7, #16
 1450 005a 1846     		mov	r0, r3
 1451 005c FFF7FEFF 		bl	send_out_of_order_message
 1452              	.L87:
 1453              	.LBE6:
 109:dmc_controller.c ****                 }
 110:dmc_controller.c ****                 
 111:dmc_controller.c ****                 current_weight->out_of_order = 1;
 1454              		.loc 3 111 0
 1455 0060 354B     		ldr	r3, .L92+12
 1456 0062 1B68     		ldr	r3, [r3]
 1457 0064 0122     		movs	r2, #1
 1458 0066 1A73     		strb	r2, [r3, #12]
 1459 0068 36E0     		b	.L88
 1460              	.L86:
 112:dmc_controller.c ****             }
 113:dmc_controller.c ****         else if (current_weight->out_of_order)
 1461              		.loc 3 113 0
 1462 006a 334B     		ldr	r3, .L92+12
 1463 006c 1B68     		ldr	r3, [r3]
 1464 006e 1B7B     		ldrb	r3, [r3, #12]	@ zero_extendqisi2
 1465 0070 002B     		cmp	r3, #0
 1466 0072 31D0     		beq	.L88
 114:dmc_controller.c ****             {
 115:dmc_controller.c ****                 current_weight->out_of_order = 0;
 1467              		.loc 3 115 0
 1468 0074 304B     		ldr	r3, .L92+12
 1469 0076 1B68     		ldr	r3, [r3]
 1470 0078 0022     		movs	r2, #0
 1471 007a 1A73     		strb	r2, [r3, #12]
 116:dmc_controller.c ****                                
 117:dmc_controller.c ****                 if (!weight1.out_of_order && !weight2.out_of_order && !weight3.out_of_order)
 1472              		.loc 3 117 0
 1473 007c 2B4B     		ldr	r3, .L92
 1474 007e 1B7B     		ldrb	r3, [r3, #12]	@ zero_extendqisi2
 1475 0080 002B     		cmp	r3, #0
 1476 0082 1FD1     		bne	.L89
 1477              		.loc 3 117 0 is_stmt 0 discriminator 1
 1478 0084 2A4B     		ldr	r3, .L92+4
 1479 0086 1B7B     		ldrb	r3, [r3, #12]	@ zero_extendqisi2
 1480 0088 002B     		cmp	r3, #0
 1481 008a 1BD1     		bne	.L89
 1482              		.loc 3 117 0 discriminator 2
 1483 008c 294B     		ldr	r3, .L92+8
ARM GAS  C:\Users\Runeg\AppData\Local\Temp\cci0HMiU.s 			page 37


 1484 008e 1B7B     		ldrb	r3, [r3, #12]	@ zero_extendqisi2
 1485 0090 002B     		cmp	r3, #0
 1486 0092 17D1     		bne	.L89
 1487              	.LBB7:
 118:dmc_controller.c ****                 {
 119:dmc_controller.c ****                     struct dmc_packet_machine_ok machine_ok;
 120:dmc_controller.c ****                     send_machine_ok_message(&machine_ok);
 1488              		.loc 3 120 0 is_stmt 1
 1489 0094 07F11003 		add	r3, r7, #16
 1490 0098 1846     		mov	r0, r3
 1491 009a FFF7FEFF 		bl	send_machine_ok_message
 121:dmc_controller.c ****                     current_weight->result = measured_weight_value;
 1492              		.loc 3 121 0
 1493 009e 264B     		ldr	r3, .L92+12
 1494 00a0 1B68     		ldr	r3, [r3]
 1495 00a2 7A8A     		ldrh	r2, [r7, #18]	@ movhi
 1496 00a4 5A80     		strh	r2, [r3, #2]	@ movhi
 122:dmc_controller.c ****                     
 123:dmc_controller.c ****                     //Sending updated weight
 124:dmc_controller.c ****                     struct dmc_packet_container_volume_measured packet;
 125:dmc_controller.c ****                     packet.container = (uint8_t)current_weight->weight_number;
 1497              		.loc 3 125 0
 1498 00a6 244B     		ldr	r3, .L92+12
 1499 00a8 1B68     		ldr	r3, [r3]
 1500 00aa 1B78     		ldrb	r3, [r3]	@ zero_extendqisi2
 1501 00ac 3B73     		strb	r3, [r7, #12]
 126:dmc_controller.c ****                     packet.volume = weight_to_cl();
 1502              		.loc 3 126 0
 1503 00ae FFF7FEFF 		bl	weight_to_cl
 1504 00b2 0346     		mov	r3, r0
 1505 00b4 1BB2     		sxth	r3, r3
 1506 00b6 FB81     		strh	r3, [r7, #14]	@ movhi
 127:dmc_controller.c ****                     send_container_volume_measured(&packet);
 1507              		.loc 3 127 0
 1508 00b8 07F10C03 		add	r3, r7, #12
 1509 00bc 1846     		mov	r0, r3
 1510 00be FFF7FEFF 		bl	send_container_volume_measured
 1511              	.LBE7:
 118:dmc_controller.c ****                     struct dmc_packet_machine_ok machine_ok;
 1512              		.loc 3 118 0
 1513 00c2 09E0     		b	.L88
 1514              	.L89:
 1515              	.LBB8:
 128:dmc_controller.c ****                     
 129:dmc_controller.c ****                 } else {
 130:dmc_controller.c ****                     struct dmc_packet_out_of_order out_of_order_message;
 131:dmc_controller.c ****                     set_out_of_order_reason(&out_of_order_message);
 1516              		.loc 3 131 0
 1517 00c4 07F10803 		add	r3, r7, #8
 1518 00c8 1846     		mov	r0, r3
 1519 00ca FFF7FEFF 		bl	set_out_of_order_reason
 132:dmc_controller.c ****                     send_out_of_order_message(&out_of_order_message);
 1520              		.loc 3 132 0
 1521 00ce 07F10803 		add	r3, r7, #8
 1522 00d2 1846     		mov	r0, r3
 1523 00d4 FFF7FEFF 		bl	send_out_of_order_message
 1524              	.L88:
ARM GAS  C:\Users\Runeg\AppData\Local\Temp\cci0HMiU.s 			page 38


 1525              	.LBE8:
 133:dmc_controller.c ****                 }
 134:dmc_controller.c ****             }
 135:dmc_controller.c ****         if (is_pumping((enum dmc_pump)weight_to_check) && !current_weight->out_of_order)
 1526              		.loc 3 135 0
 1527 00d8 7B69     		ldr	r3, [r7, #20]
 1528 00da DBB2     		uxtb	r3, r3
 1529 00dc 1846     		mov	r0, r3
 1530 00de FFF7FEFF 		bl	is_pumping
 1531 00e2 0346     		mov	r3, r0
 1532 00e4 002B     		cmp	r3, #0
 1533 00e6 15D0     		beq	.L90
 1534              		.loc 3 135 0 is_stmt 0 discriminator 1
 1535 00e8 134B     		ldr	r3, .L92+12
 1536 00ea 1B68     		ldr	r3, [r3]
 1537 00ec 1B7B     		ldrb	r3, [r3, #12]	@ zero_extendqisi2
 1538 00ee 002B     		cmp	r3, #0
 1539 00f0 10D1     		bne	.L90
 1540              	.LBB9:
 136:dmc_controller.c ****         {
 137:dmc_controller.c ****             current_weight->result = measured_weight_value;
 1541              		.loc 3 137 0 is_stmt 1
 1542 00f2 114B     		ldr	r3, .L92+12
 1543 00f4 1B68     		ldr	r3, [r3]
 1544 00f6 7A8A     		ldrh	r2, [r7, #18]	@ movhi
 1545 00f8 5A80     		strh	r2, [r3, #2]	@ movhi
 138:dmc_controller.c ****             struct dmc_packet_container_volume_measured packet;
 139:dmc_controller.c ****             packet.container = (uint8_t)current_weight->weight_number;
 1546              		.loc 3 139 0
 1547 00fa 0F4B     		ldr	r3, .L92+12
 1548 00fc 1B68     		ldr	r3, [r3]
 1549 00fe 1B78     		ldrb	r3, [r3]	@ zero_extendqisi2
 1550 0100 3B71     		strb	r3, [r7, #4]
 140:dmc_controller.c ****             packet.volume = weight_to_cl();
 1551              		.loc 3 140 0
 1552 0102 FFF7FEFF 		bl	weight_to_cl
 1553 0106 0346     		mov	r3, r0
 1554 0108 1BB2     		sxth	r3, r3
 1555 010a FB80     		strh	r3, [r7, #6]	@ movhi
 141:dmc_controller.c ****             send_container_volume_measured(&packet);
 1556              		.loc 3 141 0
 1557 010c 3B1D     		adds	r3, r7, #4
 1558 010e 1846     		mov	r0, r3
 1559 0110 FFF7FEFF 		bl	send_container_volume_measured
 1560              	.L90:
 1561              	.LBE9:
 1562              	.LBE5:
  95:dmc_controller.c ****     {
 1563              		.loc 3 95 0 discriminator 2
 1564 0114 7B69     		ldr	r3, [r7, #20]
 1565 0116 0133     		adds	r3, r3, #1
 1566 0118 7B61     		str	r3, [r7, #20]
 1567              	.L85:
  95:dmc_controller.c ****     {
 1568              		.loc 3 95 0 is_stmt 0 discriminator 1
 1569 011a 7B69     		ldr	r3, [r7, #20]
 1570 011c 032B     		cmp	r3, #3
ARM GAS  C:\Users\Runeg\AppData\Local\Temp\cci0HMiU.s 			page 39


 1571 011e 7FF775AF 		ble	.L91
 1572              	.LBE4:
 142:dmc_controller.c ****             
 143:dmc_controller.c ****         }
 144:dmc_controller.c ****        
 145:dmc_controller.c ****     }
 146:dmc_controller.c **** }
 1573              		.loc 3 146 0 is_stmt 1
 1574 0122 00BF     		nop
 1575 0124 1837     		adds	r7, r7, #24
 1576              		.cfi_def_cfa_offset 8
 1577 0126 BD46     		mov	sp, r7
 1578              		.cfi_def_cfa_register 13
 1579              		@ sp needed
 1580 0128 80BD     		pop	{r7, pc}
 1581              	.L93:
 1582 012a 00BF     		.align	2
 1583              	.L92:
 1584 012c 00000000 		.word	weight1
 1585 0130 00000000 		.word	weight2
 1586 0134 00000000 		.word	weight3
 1587 0138 00000000 		.word	current_weight
 1588              		.cfi_endproc
 1589              	.LFE83:
 1590              		.size	do_periodic_weight_check, .-do_periodic_weight_check
 1591              		.section	.text.raise_flag,"ax",%progbits
 1592              		.align	2
 1593              		.global	raise_flag
 1594              		.thumb
 1595              		.thumb_func
 1596              		.type	raise_flag, %function
 1597              	raise_flag:
 1598              	.LFB84:
 147:dmc_controller.c **** 
 148:dmc_controller.c ****  /*
 149:dmc_controller.c ****         else if (!current_weight->out_of_order)
 150:dmc_controller.c ****         {
 151:dmc_controller.c ****             int diff = measured_weight_value - current_weight->result;
 152:dmc_controller.c ****             if (diff < 25 && diff > -25)
 153:dmc_controller.c ****                 current_weight->tara = measured_weight_value - current_weight->result;
 154:dmc_controller.c ****         }
 155:dmc_controller.c ****         */
 156:dmc_controller.c **** //Remove this 
 157:dmc_controller.c **** 
 158:dmc_controller.c **** int raise_flag(struct dmc_packet *packet_to_check)
 159:dmc_controller.c **** {
 1599              		.loc 3 159 0
 1600              		.cfi_startproc
 1601              		@ args = 0, pretend = 0, frame = 8
 1602              		@ frame_needed = 1, uses_anonymous_args = 0
 1603              		@ link register save eliminated.
 1604 0000 80B4     		push	{r7}
 1605              		.cfi_def_cfa_offset 4
 1606              		.cfi_offset 7, -4
 1607 0002 83B0     		sub	sp, sp, #12
 1608              		.cfi_def_cfa_offset 16
 1609 0004 00AF     		add	r7, sp, #0
ARM GAS  C:\Users\Runeg\AppData\Local\Temp\cci0HMiU.s 			page 40


 1610              		.cfi_def_cfa_register 7
 1611 0006 7860     		str	r0, [r7, #4]
 160:dmc_controller.c ****     switch(packet_to_check->type) {
 1612              		.loc 3 160 0
 1613 0008 7B68     		ldr	r3, [r7, #4]
 1614 000a 1B78     		ldrb	r3, [r3]	@ zero_extendqisi2
 1615 000c A02B     		cmp	r3, #160
 1616 000e 01D1     		bne	.L98
 161:dmc_controller.c ****         case DMC_PACKET_USER_CONFIRM:
 162:dmc_controller.c ****         {
 163:dmc_controller.c ****             return 1;
 1617              		.loc 3 163 0
 1618 0010 0123     		movs	r3, #1
 1619 0012 00E0     		b	.L97
 1620              	.L98:
 164:dmc_controller.c ****         }
 165:dmc_controller.c ****         default:
 166:dmc_controller.c ****             return 0;
 1621              		.loc 3 166 0
 1622 0014 0023     		movs	r3, #0
 1623              	.L97:
 167:dmc_controller.c ****     }
 168:dmc_controller.c **** }
 1624              		.loc 3 168 0
 1625 0016 1846     		mov	r0, r3
 1626 0018 0C37     		adds	r7, r7, #12
 1627              		.cfi_def_cfa_offset 4
 1628 001a BD46     		mov	sp, r7
 1629              		.cfi_def_cfa_register 13
 1630              		@ sp needed
 1631 001c 80BC     		pop	{r7}
 1632              		.cfi_restore 7
 1633              		.cfi_def_cfa_offset 0
 1634 001e 7047     		bx	lr
 1635              		.cfi_endproc
 1636              	.LFE84:
 1637              		.size	raise_flag, .-raise_flag
 1638              		.section	.text.handle_packet,"ax",%progbits
 1639              		.align	2
 1640              		.global	handle_packet
 1641              		.thumb
 1642              		.thumb_func
 1643              		.type	handle_packet, %function
 1644              	handle_packet:
 1645              	.LFB85:
 169:dmc_controller.c **** 
 170:dmc_controller.c **** void handle_packet(struct dmc_packet* packet){
 1646              		.loc 3 170 0
 1647              		.cfi_startproc
 1648              		@ args = 0, pretend = 0, frame = 16
 1649              		@ frame_needed = 1, uses_anonymous_args = 0
 1650 0000 90B5     		push	{r4, r7, lr}
 1651              		.cfi_def_cfa_offset 12
 1652              		.cfi_offset 4, -12
 1653              		.cfi_offset 7, -8
 1654              		.cfi_offset 14, -4
 1655 0002 85B0     		sub	sp, sp, #20
ARM GAS  C:\Users\Runeg\AppData\Local\Temp\cci0HMiU.s 			page 41


 1656              		.cfi_def_cfa_offset 32
 1657 0004 00AF     		add	r7, sp, #0
 1658              		.cfi_def_cfa_register 7
 1659 0006 7860     		str	r0, [r7, #4]
 171:dmc_controller.c ****     
 172:dmc_controller.c ****     switch(packet->type)
 1660              		.loc 3 172 0
 1661 0008 7B68     		ldr	r3, [r7, #4]
 1662 000a 1B78     		ldrb	r3, [r3]	@ zero_extendqisi2
 1663 000c B22B     		cmp	r3, #178
 1664 000e 1BD1     		bne	.L100
 1665              	.LBB10:
 173:dmc_controller.c ****     {
 174:dmc_controller.c ****         
 175:dmc_controller.c ****         case DMC_PACKET_FLUID_POUR_REQUESTED:
 176:dmc_controller.c ****         {
 177:dmc_controller.c ****             struct dmc_packet_fluid_pour_requested requested_drink;
 178:dmc_controller.c ****             dmc_packet_unmarshal_fluid_pour_requested(&requested_drink, packet);
 1666              		.loc 3 178 0
 1667 0010 07F10C03 		add	r3, r7, #12
 1668 0014 7968     		ldr	r1, [r7, #4]
 1669 0016 1846     		mov	r0, r3
 1670 0018 FFF7FEFF 		bl	dmc_packet_unmarshal_fluid_pour_requested
 179:dmc_controller.c ****             pump_fluid((enum dmc_pump)requested_drink.container);
 1671              		.loc 3 179 0
 1672 001c 3B7B     		ldrb	r3, [r7, #12]	@ zero_extendqisi2
 1673 001e 1846     		mov	r0, r3
 1674 0020 FFF7FEFF 		bl	pump_fluid
 180:dmc_controller.c ****                      
 181:dmc_controller.c ****             uint16_t timer_period = requested_drink.amount*PERIODS_PR_CL((enum dmc_pump_timer)reque
 1675              		.loc 3 181 0
 1676 0024 7B7B     		ldrb	r3, [r7, #13]	@ zero_extendqisi2
 1677 0026 9CB2     		uxth	r4, r3
 1678 0028 3B7B     		ldrb	r3, [r7, #12]	@ zero_extendqisi2
 1679 002a 1846     		mov	r0, r3
 1680 002c FFF7FEFF 		bl	PERIODS_PR_CL
 1681 0030 0346     		mov	r3, r0
 1682 0032 9BB2     		uxth	r3, r3
 1683 0034 03FB04F3 		mul	r3, r3, r4
 1684 0038 FB81     		strh	r3, [r7, #14]	@ movhi
 182:dmc_controller.c ****             
 183:dmc_controller.c ****             set_period((enum dmc_pump_timer)requested_drink.container, timer_period);
 1685              		.loc 3 183 0
 1686 003a 3B7B     		ldrb	r3, [r7, #12]	@ zero_extendqisi2
 1687 003c FA89     		ldrh	r2, [r7, #14]
 1688 003e 1146     		mov	r1, r2
 1689 0040 1846     		mov	r0, r3
 1690 0042 FFF7FEFF 		bl	set_period
 184:dmc_controller.c ****             break;
 1691              		.loc 3 184 0
 1692 0046 00BF     		nop
 1693              	.L100:
 1694              	.LBE10:
 185:dmc_controller.c ****         }        
 186:dmc_controller.c ****     }
 187:dmc_controller.c ****     
 188:dmc_controller.c ****     dmc_packet_free(packet);
ARM GAS  C:\Users\Runeg\AppData\Local\Temp\cci0HMiU.s 			page 42


 1695              		.loc 3 188 0
 1696 0048 7868     		ldr	r0, [r7, #4]
 1697 004a FFF7FEFF 		bl	dmc_packet_free
 189:dmc_controller.c **** }
 1698              		.loc 3 189 0
 1699 004e 00BF     		nop
 1700 0050 1437     		adds	r7, r7, #20
 1701              		.cfi_def_cfa_offset 12
 1702 0052 BD46     		mov	sp, r7
 1703              		.cfi_def_cfa_register 13
 1704              		@ sp needed
 1705 0054 90BD     		pop	{r4, r7, pc}
 1706              		.cfi_endproc
 1707              	.LFE85:
 1708              		.size	handle_packet, .-handle_packet
 1709 0056 00BF     		.section	.text.handle_timer,"ax",%progbits
 1710              		.align	2
 1711              		.global	handle_timer
 1712              		.thumb
 1713              		.thumb_func
 1714              		.type	handle_timer, %function
 1715              	handle_timer:
 1716              	.LFB86:
 190:dmc_controller.c **** 
 191:dmc_controller.c **** void handle_timer(struct dmc_timer_action* action)
 192:dmc_controller.c **** {
 1717              		.loc 3 192 0
 1718              		.cfi_startproc
 1719              		@ args = 0, pretend = 0, frame = 8
 1720              		@ frame_needed = 1, uses_anonymous_args = 0
 1721 0000 90B5     		push	{r4, r7, lr}
 1722              		.cfi_def_cfa_offset 12
 1723              		.cfi_offset 4, -12
 1724              		.cfi_offset 7, -8
 1725              		.cfi_offset 14, -4
 1726 0002 83B0     		sub	sp, sp, #12
 1727              		.cfi_def_cfa_offset 24
 1728 0004 00AF     		add	r7, sp, #0
 1729              		.cfi_def_cfa_register 7
 1730 0006 7860     		str	r0, [r7, #4]
 193:dmc_controller.c ****     switch (action->type)
 1731              		.loc 3 193 0
 1732 0008 7B68     		ldr	r3, [r7, #4]
 1733 000a 1B78     		ldrb	r3, [r3]	@ zero_extendqisi2
 1734 000c 002B     		cmp	r3, #0
 1735 000e 04D0     		beq	.L104
 1736 0010 012B     		cmp	r3, #1
 1737 0012 13D1     		bne	.L103
 194:dmc_controller.c ****     {
 195:dmc_controller.c ****     case TIMER_ACTION_CHECK_WEIGHT:
 196:dmc_controller.c ****         {
 197:dmc_controller.c ****             do_periodic_weight_check();
 1738              		.loc 3 197 0
 1739 0014 FFF7FEFF 		bl	do_periodic_weight_check
 198:dmc_controller.c ****             break;
 1740              		.loc 3 198 0
 1741 0018 10E0     		b	.L103
ARM GAS  C:\Users\Runeg\AppData\Local\Temp\cci0HMiU.s 			page 43


 1742              	.L104:
 199:dmc_controller.c ****         }
 200:dmc_controller.c ****     case TIMER_ACTION_STOP_PUMP:
 201:dmc_controller.c ****         {
 202:dmc_controller.c ****             stop_pump((enum dmc_pump)action->origin);
 1743              		.loc 3 202 0
 1744 001a 7B68     		ldr	r3, [r7, #4]
 1745 001c 5B78     		ldrb	r3, [r3, #1]	@ zero_extendqisi2
 1746 001e 1846     		mov	r0, r3
 1747 0020 FFF7FEFF 		bl	stop_pump
 203:dmc_controller.c ****             
 204:dmc_controller.c ****             //Make final measurement
 205:dmc_controller.c ****             set_current_weight((enum dmc_weight_number)action->origin);
 1748              		.loc 3 205 0
 1749 0024 7B68     		ldr	r3, [r7, #4]
 1750 0026 5B78     		ldrb	r3, [r3, #1]	@ zero_extendqisi2
 1751 0028 1846     		mov	r0, r3
 1752 002a FFF7FEFF 		bl	set_current_weight
 206:dmc_controller.c ****             current_weight->result = measure_weight_value();
 1753              		.loc 3 206 0
 1754 002e 074B     		ldr	r3, .L106
 1755 0030 1C68     		ldr	r4, [r3]
 1756 0032 FFF7FEFF 		bl	measure_weight_value
 1757 0036 0346     		mov	r3, r0
 1758 0038 6380     		strh	r3, [r4, #2]	@ movhi
 207:dmc_controller.c ****             break;
 1759              		.loc 3 207 0
 1760 003a 00BF     		nop
 1761              	.L103:
 208:dmc_controller.c ****         }
 209:dmc_controller.c ****     }  
 210:dmc_controller.c ****     dmc_timer_action_free(action);
 1762              		.loc 3 210 0
 1763 003c 7868     		ldr	r0, [r7, #4]
 1764 003e FFF7FEFF 		bl	dmc_timer_action_free
 211:dmc_controller.c **** }
 1765              		.loc 3 211 0
 1766 0042 00BF     		nop
 1767 0044 0C37     		adds	r7, r7, #12
 1768              		.cfi_def_cfa_offset 12
 1769 0046 BD46     		mov	sp, r7
 1770              		.cfi_def_cfa_register 13
 1771              		@ sp needed
 1772 0048 90BD     		pop	{r4, r7, pc}
 1773              	.L107:
 1774 004a 00BF     		.align	2
 1775              	.L106:
 1776 004c 00000000 		.word	current_weight
 1777              		.cfi_endproc
 1778              	.LFE86:
 1779              		.size	handle_timer, .-handle_timer
 1780              		.section	.text.main,"ax",%progbits
 1781              		.align	2
 1782              		.global	main
 1783              		.thumb
 1784              		.thumb_func
 1785              		.type	main, %function
ARM GAS  C:\Users\Runeg\AppData\Local\Temp\cci0HMiU.s 			page 44


 1786              	main:
 1787              	.LFB87:
 212:dmc_controller.c **** 
 213:dmc_controller.c **** 
 214:dmc_controller.c **** int main(void)
 215:dmc_controller.c **** {
 1788              		.loc 3 215 0
 1789              		.cfi_startproc
 1790              		@ args = 0, pretend = 0, frame = 8
 1791              		@ frame_needed = 1, uses_anonymous_args = 0
 1792 0000 80B5     		push	{r7, lr}
 1793              		.cfi_def_cfa_offset 8
 1794              		.cfi_offset 7, -8
 1795              		.cfi_offset 14, -4
 1796 0002 82B0     		sub	sp, sp, #8
 1797              		.cfi_def_cfa_offset 16
 1798 0004 00AF     		add	r7, sp, #0
 1799              		.cfi_def_cfa_register 7
 216:dmc_controller.c ****     CyGlobalIntEnable; /* Enable global interrupts. */
 1800              		.loc 3 216 0
 1801              		.syntax unified
 1802              	@ 216 "dmc_controller.c" 1
 1803 0006 62B6     		CPSIE   i
 1804              	@ 0 "" 2
 217:dmc_controller.c **** 
 218:dmc_controller.c ****     init_uart_rpi_simple(); //Initiate uart and ISR
 1805              		.loc 3 218 0
 1806              		.thumb
 1807              		.syntax unified
 1808 0008 FFF7FEFF 		bl	init_uart_rpi_simple
 219:dmc_controller.c ****     
 220:dmc_controller.c ****     init_timers(); //Initaite timer, ISR and start timer
 1809              		.loc 3 220 0
 1810 000c FFF7FEFF 		bl	init_timers
 221:dmc_controller.c ****     
 222:dmc_controller.c ****     weight_init(); //Start ADC and make irst measurement
 1811              		.loc 3 222 0
 1812 0010 FFF7FEFF 		bl	weight_init
 223:dmc_controller.c ****     
 224:dmc_controller.c ****     container_amount_init(); //Send current weights to RPi
 1813              		.loc 3 224 0
 1814 0014 FFF7FEFF 		bl	container_amount_init
 1815              	.L114:
 1816              	.LBB11:
 225:dmc_controller.c ****   
 226:dmc_controller.c ****     for(;;)
 227:dmc_controller.c ****     {
 228:dmc_controller.c ****         struct job current_job;
 229:dmc_controller.c ****         
 230:dmc_controller.c ****         if (job_dequeue(&current_job) != 0) {
 1817              		.loc 3 230 0
 1818 0018 3B46     		mov	r3, r7
 1819 001a 1846     		mov	r0, r3
 1820 001c FFF7FEFF 		bl	job_dequeue
 1821 0020 0346     		mov	r3, r0
 1822 0022 002B     		cmp	r3, #0
 1823 0024 10D1     		bne	.L115
ARM GAS  C:\Users\Runeg\AppData\Local\Temp\cci0HMiU.s 			page 45


 231:dmc_controller.c ****             continue;
 232:dmc_controller.c ****         }
 233:dmc_controller.c ****         switch (current_job.type)
 1824              		.loc 3 233 0
 1825 0026 3B78     		ldrb	r3, [r7]	@ zero_extendqisi2
 1826 0028 012B     		cmp	r3, #1
 1827 002a 02D0     		beq	.L112
 1828 002c 022B     		cmp	r3, #2
 1829 002e 05D0     		beq	.L113
 1830 0030 0BE0     		b	.L110
 1831              	.L112:
 234:dmc_controller.c ****         {
 235:dmc_controller.c ****             case JOB_TYPE_PACKET: //Job sent from uart
 236:dmc_controller.c ****             {
 237:dmc_controller.c ****                 handle_packet((struct dmc_packet*)current_job.data);
 1832              		.loc 3 237 0
 1833 0032 7B68     		ldr	r3, [r7, #4]
 1834 0034 1846     		mov	r0, r3
 1835 0036 FFF7FEFF 		bl	handle_packet
 238:dmc_controller.c ****                 break;
 1836              		.loc 3 238 0
 1837 003a 06E0     		b	.L110
 1838              	.L113:
 239:dmc_controller.c ****             }
 240:dmc_controller.c ****             case JOB_TYPE_TIMER: //Job sent from timer
 241:dmc_controller.c ****             {
 242:dmc_controller.c ****                 handle_timer((struct dmc_timer_action*)current_job.data);
 1839              		.loc 3 242 0
 1840 003c 7B68     		ldr	r3, [r7, #4]
 1841 003e 1846     		mov	r0, r3
 1842 0040 FFF7FEFF 		bl	handle_timer
 243:dmc_controller.c ****                 break;
 1843              		.loc 3 243 0
 1844 0044 00BF     		nop
 1845 0046 00E0     		b	.L110
 1846              	.L115:
 231:dmc_controller.c ****         }
 1847              		.loc 3 231 0
 1848 0048 00BF     		nop
 1849              	.L110:
 1850              	.LBE11:
 244:dmc_controller.c ****             }
 245:dmc_controller.c ****         }
 246:dmc_controller.c ****         
 247:dmc_controller.c ****     }    
 1851              		.loc 3 247 0 discriminator 1
 1852 004a E5E7     		b	.L114
 1853              		.cfi_endproc
 1854              	.LFE87:
 1855              		.size	main, .-main
 1856              		.text
 1857              	.Letext0:
 1858              		.file 4 "c:\\program files (x86)\\cypress\\psoc creator\\4.4\\psoc creator\\import\\gnu\\arm\\5.4.
 1859              		.file 5 "c:\\program files (x86)\\cypress\\psoc creator\\4.4\\psoc creator\\import\\gnu\\arm\\5.4.
 1860              		.file 6 "c:\\program files (x86)\\cypress\\psoc creator\\4.4\\psoc creator\\import\\gnu\\arm\\5.4.
 1861              		.file 7 "dmc_timers.h"
 1862              		.file 8 "dmc_job_queue.h"
ARM GAS  C:\Users\Runeg\AppData\Local\Temp\cci0HMiU.s 			page 46


 1863              		.file 9 "dmc_pump_control.h"
 1864              		.file 10 "dmc_weight.h"
 1865              		.file 11 "Generated_Source\\PSoC5/core_cm3.h"