ARM GAS  C:\Users\Runeg\AppData\Local\Temp\ccgivgb2.s 			page 1


   1              		.syntax unified
   2              		.cpu cortex-m3
   3              		.fpu softvfp
   4              		.eabi_attribute 20, 1
   5              		.eabi_attribute 21, 1
   6              		.eabi_attribute 23, 3
   7              		.eabi_attribute 24, 1
   8              		.eabi_attribute 25, 1
   9              		.eabi_attribute 26, 1
  10              		.eabi_attribute 30, 1
  11              		.eabi_attribute 34, 1
  12              		.eabi_attribute 18, 4
  13              		.thumb
  14              		.syntax unified
  15              		.file	"job_queue.c"
  16              		.text
  17              	.Ltext0:
  18              		.cfi_sections	.debug_frame
  19              		.section	.text.init_queue,"ax",%progbits
  20              		.align	2
  21              		.global	init_queue
  22              		.thumb
  23              		.thumb_func
  24              		.type	init_queue, %function
  25              	init_queue:
  26              	.LFB12:
  27              		.file 1 "job_queue.c"
   1:job_queue.c   **** /* ========================================
   2:job_queue.c   ****  *
   3:job_queue.c   ****  * Copyright YOUR COMPANY, THE YEAR
   4:job_queue.c   ****  * All Rights Reserved
   5:job_queue.c   ****  * UNPUBLISHED, LICENSED SOFTWARE.
   6:job_queue.c   ****  *
   7:job_queue.c   ****  * CONFIDENTIAL AND PROPRIETARY INFORMATION
   8:job_queue.c   ****  * WHICH IS THE PROPERTY OF your company.
   9:job_queue.c   ****  *
  10:job_queue.c   ****  * ========================================
  11:job_queue.c   **** */
  12:job_queue.c   **** 
  13:job_queue.c   **** /* [] END OF FILE */
  14:job_queue.c   **** #include <stdlib.h>
  15:job_queue.c   **** #include "job_queue.h"
  16:job_queue.c   **** 
  17:job_queue.c   **** 
  18:job_queue.c   **** #define MAX_QUEUE_SIZE 10
  19:job_queue.c   **** 
  20:job_queue.c   **** struct queue main_queue;
  21:job_queue.c   **** 
  22:job_queue.c   **** 
  23:job_queue.c   **** 
  24:job_queue.c   **** struct queue{
  25:job_queue.c   ****     struct job* head;
  26:job_queue.c   ****     struct job* next;
  27:job_queue.c   ****     size_t size;
  28:job_queue.c   **** };
  29:job_queue.c   **** 
  30:job_queue.c   **** void init_queue()
ARM GAS  C:\Users\Runeg\AppData\Local\Temp\ccgivgb2.s 			page 2


  31:job_queue.c   **** {  
  28              		.loc 1 31 0
  29              		.cfi_startproc
  30              		@ args = 0, pretend = 0, frame = 0
  31              		@ frame_needed = 0, uses_anonymous_args = 0
  32              		@ link register save eliminated.
  32:job_queue.c   ****   main_queue.size = 0;
  33              		.loc 1 32 0
  34 0000 024B     		ldr	r3, .L2
  35 0002 0022     		movs	r2, #0
  36 0004 9A60     		str	r2, [r3, #8]
  33:job_queue.c   ****   main_queue.head = NULL;
  37              		.loc 1 33 0
  38 0006 1A60     		str	r2, [r3]
  34:job_queue.c   ****   main_queue.next = NULL;
  39              		.loc 1 34 0
  40 0008 5A60     		str	r2, [r3, #4]
  41 000a 7047     		bx	lr
  42              	.L3:
  43              		.align	2
  44              	.L2:
  45 000c 00000000 		.word	main_queue
  46              		.cfi_endproc
  47              	.LFE12:
  48              		.size	init_queue, .-init_queue
  49              		.section	.text.job_enqueue,"ax",%progbits
  50              		.align	2
  51              		.global	job_enqueue
  52              		.thumb
  53              		.thumb_func
  54              		.type	job_enqueue, %function
  55              	job_enqueue:
  56              	.LFB13:
  35:job_queue.c   **** }
  36:job_queue.c   **** 
  37:job_queue.c   **** void job_enqueue(enum job_type type, void* data)
  38:job_queue.c   **** {
  57              		.loc 1 38 0
  58              		.cfi_startproc
  59              		@ args = 0, pretend = 0, frame = 0
  60              		@ frame_needed = 0, uses_anonymous_args = 0
  61              	.LVL0:
  62 0000 38B5     		push	{r3, r4, r5, lr}
  63              		.cfi_def_cfa_offset 16
  64              		.cfi_offset 3, -16
  65              		.cfi_offset 4, -12
  66              		.cfi_offset 5, -8
  67              		.cfi_offset 14, -4
  39:job_queue.c   ****     //If more than MAX_QUEUE_SIZE jobs in queue. Ignore job enqueue.
  40:job_queue.c   ****     if (main_queue.size >= MAX_QUEUE_SIZE)
  68              		.loc 1 40 0
  69 0002 0A4B     		ldr	r3, .L7
  70 0004 9B68     		ldr	r3, [r3, #8]
  71 0006 092B     		cmp	r3, #9
  72 0008 0FD8     		bhi	.L4
  73 000a 0C46     		mov	r4, r1
  74 000c 0546     		mov	r5, r0
ARM GAS  C:\Users\Runeg\AppData\Local\Temp\ccgivgb2.s 			page 3


  41:job_queue.c   ****         return;
  42:job_queue.c   ****     
  43:job_queue.c   ****     struct job* new_job = (struct job*)malloc(sizeof(struct job));
  75              		.loc 1 43 0
  76 000e 0C20     		movs	r0, #12
  77              	.LVL1:
  78 0010 FFF7FEFF 		bl	malloc
  79              	.LVL2:
  44:job_queue.c   ****     new_job->type = type;
  80              		.loc 1 44 0
  81 0014 0570     		strb	r5, [r0]
  45:job_queue.c   ****     new_job->data = data;
  82              		.loc 1 45 0
  83 0016 4460     		str	r4, [r0, #4]
  46:job_queue.c   ****     new_job->next_job = NULL;
  84              		.loc 1 46 0
  85 0018 0023     		movs	r3, #0
  86 001a 8360     		str	r3, [r0, #8]
  47:job_queue.c   ****     
  48:job_queue.c   ****     main_queue.head->next_job = new_job;
  87              		.loc 1 48 0
  88 001c 034B     		ldr	r3, .L7
  89 001e 1A68     		ldr	r2, [r3]
  90 0020 9060     		str	r0, [r2, #8]
  49:job_queue.c   ****     main_queue.head = new_job;
  91              		.loc 1 49 0
  92 0022 1860     		str	r0, [r3]
  50:job_queue.c   ****     main_queue.size++;
  93              		.loc 1 50 0
  94 0024 9A68     		ldr	r2, [r3, #8]
  95 0026 0132     		adds	r2, r2, #1
  96 0028 9A60     		str	r2, [r3, #8]
  97              	.LVL3:
  98              	.L4:
  99 002a 38BD     		pop	{r3, r4, r5, pc}
 100              	.L8:
 101              		.align	2
 102              	.L7:
 103 002c 00000000 		.word	main_queue
 104              		.cfi_endproc
 105              	.LFE13:
 106              		.size	job_enqueue, .-job_enqueue
 107              		.section	.text.job_enqueue_packet,"ax",%progbits
 108              		.align	2
 109              		.global	job_enqueue_packet
 110              		.thumb
 111              		.thumb_func
 112              		.type	job_enqueue_packet, %function
 113              	job_enqueue_packet:
 114              	.LFB14:
  51:job_queue.c   **** }
  52:job_queue.c   **** 
  53:job_queue.c   **** 
  54:job_queue.c   **** void job_enqueue_packet(struct dmc_packet* job_packet){
 115              		.loc 1 54 0
 116              		.cfi_startproc
 117              		@ args = 0, pretend = 0, frame = 0
ARM GAS  C:\Users\Runeg\AppData\Local\Temp\ccgivgb2.s 			page 4


 118              		@ frame_needed = 0, uses_anonymous_args = 0
 119              	.LVL4:
 120 0000 08B5     		push	{r3, lr}
 121              		.cfi_def_cfa_offset 8
 122              		.cfi_offset 3, -8
 123              		.cfi_offset 14, -4
  55:job_queue.c   ****     job_enqueue(JOB_TYPE_PACKET, (void*)job_packet);
 124              		.loc 1 55 0
 125 0002 0146     		mov	r1, r0
 126 0004 0120     		movs	r0, #1
 127              	.LVL5:
 128 0006 FFF7FEFF 		bl	job_enqueue
 129              	.LVL6:
 130 000a 08BD     		pop	{r3, pc}
 131              		.cfi_endproc
 132              	.LFE14:
 133              		.size	job_enqueue_packet, .-job_enqueue_packet
 134              		.section	.text.job_enqueue_timer,"ax",%progbits
 135              		.align	2
 136              		.global	job_enqueue_timer
 137              		.thumb
 138              		.thumb_func
 139              		.type	job_enqueue_timer, %function
 140              	job_enqueue_timer:
 141              	.LFB15:
  56:job_queue.c   ****     return;
  57:job_queue.c   **** }
  58:job_queue.c   **** 
  59:job_queue.c   **** void job_enqueue_timer(void* data){
 142              		.loc 1 59 0
 143              		.cfi_startproc
 144              		@ args = 0, pretend = 0, frame = 0
 145              		@ frame_needed = 0, uses_anonymous_args = 0
 146              	.LVL7:
 147 0000 08B5     		push	{r3, lr}
 148              		.cfi_def_cfa_offset 8
 149              		.cfi_offset 3, -8
 150              		.cfi_offset 14, -4
  60:job_queue.c   ****     job_enqueue(JOB_TYPE_TIMER, data);
 151              		.loc 1 60 0
 152 0002 0146     		mov	r1, r0
 153 0004 0220     		movs	r0, #2
 154              	.LVL8:
 155 0006 FFF7FEFF 		bl	job_enqueue
 156              	.LVL9:
 157 000a 08BD     		pop	{r3, pc}
 158              		.cfi_endproc
 159              	.LFE15:
 160              		.size	job_enqueue_timer, .-job_enqueue_timer
 161              		.section	.text.job_dequeue,"ax",%progbits
 162              		.align	2
 163              		.global	job_dequeue
 164              		.thumb
 165              		.thumb_func
 166              		.type	job_dequeue, %function
 167              	job_dequeue:
 168              	.LFB16:
ARM GAS  C:\Users\Runeg\AppData\Local\Temp\ccgivgb2.s 			page 5


  61:job_queue.c   ****     return;
  62:job_queue.c   **** }
  63:job_queue.c   **** 
  64:job_queue.c   **** struct job* job_dequeue()
  65:job_queue.c   **** {
 169              		.loc 1 65 0
 170              		.cfi_startproc
 171              		@ args = 0, pretend = 0, frame = 0
 172              		@ frame_needed = 0, uses_anonymous_args = 0
 173              		@ link register save eliminated.
  66:job_queue.c   ****     //Check if queue is empty
  67:job_queue.c   ****     if (main_queue.size == 0)
 174              		.loc 1 67 0
 175 0000 054B     		ldr	r3, .L16
 176 0002 9B68     		ldr	r3, [r3, #8]
 177 0004 33B1     		cbz	r3, .L15
  68:job_queue.c   ****         return NULL;
  69:job_queue.c   ****     
  70:job_queue.c   ****     struct job* temp_job = main_queue.next;
 178              		.loc 1 70 0
 179 0006 044A     		ldr	r2, .L16
 180 0008 5068     		ldr	r0, [r2, #4]
 181              	.LVL10:
  71:job_queue.c   ****     main_queue.next = main_queue.next->next_job;
 182              		.loc 1 71 0
 183 000a 8168     		ldr	r1, [r0, #8]
 184 000c 5160     		str	r1, [r2, #4]
  72:job_queue.c   ****     
  73:job_queue.c   ****     main_queue.size--;
 185              		.loc 1 73 0
 186 000e 013B     		subs	r3, r3, #1
 187 0010 9360     		str	r3, [r2, #8]
  74:job_queue.c   ****     return temp_job;    
 188              		.loc 1 74 0
 189 0012 7047     		bx	lr
 190              	.LVL11:
 191              	.L15:
  68:job_queue.c   ****     
 192              		.loc 1 68 0
 193 0014 0020     		movs	r0, #0
  75:job_queue.c   **** }
 194              		.loc 1 75 0
 195 0016 7047     		bx	lr
 196              	.L17:
 197              		.align	2
 198              	.L16:
 199 0018 00000000 		.word	main_queue
 200              		.cfi_endproc
 201              	.LFE16:
 202              		.size	job_dequeue, .-job_dequeue
 203              		.comm	main_queue,12,4
 204              		.text
 205              	.Letext0:
 206              		.file 2 "..\\..\\..\\common\\hw\\include\\base_packet.h"
 207              		.file 3 "job_queue.h"
 208              		.file 4 "c:\\program files (x86)\\cypress\\psoc creator\\4.4\\psoc creator\\import\\gnu\\arm\\5.4.
 209              		.file 5 "c:\\program files (x86)\\cypress\\psoc creator\\4.4\\psoc creator\\import\\gnu\\arm\\5.4.
ARM GAS  C:\Users\Runeg\AppData\Local\Temp\ccgivgb2.s 			page 6

