ARM GAS  C:\Users\Runeg\AppData\Local\Temp\cc9mCJok.s 			page 1


   1              		.syntax unified
   2              		.cpu cortex-m3
   3              		.fpu softvfp
   4              		.eabi_attribute 20, 1
   5              		.eabi_attribute 21, 1
   6              		.eabi_attribute 23, 3
   7              		.eabi_attribute 24, 1
   8              		.eabi_attribute 25, 1
   9              		.eabi_attribute 26, 1
  10              		.eabi_attribute 30, 6
  11              		.eabi_attribute 34, 1
  12              		.eabi_attribute 18, 4
  13              		.thumb
  14              		.syntax unified
  15              		.file	"job_queue_array.c"
  16              		.text
  17              	.Ltext0:
  18              		.cfi_sections	.debug_frame
  19              		.section	.text.dmc_packet_init,"ax",%progbits
  20              		.align	2
  21              		.thumb
  22              		.thumb_func
  23              		.type	dmc_packet_init, %function
  24              	dmc_packet_init:
  25              	.LFB0:
  26              		.file 1 "..\\..\\..\\common\\hw\\include\\base_packet.h"
   1:..\..\..\common\hw\include/base_packet.h **** #ifndef DMC_BASE_PACKET_H
   2:..\..\..\common\hw\include/base_packet.h **** #define DMC_BASE_PACKET_H
   3:..\..\..\common\hw\include/base_packet.h **** 
   4:..\..\..\common\hw\include/base_packet.h **** #ifdef MODULE // Include kernel space memory allocation with kmalloc
   5:..\..\..\common\hw\include/base_packet.h **** #include <linux/slab.h>
   6:..\..\..\common\hw\include/base_packet.h **** #else
   7:..\..\..\common\hw\include/base_packet.h **** #include <stdlib.h>
   8:..\..\..\common\hw\include/base_packet.h **** #endif
   9:..\..\..\common\hw\include/base_packet.h **** 
  10:..\..\..\common\hw\include/base_packet.h **** /**
  11:..\..\..\common\hw\include/base_packet.h ****  * @brief Type of packet. (MAYBE: MSB is required to be 1 as this signals a
  12:..\..\..\common\hw\include/base_packet.h ****  * header byte)
  13:..\..\..\common\hw\include/base_packet.h ****  */
  14:..\..\..\common\hw\include/base_packet.h **** enum dmc_packet_type
  15:..\..\..\common\hw\include/base_packet.h **** {
  16:..\..\..\common\hw\include/base_packet.h ****   DMC_PACKET_OUT_OF_ORDER              = 0b10000001,
  17:..\..\..\common\hw\include/base_packet.h ****   DMC_PACKET_CONTAINER_VOLUME_MEASURED = 0b10010010,
  18:..\..\..\common\hw\include/base_packet.h ****   DMC_PACKET_USER_CONFIRM              = 0b10100000,
  19:..\..\..\common\hw\include/base_packet.h ****   DMC_PACKET_FLUID_POUR_REQUESTED      = 0b10110010,
  20:..\..\..\common\hw\include/base_packet.h ****   DMC_PACKET_DEBUG                     = 0b11000010,
  21:..\..\..\common\hw\include/base_packet.h ****   DMC_PACKET_MACHINE_OK                = 0b11010000,
  22:..\..\..\common\hw\include/base_packet.h **** };
  23:..\..\..\common\hw\include/base_packet.h **** 
  24:..\..\..\common\hw\include/base_packet.h **** struct dmc_packet
  25:..\..\..\common\hw\include/base_packet.h **** {
  26:..\..\..\common\hw\include/base_packet.h ****   /**
  27:..\..\..\common\hw\include/base_packet.h ****    * @brief Type of packet. This is the first byte received.
  28:..\..\..\common\hw\include/base_packet.h ****    */
  29:..\..\..\common\hw\include/base_packet.h ****   enum dmc_packet_type type;
  30:..\..\..\common\hw\include/base_packet.h **** 
  31:..\..\..\common\hw\include/base_packet.h ****   /**
ARM GAS  C:\Users\Runeg\AppData\Local\Temp\cc9mCJok.s 			page 2


  32:..\..\..\common\hw\include/base_packet.h ****    * @brief Data payload of packet
  33:..\..\..\common\hw\include/base_packet.h ****    */
  34:..\..\..\common\hw\include/base_packet.h ****   char *data;
  35:..\..\..\common\hw\include/base_packet.h **** 
  36:..\..\..\common\hw\include/base_packet.h ****   /**
  37:..\..\..\common\hw\include/base_packet.h ****    * @brief Length of payload in bytes.
  38:..\..\..\common\hw\include/base_packet.h ****    */
  39:..\..\..\common\hw\include/base_packet.h ****   size_t data_len;
  40:..\..\..\common\hw\include/base_packet.h **** };
  41:..\..\..\common\hw\include/base_packet.h **** 
  42:..\..\..\common\hw\include/base_packet.h **** /**
  43:..\..\..\common\hw\include/base_packet.h ****  * @brief Allocates and initializes a packet with a type. Primarily
  44:..\..\..\common\hw\include/base_packet.h ****  * used when starting to read data from a given source.
  45:..\..\..\common\hw\include/base_packet.h ****  */
  46:..\..\..\common\hw\include/base_packet.h **** static struct dmc_packet *dmc_packet_init(enum dmc_packet_type type)
  47:..\..\..\common\hw\include/base_packet.h **** {
  27              		.loc 1 47 0
  28              		.cfi_startproc
  29              		@ args = 0, pretend = 0, frame = 16
  30              		@ frame_needed = 1, uses_anonymous_args = 0
  31 0000 80B5     		push	{r7, lr}
  32              		.cfi_def_cfa_offset 8
  33              		.cfi_offset 7, -8
  34              		.cfi_offset 14, -4
  35 0002 84B0     		sub	sp, sp, #16
  36              		.cfi_def_cfa_offset 24
  37 0004 00AF     		add	r7, sp, #0
  38              		.cfi_def_cfa_register 7
  39 0006 0346     		mov	r3, r0
  40 0008 FB71     		strb	r3, [r7, #7]
  48:..\..\..\common\hw\include/base_packet.h ****   unsigned char data_bytes = type & 0b00001111;
  41              		.loc 1 48 0
  42 000a FB79     		ldrb	r3, [r7, #7]
  43 000c 03F00F03 		and	r3, r3, #15
  44 0010 FB73     		strb	r3, [r7, #15]
  49:..\..\..\common\hw\include/base_packet.h **** 
  50:..\..\..\common\hw\include/base_packet.h ****   // Allocate and initialize packet with default values
  51:..\..\..\common\hw\include/base_packet.h ****   struct dmc_packet *packet;
  52:..\..\..\common\hw\include/base_packet.h **** #ifdef MODULE // Differeniate between kernel and use space allocations
  53:..\..\..\common\hw\include/base_packet.h ****   packet = (struct dmc_packet *)kmalloc(sizeof(struct dmc_packet), GFP_KERNEL);
  54:..\..\..\common\hw\include/base_packet.h **** #else
  55:..\..\..\common\hw\include/base_packet.h ****   packet = (struct dmc_packet *)malloc(sizeof(struct dmc_packet));
  45              		.loc 1 55 0
  46 0012 0C20     		movs	r0, #12
  47 0014 FFF7FEFF 		bl	malloc
  48 0018 0346     		mov	r3, r0
  49 001a BB60     		str	r3, [r7, #8]
  56:..\..\..\common\hw\include/base_packet.h **** #endif
  57:..\..\..\common\hw\include/base_packet.h ****   packet->type     = type;
  50              		.loc 1 57 0
  51 001c BB68     		ldr	r3, [r7, #8]
  52 001e FA79     		ldrb	r2, [r7, #7]
  53 0020 1A70     		strb	r2, [r3]
  58:..\..\..\common\hw\include/base_packet.h ****   packet->data_len = 0;
  54              		.loc 1 58 0
  55 0022 BB68     		ldr	r3, [r7, #8]
  56 0024 0022     		movs	r2, #0
ARM GAS  C:\Users\Runeg\AppData\Local\Temp\cc9mCJok.s 			page 3


  57 0026 9A60     		str	r2, [r3, #8]
  59:..\..\..\common\hw\include/base_packet.h ****   packet->data     = NULL;
  58              		.loc 1 59 0
  59 0028 BB68     		ldr	r3, [r7, #8]
  60 002a 0022     		movs	r2, #0
  61 002c 5A60     		str	r2, [r3, #4]
  60:..\..\..\common\hw\include/base_packet.h **** 
  61:..\..\..\common\hw\include/base_packet.h ****   // Allocate packet data if needed
  62:..\..\..\common\hw\include/base_packet.h ****   if (data_bytes > 0)
  62              		.loc 1 62 0
  63 002e FB7B     		ldrb	r3, [r7, #15]	@ zero_extendqisi2
  64 0030 002B     		cmp	r3, #0
  65 0032 07D0     		beq	.L2
  63:..\..\..\common\hw\include/base_packet.h ****   {
  64:..\..\..\common\hw\include/base_packet.h **** #ifdef MODULE // Differeniate between kernel and use space allocations
  65:..\..\..\common\hw\include/base_packet.h ****     packet->data = (char *)kmalloc(sizeof(char) * data_bytes, GFP_KERNEL);
  66:..\..\..\common\hw\include/base_packet.h **** #else
  67:..\..\..\common\hw\include/base_packet.h ****     packet->data = (char *)malloc(sizeof(char) * data_bytes);
  66              		.loc 1 67 0
  67 0034 FB7B     		ldrb	r3, [r7, #15]	@ zero_extendqisi2
  68 0036 1846     		mov	r0, r3
  69 0038 FFF7FEFF 		bl	malloc
  70 003c 0346     		mov	r3, r0
  71 003e 1A46     		mov	r2, r3
  72 0040 BB68     		ldr	r3, [r7, #8]
  73 0042 5A60     		str	r2, [r3, #4]
  74              	.L2:
  68:..\..\..\common\hw\include/base_packet.h **** #endif
  69:..\..\..\common\hw\include/base_packet.h ****   }
  70:..\..\..\common\hw\include/base_packet.h **** 
  71:..\..\..\common\hw\include/base_packet.h ****   return packet;
  75              		.loc 1 71 0
  76 0044 BB68     		ldr	r3, [r7, #8]
  72:..\..\..\common\hw\include/base_packet.h **** }
  77              		.loc 1 72 0
  78 0046 1846     		mov	r0, r3
  79 0048 1037     		adds	r7, r7, #16
  80              		.cfi_def_cfa_offset 8
  81 004a BD46     		mov	sp, r7
  82              		.cfi_def_cfa_register 13
  83              		@ sp needed
  84 004c 80BD     		pop	{r7, pc}
  85              		.cfi_endproc
  86              	.LFE0:
  87              		.size	dmc_packet_init, .-dmc_packet_init
  88 004e 00BF     		.section	.text.dmc_packet_free,"ax",%progbits
  89              		.align	2
  90              		.thumb
  91              		.thumb_func
  92              		.type	dmc_packet_free, %function
  93              	dmc_packet_free:
  94              	.LFB1:
  73:..\..\..\common\hw\include/base_packet.h **** 
  74:..\..\..\common\hw\include/base_packet.h **** /**
  75:..\..\..\common\hw\include/base_packet.h ****  * @brief De-allocate packet and its data
  76:..\..\..\common\hw\include/base_packet.h ****  */
  77:..\..\..\common\hw\include/base_packet.h **** static void dmc_packet_free(struct dmc_packet *packet)
ARM GAS  C:\Users\Runeg\AppData\Local\Temp\cc9mCJok.s 			page 4


  78:..\..\..\common\hw\include/base_packet.h **** {
  95              		.loc 1 78 0
  96              		.cfi_startproc
  97              		@ args = 0, pretend = 0, frame = 8
  98              		@ frame_needed = 1, uses_anonymous_args = 0
  99 0000 80B5     		push	{r7, lr}
 100              		.cfi_def_cfa_offset 8
 101              		.cfi_offset 7, -8
 102              		.cfi_offset 14, -4
 103 0002 82B0     		sub	sp, sp, #8
 104              		.cfi_def_cfa_offset 16
 105 0004 00AF     		add	r7, sp, #0
 106              		.cfi_def_cfa_register 7
 107 0006 7860     		str	r0, [r7, #4]
  79:..\..\..\common\hw\include/base_packet.h **** #ifdef MODULE // Differeniate between kernel and use space de-allocations
  80:..\..\..\common\hw\include/base_packet.h ****   kfree((void *)packet->data);
  81:..\..\..\common\hw\include/base_packet.h ****   kfree((void *)packet);
  82:..\..\..\common\hw\include/base_packet.h **** #else
  83:..\..\..\common\hw\include/base_packet.h ****   free((void *)packet->data);
 108              		.loc 1 83 0
 109 0008 7B68     		ldr	r3, [r7, #4]
 110 000a 5B68     		ldr	r3, [r3, #4]
 111 000c 1846     		mov	r0, r3
 112 000e FFF7FEFF 		bl	free
  84:..\..\..\common\hw\include/base_packet.h ****   free((void *)packet);
 113              		.loc 1 84 0
 114 0012 7868     		ldr	r0, [r7, #4]
 115 0014 FFF7FEFF 		bl	free
  85:..\..\..\common\hw\include/base_packet.h **** #endif
  86:..\..\..\common\hw\include/base_packet.h **** }
 116              		.loc 1 86 0
 117 0018 00BF     		nop
 118 001a 0837     		adds	r7, r7, #8
 119              		.cfi_def_cfa_offset 8
 120 001c BD46     		mov	sp, r7
 121              		.cfi_def_cfa_register 13
 122              		@ sp needed
 123 001e 80BD     		pop	{r7, pc}
 124              		.cfi_endproc
 125              	.LFE1:
 126              		.size	dmc_packet_free, .-dmc_packet_free
 127              		.section	.text.dmc_packet_complete,"ax",%progbits
 128              		.align	2
 129              		.thumb
 130              		.thumb_func
 131              		.type	dmc_packet_complete, %function
 132              	dmc_packet_complete:
 133              	.LFB2:
  87:..\..\..\common\hw\include/base_packet.h **** 
  88:..\..\..\common\hw\include/base_packet.h **** /**
  89:..\..\..\common\hw\include/base_packet.h ****  * @brief Checks if a packet is fully complete, in the sense that all intended
  90:..\..\..\common\hw\include/base_packet.h ****  * data is received
  91:..\..\..\common\hw\include/base_packet.h ****  * @returns True, if packet is complete.
  92:..\..\..\common\hw\include/base_packet.h ****  */
  93:..\..\..\common\hw\include/base_packet.h **** static unsigned char dmc_packet_complete(struct dmc_packet *packet)
  94:..\..\..\common\hw\include/base_packet.h **** {
 134              		.loc 1 94 0
ARM GAS  C:\Users\Runeg\AppData\Local\Temp\cc9mCJok.s 			page 5


 135              		.cfi_startproc
 136              		@ args = 0, pretend = 0, frame = 16
 137              		@ frame_needed = 1, uses_anonymous_args = 0
 138              		@ link register save eliminated.
 139 0000 80B4     		push	{r7}
 140              		.cfi_def_cfa_offset 4
 141              		.cfi_offset 7, -4
 142 0002 85B0     		sub	sp, sp, #20
 143              		.cfi_def_cfa_offset 24
 144 0004 00AF     		add	r7, sp, #0
 145              		.cfi_def_cfa_register 7
 146 0006 7860     		str	r0, [r7, #4]
  95:..\..\..\common\hw\include/base_packet.h ****   unsigned char data_bytes = packet->type & 0b00001111;
 147              		.loc 1 95 0
 148 0008 7B68     		ldr	r3, [r7, #4]
 149 000a 1B78     		ldrb	r3, [r3]	@ zero_extendqisi2
 150 000c 03F00F03 		and	r3, r3, #15
 151 0010 FB73     		strb	r3, [r7, #15]
  96:..\..\..\common\hw\include/base_packet.h ****   return data_bytes == packet->data_len;
 152              		.loc 1 96 0
 153 0012 FA7B     		ldrb	r2, [r7, #15]	@ zero_extendqisi2
 154 0014 7B68     		ldr	r3, [r7, #4]
 155 0016 9B68     		ldr	r3, [r3, #8]
 156 0018 9A42     		cmp	r2, r3
 157 001a 0CBF     		ite	eq
 158 001c 0123     		moveq	r3, #1
 159 001e 0023     		movne	r3, #0
 160 0020 DBB2     		uxtb	r3, r3
  97:..\..\..\common\hw\include/base_packet.h **** }
 161              		.loc 1 97 0
 162 0022 1846     		mov	r0, r3
 163 0024 1437     		adds	r7, r7, #20
 164              		.cfi_def_cfa_offset 4
 165 0026 BD46     		mov	sp, r7
 166              		.cfi_def_cfa_register 13
 167              		@ sp needed
 168 0028 80BC     		pop	{r7}
 169              		.cfi_restore 7
 170              		.cfi_def_cfa_offset 0
 171 002a 7047     		bx	lr
 172              		.cfi_endproc
 173              	.LFE2:
 174              		.size	dmc_packet_complete, .-dmc_packet_complete
 175              		.section	.text.dmc_packet_append_byte,"ax",%progbits
 176              		.align	2
 177              		.thumb
 178              		.thumb_func
 179              		.type	dmc_packet_append_byte, %function
 180              	dmc_packet_append_byte:
 181              	.LFB3:
  98:..\..\..\common\hw\include/base_packet.h **** 
  99:..\..\..\common\hw\include/base_packet.h **** /**
 100:..\..\..\common\hw\include/base_packet.h ****  * @brief Appends data byte to packet payload.
 101:..\..\..\common\hw\include/base_packet.h ****  * @returns 0 if successful, 1 if payload is already at capacity.
 102:..\..\..\common\hw\include/base_packet.h ****  */
 103:..\..\..\common\hw\include/base_packet.h **** static unsigned char dmc_packet_append_byte(struct dmc_packet *packet,
 104:..\..\..\common\hw\include/base_packet.h ****                                             unsigned char      data)
ARM GAS  C:\Users\Runeg\AppData\Local\Temp\cc9mCJok.s 			page 6


 105:..\..\..\common\hw\include/base_packet.h **** {
 182              		.loc 1 105 0
 183              		.cfi_startproc
 184              		@ args = 0, pretend = 0, frame = 16
 185              		@ frame_needed = 1, uses_anonymous_args = 0
 186              		@ link register save eliminated.
 187 0000 80B4     		push	{r7}
 188              		.cfi_def_cfa_offset 4
 189              		.cfi_offset 7, -4
 190 0002 85B0     		sub	sp, sp, #20
 191              		.cfi_def_cfa_offset 24
 192 0004 00AF     		add	r7, sp, #0
 193              		.cfi_def_cfa_register 7
 194 0006 7860     		str	r0, [r7, #4]
 195 0008 0B46     		mov	r3, r1
 196 000a FB70     		strb	r3, [r7, #3]
 106:..\..\..\common\hw\include/base_packet.h ****   unsigned char data_bytes = packet->type & 0b00001111;
 197              		.loc 1 106 0
 198 000c 7B68     		ldr	r3, [r7, #4]
 199 000e 1B78     		ldrb	r3, [r3]	@ zero_extendqisi2
 200 0010 03F00F03 		and	r3, r3, #15
 201 0014 FB73     		strb	r3, [r7, #15]
 107:..\..\..\common\hw\include/base_packet.h ****   if (data_bytes == packet->data_len)
 202              		.loc 1 107 0
 203 0016 FA7B     		ldrb	r2, [r7, #15]	@ zero_extendqisi2
 204 0018 7B68     		ldr	r3, [r7, #4]
 205 001a 9B68     		ldr	r3, [r3, #8]
 206 001c 9A42     		cmp	r2, r3
 207 001e 01D1     		bne	.L8
 108:..\..\..\common\hw\include/base_packet.h ****   {
 109:..\..\..\common\hw\include/base_packet.h ****     return 1;
 208              		.loc 1 109 0
 209 0020 0123     		movs	r3, #1
 210 0022 0AE0     		b	.L9
 211              	.L8:
 110:..\..\..\common\hw\include/base_packet.h ****   }
 111:..\..\..\common\hw\include/base_packet.h **** 
 112:..\..\..\common\hw\include/base_packet.h ****   packet->data[packet->data_len++] = data;
 212              		.loc 1 112 0
 213 0024 7B68     		ldr	r3, [r7, #4]
 214 0026 5A68     		ldr	r2, [r3, #4]
 215 0028 7B68     		ldr	r3, [r7, #4]
 216 002a 9B68     		ldr	r3, [r3, #8]
 217 002c 581C     		adds	r0, r3, #1
 218 002e 7968     		ldr	r1, [r7, #4]
 219 0030 8860     		str	r0, [r1, #8]
 220 0032 1344     		add	r3, r3, r2
 221 0034 FA78     		ldrb	r2, [r7, #3]
 222 0036 1A70     		strb	r2, [r3]
 113:..\..\..\common\hw\include/base_packet.h ****   return 0;
 223              		.loc 1 113 0
 224 0038 0023     		movs	r3, #0
 225              	.L9:
 114:..\..\..\common\hw\include/base_packet.h **** }
 226              		.loc 1 114 0
 227 003a 1846     		mov	r0, r3
 228 003c 1437     		adds	r7, r7, #20
ARM GAS  C:\Users\Runeg\AppData\Local\Temp\cc9mCJok.s 			page 7


 229              		.cfi_def_cfa_offset 4
 230 003e BD46     		mov	sp, r7
 231              		.cfi_def_cfa_register 13
 232              		@ sp needed
 233 0040 80BC     		pop	{r7}
 234              		.cfi_restore 7
 235              		.cfi_def_cfa_offset 0
 236 0042 7047     		bx	lr
 237              		.cfi_endproc
 238              	.LFE3:
 239              		.size	dmc_packet_append_byte, .-dmc_packet_append_byte
 240              		.section	.text.dmc_packet_unmarshal_out_of_order,"ax",%progbits
 241              		.align	2
 242              		.thumb
 243              		.thumb_func
 244              		.type	dmc_packet_unmarshal_out_of_order, %function
 245              	dmc_packet_unmarshal_out_of_order:
 246              	.LFB4:
 247              		.file 2 "..\\..\\..\\common\\hw\\include\\packet.h"
   1:..\..\..\common\hw\include/packet.h **** #ifndef DMC_PACKET_H
   2:..\..\..\common\hw\include/packet.h **** #define DMC_PACKET_H
   3:..\..\..\common\hw\include/packet.h **** 
   4:..\..\..\common\hw\include/packet.h **** #include "base_packet.h"
   5:..\..\..\common\hw\include/packet.h **** 
   6:..\..\..\common\hw\include/packet.h **** #ifdef MODULE
   7:..\..\..\common\hw\include/packet.h **** #include <linux/types.h>
   8:..\..\..\common\hw\include/packet.h **** #else
   9:..\..\..\common\hw\include/packet.h **** #include <stdint.h>
  10:..\..\..\common\hw\include/packet.h **** #endif
  11:..\..\..\common\hw\include/packet.h **** 
  12:..\..\..\common\hw\include/packet.h **** /**
  13:..\..\..\common\hw\include/packet.h ****  * @brief Reason codes for why the machine is out of order
  14:..\..\..\common\hw\include/packet.h ****  */
  15:..\..\..\common\hw\include/packet.h **** enum dmc_packet_out_of_order_reason
  16:..\..\..\common\hw\include/packet.h **** {
  17:..\..\..\common\hw\include/packet.h ****   /**
  18:..\..\..\common\hw\include/packet.h ****    * @brief An unknown error has occured
  19:..\..\..\common\hw\include/packet.h ****    */
  20:..\..\..\common\hw\include/packet.h ****   DMC_PACKET_OUT_OF_ORDER_REASON_UNKNOWN = 0,
  21:..\..\..\common\hw\include/packet.h **** 
  22:..\..\..\common\hw\include/packet.h ****   /**
  23:..\..\..\common\hw\include/packet.h ****    * @brief The machine detected that a fluid container 1
  24:..\..\..\common\hw\include/packet.h ****    * was removed from the machine
  25:..\..\..\common\hw\include/packet.h ****    */
  26:..\..\..\common\hw\include/packet.h ****   DMC_PACKET_OUT_OF_ORDER_REASON_FLUID_CONTAINER_1_REMOVED = 1,
  27:..\..\..\common\hw\include/packet.h **** 
  28:..\..\..\common\hw\include/packet.h ****   /**
  29:..\..\..\common\hw\include/packet.h ****    * @brief The machine detected that a fluid container 2
  30:..\..\..\common\hw\include/packet.h ****    * was removed from the machine
  31:..\..\..\common\hw\include/packet.h ****    */
  32:..\..\..\common\hw\include/packet.h ****   DMC_PACKET_OUT_OF_ORDER_REASON_FLUID_CONTAINER_2_REMOVED = 2,
  33:..\..\..\common\hw\include/packet.h **** 
  34:..\..\..\common\hw\include/packet.h ****   /**
  35:..\..\..\common\hw\include/packet.h ****    * @brief The machine detected that a fluid container 3
  36:..\..\..\common\hw\include/packet.h ****    * was removed from the machine
  37:..\..\..\common\hw\include/packet.h ****    */
  38:..\..\..\common\hw\include/packet.h ****   DMC_PACKET_OUT_OF_ORDER_REASON_FLUID_CONTAINER_3_REMOVED = 3,
ARM GAS  C:\Users\Runeg\AppData\Local\Temp\cc9mCJok.s 			page 8


  39:..\..\..\common\hw\include/packet.h **** };
  40:..\..\..\common\hw\include/packet.h **** 
  41:..\..\..\common\hw\include/packet.h **** /**
  42:..\..\..\common\hw\include/packet.h ****  * @brief Packet declaring machine is out of order with a reason code. So errors
  43:..\..\..\common\hw\include/packet.h ****  * can be viewed on the touch screen UI.
  44:..\..\..\common\hw\include/packet.h ****  *
  45:..\..\..\common\hw\include/packet.h ****  * Direction: PSoC -> RPi
  46:..\..\..\common\hw\include/packet.h ****  */
  47:..\..\..\common\hw\include/packet.h **** struct dmc_packet_out_of_order
  48:..\..\..\common\hw\include/packet.h **** {
  49:..\..\..\common\hw\include/packet.h ****   /**
  50:..\..\..\common\hw\include/packet.h ****    * @brief The reason code for the machine to be out of order. See enum
  51:..\..\..\common\hw\include/packet.h ****    * dmc_packet_out_of_order_reason for what the codes mean
  52:..\..\..\common\hw\include/packet.h ****    */
  53:..\..\..\common\hw\include/packet.h ****   enum dmc_packet_out_of_order_reason reason;
  54:..\..\..\common\hw\include/packet.h **** };
  55:..\..\..\common\hw\include/packet.h **** 
  56:..\..\..\common\hw\include/packet.h **** /**
  57:..\..\..\common\hw\include/packet.h ****  * @brief Unmarshal data into out of order packet from base packet
  58:..\..\..\common\hw\include/packet.h ****  */
  59:..\..\..\common\hw\include/packet.h **** static int
  60:..\..\..\common\hw\include/packet.h **** dmc_packet_unmarshal_out_of_order(struct dmc_packet_out_of_order *packet,
  61:..\..\..\common\hw\include/packet.h ****                                   struct dmc_packet              *from)
  62:..\..\..\common\hw\include/packet.h **** {
 248              		.loc 2 62 0
 249              		.cfi_startproc
 250              		@ args = 0, pretend = 0, frame = 16
 251              		@ frame_needed = 1, uses_anonymous_args = 0
 252              		@ link register save eliminated.
 253 0000 80B4     		push	{r7}
 254              		.cfi_def_cfa_offset 4
 255              		.cfi_offset 7, -4
 256 0002 85B0     		sub	sp, sp, #20
 257              		.cfi_def_cfa_offset 24
 258 0004 00AF     		add	r7, sp, #0
 259              		.cfi_def_cfa_register 7
 260 0006 7860     		str	r0, [r7, #4]
 261 0008 3960     		str	r1, [r7]
  63:..\..\..\common\hw\include/packet.h ****   if (from->type != DMC_PACKET_OUT_OF_ORDER)
 262              		.loc 2 63 0
 263 000a 3B68     		ldr	r3, [r7]
 264 000c 1B78     		ldrb	r3, [r3]	@ zero_extendqisi2
 265 000e 812B     		cmp	r3, #129
 266 0010 02D0     		beq	.L11
  64:..\..\..\common\hw\include/packet.h ****   {
  65:..\..\..\common\hw\include/packet.h ****     return -1;
 267              		.loc 2 65 0
 268 0012 4FF0FF33 		mov	r3, #-1
 269 0016 09E0     		b	.L12
 270              	.L11:
  66:..\..\..\common\hw\include/packet.h ****   }
  67:..\..\..\common\hw\include/packet.h **** 
  68:..\..\..\common\hw\include/packet.h ****   uint8_t offset = 0;
 271              		.loc 2 68 0
 272 0018 0023     		movs	r3, #0
 273 001a FB73     		strb	r3, [r7, #15]
  69:..\..\..\common\hw\include/packet.h ****   packet->reason = *(uint8_t *)(from->data + offset);
ARM GAS  C:\Users\Runeg\AppData\Local\Temp\cc9mCJok.s 			page 9


 274              		.loc 2 69 0
 275 001c 3B68     		ldr	r3, [r7]
 276 001e 5A68     		ldr	r2, [r3, #4]
 277 0020 FB7B     		ldrb	r3, [r7, #15]	@ zero_extendqisi2
 278 0022 1344     		add	r3, r3, r2
 279 0024 1A78     		ldrb	r2, [r3]	@ zero_extendqisi2
 280 0026 7B68     		ldr	r3, [r7, #4]
 281 0028 1A70     		strb	r2, [r3]
  70:..\..\..\common\hw\include/packet.h **** 
  71:..\..\..\common\hw\include/packet.h ****   return 0;
 282              		.loc 2 71 0
 283 002a 0023     		movs	r3, #0
 284              	.L12:
  72:..\..\..\common\hw\include/packet.h **** }
 285              		.loc 2 72 0
 286 002c 1846     		mov	r0, r3
 287 002e 1437     		adds	r7, r7, #20
 288              		.cfi_def_cfa_offset 4
 289 0030 BD46     		mov	sp, r7
 290              		.cfi_def_cfa_register 13
 291              		@ sp needed
 292 0032 80BC     		pop	{r7}
 293              		.cfi_restore 7
 294              		.cfi_def_cfa_offset 0
 295 0034 7047     		bx	lr
 296              		.cfi_endproc
 297              	.LFE4:
 298              		.size	dmc_packet_unmarshal_out_of_order, .-dmc_packet_unmarshal_out_of_order
 299 0036 00BF     		.section	.text.dmc_packet_marshal_out_of_order,"ax",%progbits
 300              		.align	2
 301              		.thumb
 302              		.thumb_func
 303              		.type	dmc_packet_marshal_out_of_order, %function
 304              	dmc_packet_marshal_out_of_order:
 305              	.LFB5:
  73:..\..\..\common\hw\include/packet.h **** 
  74:..\..\..\common\hw\include/packet.h **** /**
  75:..\..\..\common\hw\include/packet.h ****  * @brief Marshal out of order packet struct into base packet
  76:..\..\..\common\hw\include/packet.h ****  */
  77:..\..\..\common\hw\include/packet.h **** static int
  78:..\..\..\common\hw\include/packet.h **** dmc_packet_marshal_out_of_order(struct dmc_packet             **to,
  79:..\..\..\common\hw\include/packet.h ****                                 struct dmc_packet_out_of_order *packet)
  80:..\..\..\common\hw\include/packet.h **** {
 306              		.loc 2 80 0
 307              		.cfi_startproc
 308              		@ args = 0, pretend = 0, frame = 16
 309              		@ frame_needed = 1, uses_anonymous_args = 0
 310 0000 80B5     		push	{r7, lr}
 311              		.cfi_def_cfa_offset 8
 312              		.cfi_offset 7, -8
 313              		.cfi_offset 14, -4
 314 0002 84B0     		sub	sp, sp, #16
 315              		.cfi_def_cfa_offset 24
 316 0004 00AF     		add	r7, sp, #0
 317              		.cfi_def_cfa_register 7
 318 0006 7860     		str	r0, [r7, #4]
 319 0008 3960     		str	r1, [r7]
ARM GAS  C:\Users\Runeg\AppData\Local\Temp\cc9mCJok.s 			page 10


  81:..\..\..\common\hw\include/packet.h ****   if (to == NULL)
 320              		.loc 2 81 0
 321 000a 7B68     		ldr	r3, [r7, #4]
 322 000c 002B     		cmp	r3, #0
 323 000e 02D1     		bne	.L14
  82:..\..\..\common\hw\include/packet.h ****   {
  83:..\..\..\common\hw\include/packet.h ****     // Pointer to the pointer must not be null
  84:..\..\..\common\hw\include/packet.h ****     return -1;
 324              		.loc 2 84 0
 325 0010 4FF0FF33 		mov	r3, #-1
 326 0014 20E0     		b	.L15
 327              	.L14:
  85:..\..\..\common\hw\include/packet.h ****   }
  86:..\..\..\common\hw\include/packet.h ****   if (*to == NULL)
 328              		.loc 2 86 0
 329 0016 7B68     		ldr	r3, [r7, #4]
 330 0018 1B68     		ldr	r3, [r3]
 331 001a 002B     		cmp	r3, #0
 332 001c 05D1     		bne	.L16
  87:..\..\..\common\hw\include/packet.h ****   {
  88:..\..\..\common\hw\include/packet.h ****     *to = dmc_packet_init(DMC_PACKET_OUT_OF_ORDER);
 333              		.loc 2 88 0
 334 001e 8120     		movs	r0, #129
 335 0020 FFF7FEFF 		bl	dmc_packet_init
 336 0024 0246     		mov	r2, r0
 337 0026 7B68     		ldr	r3, [r7, #4]
 338 0028 1A60     		str	r2, [r3]
 339              	.L16:
  89:..\..\..\common\hw\include/packet.h ****   }
  90:..\..\..\common\hw\include/packet.h ****   if ((*to)->type != DMC_PACKET_OUT_OF_ORDER)
 340              		.loc 2 90 0
 341 002a 7B68     		ldr	r3, [r7, #4]
 342 002c 1B68     		ldr	r3, [r3]
 343 002e 1B78     		ldrb	r3, [r3]	@ zero_extendqisi2
 344 0030 812B     		cmp	r3, #129
 345 0032 02D0     		beq	.L17
  91:..\..\..\common\hw\include/packet.h ****   {
  92:..\..\..\common\hw\include/packet.h ****     return -2;
 346              		.loc 2 92 0
 347 0034 6FF00103 		mvn	r3, #1
 348 0038 0EE0     		b	.L15
 349              	.L17:
  93:..\..\..\common\hw\include/packet.h ****   }
  94:..\..\..\common\hw\include/packet.h **** 
  95:..\..\..\common\hw\include/packet.h ****   uint8_t offset                     = 0;
 350              		.loc 2 95 0
 351 003a 0023     		movs	r3, #0
 352 003c FB73     		strb	r3, [r7, #15]
  96:..\..\..\common\hw\include/packet.h ****   *(uint8_t *)((*to)->data + offset) = packet->reason;
 353              		.loc 2 96 0
 354 003e 7B68     		ldr	r3, [r7, #4]
 355 0040 1B68     		ldr	r3, [r3]
 356 0042 5A68     		ldr	r2, [r3, #4]
 357 0044 FB7B     		ldrb	r3, [r7, #15]	@ zero_extendqisi2
 358 0046 1344     		add	r3, r3, r2
 359 0048 3A68     		ldr	r2, [r7]
 360 004a 1278     		ldrb	r2, [r2]	@ zero_extendqisi2
ARM GAS  C:\Users\Runeg\AppData\Local\Temp\cc9mCJok.s 			page 11


 361 004c 1A70     		strb	r2, [r3]
  97:..\..\..\common\hw\include/packet.h **** 
  98:..\..\..\common\hw\include/packet.h ****   (*to)->data_len = 1;
 362              		.loc 2 98 0
 363 004e 7B68     		ldr	r3, [r7, #4]
 364 0050 1B68     		ldr	r3, [r3]
 365 0052 0122     		movs	r2, #1
 366 0054 9A60     		str	r2, [r3, #8]
  99:..\..\..\common\hw\include/packet.h ****   return 0;
 367              		.loc 2 99 0
 368 0056 0023     		movs	r3, #0
 369              	.L15:
 100:..\..\..\common\hw\include/packet.h **** }
 370              		.loc 2 100 0
 371 0058 1846     		mov	r0, r3
 372 005a 1037     		adds	r7, r7, #16
 373              		.cfi_def_cfa_offset 8
 374 005c BD46     		mov	sp, r7
 375              		.cfi_def_cfa_register 13
 376              		@ sp needed
 377 005e 80BD     		pop	{r7, pc}
 378              		.cfi_endproc
 379              	.LFE5:
 380              		.size	dmc_packet_marshal_out_of_order, .-dmc_packet_marshal_out_of_order
 381              		.section	.text.dmc_packet_unmarshal_container_volume_measured,"ax",%progbits
 382              		.align	2
 383              		.thumb
 384              		.thumb_func
 385              		.type	dmc_packet_unmarshal_container_volume_measured, %function
 386              	dmc_packet_unmarshal_container_volume_measured:
 387              	.LFB6:
 101:..\..\..\common\hw\include/packet.h **** 
 102:..\..\..\common\hw\include/packet.h **** /**
 103:..\..\..\common\hw\include/packet.h ****  * @brief Packet declaring that a new weight measurement has been made.
 104:..\..\..\common\hw\include/packet.h ****  *
 105:..\..\..\common\hw\include/packet.h ****  * Direction: PSoC -> RPi
 106:..\..\..\common\hw\include/packet.h ****  */
 107:..\..\..\common\hw\include/packet.h **** struct dmc_packet_container_volume_measured
 108:..\..\..\common\hw\include/packet.h **** {
 109:..\..\..\common\hw\include/packet.h ****   /**
 110:..\..\..\common\hw\include/packet.h ****    * @brief The container the measurement was from. Ranging from 0-2
 111:..\..\..\common\hw\include/packet.h ****    */
 112:..\..\..\common\hw\include/packet.h ****   uint8_t container;
 113:..\..\..\common\hw\include/packet.h **** 
 114:..\..\..\common\hw\include/packet.h ****   /**
 115:..\..\..\common\hw\include/packet.h ****    * @brief Volume measured in centiliters
 116:..\..\..\common\hw\include/packet.h ****    */
 117:..\..\..\common\hw\include/packet.h ****   int16_t volume;
 118:..\..\..\common\hw\include/packet.h **** };
 119:..\..\..\common\hw\include/packet.h **** 
 120:..\..\..\common\hw\include/packet.h **** /**
 121:..\..\..\common\hw\include/packet.h ****  * @brief Unmarshal data into container volume measured packet from base packet
 122:..\..\..\common\hw\include/packet.h ****  */
 123:..\..\..\common\hw\include/packet.h **** static int dmc_packet_unmarshal_container_volume_measured(
 124:..\..\..\common\hw\include/packet.h ****     struct dmc_packet_container_volume_measured *packet,
 125:..\..\..\common\hw\include/packet.h ****     struct dmc_packet                           *from)
 126:..\..\..\common\hw\include/packet.h **** {
ARM GAS  C:\Users\Runeg\AppData\Local\Temp\cc9mCJok.s 			page 12


 388              		.loc 2 126 0
 389              		.cfi_startproc
 390              		@ args = 0, pretend = 0, frame = 16
 391              		@ frame_needed = 1, uses_anonymous_args = 0
 392              		@ link register save eliminated.
 393 0000 80B4     		push	{r7}
 394              		.cfi_def_cfa_offset 4
 395              		.cfi_offset 7, -4
 396 0002 85B0     		sub	sp, sp, #20
 397              		.cfi_def_cfa_offset 24
 398 0004 00AF     		add	r7, sp, #0
 399              		.cfi_def_cfa_register 7
 400 0006 7860     		str	r0, [r7, #4]
 401 0008 3960     		str	r1, [r7]
 127:..\..\..\common\hw\include/packet.h ****   if (from->type != DMC_PACKET_CONTAINER_VOLUME_MEASURED)
 402              		.loc 2 127 0
 403 000a 3B68     		ldr	r3, [r7]
 404 000c 1B78     		ldrb	r3, [r3]	@ zero_extendqisi2
 405 000e 922B     		cmp	r3, #146
 406 0010 02D0     		beq	.L19
 128:..\..\..\common\hw\include/packet.h ****   {
 129:..\..\..\common\hw\include/packet.h ****     return -1;
 407              		.loc 2 129 0
 408 0012 4FF0FF33 		mov	r3, #-1
 409 0016 14E0     		b	.L20
 410              	.L19:
 130:..\..\..\common\hw\include/packet.h ****   }
 131:..\..\..\common\hw\include/packet.h **** 
 132:..\..\..\common\hw\include/packet.h ****   uint8_t offset    = 0;
 411              		.loc 2 132 0
 412 0018 0023     		movs	r3, #0
 413 001a FB73     		strb	r3, [r7, #15]
 133:..\..\..\common\hw\include/packet.h ****   packet->container = *(uint8_t *)(from->data + offset);
 414              		.loc 2 133 0
 415 001c 3B68     		ldr	r3, [r7]
 416 001e 5A68     		ldr	r2, [r3, #4]
 417 0020 FB7B     		ldrb	r3, [r7, #15]	@ zero_extendqisi2
 418 0022 1344     		add	r3, r3, r2
 419 0024 1A78     		ldrb	r2, [r3]	@ zero_extendqisi2
 420 0026 7B68     		ldr	r3, [r7, #4]
 421 0028 1A70     		strb	r2, [r3]
 134:..\..\..\common\hw\include/packet.h **** 
 135:..\..\..\common\hw\include/packet.h ****   offset += sizeof(packet->container); // Move offset of previous data
 422              		.loc 2 135 0
 423 002a FB7B     		ldrb	r3, [r7, #15]
 424 002c 0133     		adds	r3, r3, #1
 425 002e FB73     		strb	r3, [r7, #15]
 136:..\..\..\common\hw\include/packet.h ****   packet->volume = *(uint8_t *)(from->data + offset);
 426              		.loc 2 136 0
 427 0030 3B68     		ldr	r3, [r7]
 428 0032 5A68     		ldr	r2, [r3, #4]
 429 0034 FB7B     		ldrb	r3, [r7, #15]	@ zero_extendqisi2
 430 0036 1344     		add	r3, r3, r2
 431 0038 1B78     		ldrb	r3, [r3]	@ zero_extendqisi2
 432 003a 1AB2     		sxth	r2, r3
 433 003c 7B68     		ldr	r3, [r7, #4]
 434 003e 5A80     		strh	r2, [r3, #2]	@ movhi
ARM GAS  C:\Users\Runeg\AppData\Local\Temp\cc9mCJok.s 			page 13


 137:..\..\..\common\hw\include/packet.h **** 
 138:..\..\..\common\hw\include/packet.h ****   return 0;
 435              		.loc 2 138 0
 436 0040 0023     		movs	r3, #0
 437              	.L20:
 139:..\..\..\common\hw\include/packet.h **** }
 438              		.loc 2 139 0
 439 0042 1846     		mov	r0, r3
 440 0044 1437     		adds	r7, r7, #20
 441              		.cfi_def_cfa_offset 4
 442 0046 BD46     		mov	sp, r7
 443              		.cfi_def_cfa_register 13
 444              		@ sp needed
 445 0048 80BC     		pop	{r7}
 446              		.cfi_restore 7
 447              		.cfi_def_cfa_offset 0
 448 004a 7047     		bx	lr
 449              		.cfi_endproc
 450              	.LFE6:
 451              		.size	dmc_packet_unmarshal_container_volume_measured, .-dmc_packet_unmarshal_container_volume_meas
 452              		.section	.text.dmc_packet_marshal_container_volume_measured,"ax",%progbits
 453              		.align	2
 454              		.thumb
 455              		.thumb_func
 456              		.type	dmc_packet_marshal_container_volume_measured, %function
 457              	dmc_packet_marshal_container_volume_measured:
 458              	.LFB7:
 140:..\..\..\common\hw\include/packet.h **** 
 141:..\..\..\common\hw\include/packet.h **** /**
 142:..\..\..\common\hw\include/packet.h ****  * @brief Marshal container volume measured packet struct into base packet
 143:..\..\..\common\hw\include/packet.h ****  */
 144:..\..\..\common\hw\include/packet.h **** static int dmc_packet_marshal_container_volume_measured(
 145:..\..\..\common\hw\include/packet.h ****     struct dmc_packet **to, struct dmc_packet_container_volume_measured *packet)
 146:..\..\..\common\hw\include/packet.h **** {
 459              		.loc 2 146 0
 460              		.cfi_startproc
 461              		@ args = 0, pretend = 0, frame = 16
 462              		@ frame_needed = 1, uses_anonymous_args = 0
 463 0000 80B5     		push	{r7, lr}
 464              		.cfi_def_cfa_offset 8
 465              		.cfi_offset 7, -8
 466              		.cfi_offset 14, -4
 467 0002 84B0     		sub	sp, sp, #16
 468              		.cfi_def_cfa_offset 24
 469 0004 00AF     		add	r7, sp, #0
 470              		.cfi_def_cfa_register 7
 471 0006 7860     		str	r0, [r7, #4]
 472 0008 3960     		str	r1, [r7]
 147:..\..\..\common\hw\include/packet.h ****   if (to == NULL)
 473              		.loc 2 147 0
 474 000a 7B68     		ldr	r3, [r7, #4]
 475 000c 002B     		cmp	r3, #0
 476 000e 02D1     		bne	.L22
 148:..\..\..\common\hw\include/packet.h ****   {
 149:..\..\..\common\hw\include/packet.h ****     // Pointer to the pointer must not be null
 150:..\..\..\common\hw\include/packet.h ****     return -1;
 477              		.loc 2 150 0
ARM GAS  C:\Users\Runeg\AppData\Local\Temp\cc9mCJok.s 			page 14


 478 0010 4FF0FF33 		mov	r3, #-1
 479 0014 2DE0     		b	.L23
 480              	.L22:
 151:..\..\..\common\hw\include/packet.h ****   }
 152:..\..\..\common\hw\include/packet.h ****   if (*to == NULL)
 481              		.loc 2 152 0
 482 0016 7B68     		ldr	r3, [r7, #4]
 483 0018 1B68     		ldr	r3, [r3]
 484 001a 002B     		cmp	r3, #0
 485 001c 05D1     		bne	.L24
 153:..\..\..\common\hw\include/packet.h ****   {
 154:..\..\..\common\hw\include/packet.h ****     *to = dmc_packet_init(DMC_PACKET_CONTAINER_VOLUME_MEASURED);
 486              		.loc 2 154 0
 487 001e 9220     		movs	r0, #146
 488 0020 FFF7FEFF 		bl	dmc_packet_init
 489 0024 0246     		mov	r2, r0
 490 0026 7B68     		ldr	r3, [r7, #4]
 491 0028 1A60     		str	r2, [r3]
 492              	.L24:
 155:..\..\..\common\hw\include/packet.h ****   }
 156:..\..\..\common\hw\include/packet.h ****   if ((*to)->type != DMC_PACKET_CONTAINER_VOLUME_MEASURED)
 493              		.loc 2 156 0
 494 002a 7B68     		ldr	r3, [r7, #4]
 495 002c 1B68     		ldr	r3, [r3]
 496 002e 1B78     		ldrb	r3, [r3]	@ zero_extendqisi2
 497 0030 922B     		cmp	r3, #146
 498 0032 02D0     		beq	.L25
 157:..\..\..\common\hw\include/packet.h ****   {
 158:..\..\..\common\hw\include/packet.h ****     return -2;
 499              		.loc 2 158 0
 500 0034 6FF00103 		mvn	r3, #1
 501 0038 1BE0     		b	.L23
 502              	.L25:
 159:..\..\..\common\hw\include/packet.h ****   }
 160:..\..\..\common\hw\include/packet.h **** 
 161:..\..\..\common\hw\include/packet.h ****   uint8_t offset                     = 0;
 503              		.loc 2 161 0
 504 003a 0023     		movs	r3, #0
 505 003c FB73     		strb	r3, [r7, #15]
 162:..\..\..\common\hw\include/packet.h ****   *(uint8_t *)((*to)->data + offset) = packet->container;
 506              		.loc 2 162 0
 507 003e 7B68     		ldr	r3, [r7, #4]
 508 0040 1B68     		ldr	r3, [r3]
 509 0042 5A68     		ldr	r2, [r3, #4]
 510 0044 FB7B     		ldrb	r3, [r7, #15]	@ zero_extendqisi2
 511 0046 1344     		add	r3, r3, r2
 512 0048 3A68     		ldr	r2, [r7]
 513 004a 1278     		ldrb	r2, [r2]	@ zero_extendqisi2
 514 004c 1A70     		strb	r2, [r3]
 163:..\..\..\common\hw\include/packet.h **** 
 164:..\..\..\common\hw\include/packet.h ****   offset += sizeof(packet->container); // Move offset of previous data
 515              		.loc 2 164 0
 516 004e FB7B     		ldrb	r3, [r7, #15]
 517 0050 0133     		adds	r3, r3, #1
 518 0052 FB73     		strb	r3, [r7, #15]
 165:..\..\..\common\hw\include/packet.h ****   *(uint8_t *)((*to)->data + offset) = packet->volume;
 519              		.loc 2 165 0
ARM GAS  C:\Users\Runeg\AppData\Local\Temp\cc9mCJok.s 			page 15


 520 0054 7B68     		ldr	r3, [r7, #4]
 521 0056 1B68     		ldr	r3, [r3]
 522 0058 5A68     		ldr	r2, [r3, #4]
 523 005a FB7B     		ldrb	r3, [r7, #15]	@ zero_extendqisi2
 524 005c 1344     		add	r3, r3, r2
 525 005e 3A68     		ldr	r2, [r7]
 526 0060 B2F90220 		ldrsh	r2, [r2, #2]
 527 0064 D2B2     		uxtb	r2, r2
 528 0066 1A70     		strb	r2, [r3]
 166:..\..\..\common\hw\include/packet.h **** 
 167:..\..\..\common\hw\include/packet.h ****   (*to)->data_len = sizeof(packet->container) + sizeof(packet->volume);
 529              		.loc 2 167 0
 530 0068 7B68     		ldr	r3, [r7, #4]
 531 006a 1B68     		ldr	r3, [r3]
 532 006c 0322     		movs	r2, #3
 533 006e 9A60     		str	r2, [r3, #8]
 168:..\..\..\common\hw\include/packet.h ****   return 0;
 534              		.loc 2 168 0
 535 0070 0023     		movs	r3, #0
 536              	.L23:
 169:..\..\..\common\hw\include/packet.h **** }
 537              		.loc 2 169 0
 538 0072 1846     		mov	r0, r3
 539 0074 1037     		adds	r7, r7, #16
 540              		.cfi_def_cfa_offset 8
 541 0076 BD46     		mov	sp, r7
 542              		.cfi_def_cfa_register 13
 543              		@ sp needed
 544 0078 80BD     		pop	{r7, pc}
 545              		.cfi_endproc
 546              	.LFE7:
 547              		.size	dmc_packet_marshal_container_volume_measured, .-dmc_packet_marshal_container_volume_measured
 548 007a 00BF     		.section	.text.dmc_packet_unmarshal_user_confirm,"ax",%progbits
 549              		.align	2
 550              		.thumb
 551              		.thumb_func
 552              		.type	dmc_packet_unmarshal_user_confirm, %function
 553              	dmc_packet_unmarshal_user_confirm:
 554              	.LFB8:
 170:..\..\..\common\hw\include/packet.h **** 
 171:..\..\..\common\hw\include/packet.h **** /**
 172:..\..\..\common\hw\include/packet.h ****  * @brief Packet declaring that a user has confirmed something on the
 173:..\..\..\common\hw\include/packet.h ****  * touchscreen
 174:..\..\..\common\hw\include/packet.h ****  *
 175:..\..\..\common\hw\include/packet.h ****  * Direction: RPi -> PSoC
 176:..\..\..\common\hw\include/packet.h ****  */
 177:..\..\..\common\hw\include/packet.h **** struct dmc_packet_user_confirm
 178:..\..\..\common\hw\include/packet.h **** {
 179:..\..\..\common\hw\include/packet.h **** };
 180:..\..\..\common\hw\include/packet.h **** 
 181:..\..\..\common\hw\include/packet.h **** /**
 182:..\..\..\common\hw\include/packet.h ****  * @brief Unmarshal data into user confirm packet from base packet
 183:..\..\..\common\hw\include/packet.h ****  */
 184:..\..\..\common\hw\include/packet.h **** static int
 185:..\..\..\common\hw\include/packet.h **** dmc_packet_unmarshal_user_confirm(struct dmc_packet_user_confirm *packet,
 186:..\..\..\common\hw\include/packet.h ****                                   struct dmc_packet              *from)
 187:..\..\..\common\hw\include/packet.h **** {
ARM GAS  C:\Users\Runeg\AppData\Local\Temp\cc9mCJok.s 			page 16


 555              		.loc 2 187 0
 556              		.cfi_startproc
 557              		@ args = 0, pretend = 0, frame = 8
 558              		@ frame_needed = 1, uses_anonymous_args = 0
 559              		@ link register save eliminated.
 560 0000 80B4     		push	{r7}
 561              		.cfi_def_cfa_offset 4
 562              		.cfi_offset 7, -4
 563 0002 83B0     		sub	sp, sp, #12
 564              		.cfi_def_cfa_offset 16
 565 0004 00AF     		add	r7, sp, #0
 566              		.cfi_def_cfa_register 7
 567 0006 7860     		str	r0, [r7, #4]
 568 0008 3960     		str	r1, [r7]
 188:..\..\..\common\hw\include/packet.h ****   if (from->type != DMC_PACKET_USER_CONFIRM)
 569              		.loc 2 188 0
 570 000a 3B68     		ldr	r3, [r7]
 571 000c 1B78     		ldrb	r3, [r3]	@ zero_extendqisi2
 572 000e A02B     		cmp	r3, #160
 573 0010 02D0     		beq	.L27
 189:..\..\..\common\hw\include/packet.h ****   {
 190:..\..\..\common\hw\include/packet.h ****     return -1;
 574              		.loc 2 190 0
 575 0012 4FF0FF33 		mov	r3, #-1
 576 0016 00E0     		b	.L28
 577              	.L27:
 191:..\..\..\common\hw\include/packet.h ****   }
 192:..\..\..\common\hw\include/packet.h **** 
 193:..\..\..\common\hw\include/packet.h ****   return 0;
 578              		.loc 2 193 0
 579 0018 0023     		movs	r3, #0
 580              	.L28:
 194:..\..\..\common\hw\include/packet.h **** }
 581              		.loc 2 194 0
 582 001a 1846     		mov	r0, r3
 583 001c 0C37     		adds	r7, r7, #12
 584              		.cfi_def_cfa_offset 4
 585 001e BD46     		mov	sp, r7
 586              		.cfi_def_cfa_register 13
 587              		@ sp needed
 588 0020 80BC     		pop	{r7}
 589              		.cfi_restore 7
 590              		.cfi_def_cfa_offset 0
 591 0022 7047     		bx	lr
 592              		.cfi_endproc
 593              	.LFE8:
 594              		.size	dmc_packet_unmarshal_user_confirm, .-dmc_packet_unmarshal_user_confirm
 595              		.section	.text.dmc_packet_marshal_user_confirm,"ax",%progbits
 596              		.align	2
 597              		.thumb
 598              		.thumb_func
 599              		.type	dmc_packet_marshal_user_confirm, %function
 600              	dmc_packet_marshal_user_confirm:
 601              	.LFB9:
 195:..\..\..\common\hw\include/packet.h **** 
 196:..\..\..\common\hw\include/packet.h **** /**
 197:..\..\..\common\hw\include/packet.h ****  * @brief Marshal user confirm packet struct into base packet
ARM GAS  C:\Users\Runeg\AppData\Local\Temp\cc9mCJok.s 			page 17


 198:..\..\..\common\hw\include/packet.h ****  */
 199:..\..\..\common\hw\include/packet.h **** static int
 200:..\..\..\common\hw\include/packet.h **** dmc_packet_marshal_user_confirm(struct dmc_packet             **to,
 201:..\..\..\common\hw\include/packet.h ****                                 struct dmc_packet_user_confirm *packet)
 202:..\..\..\common\hw\include/packet.h **** {
 602              		.loc 2 202 0
 603              		.cfi_startproc
 604              		@ args = 0, pretend = 0, frame = 8
 605              		@ frame_needed = 1, uses_anonymous_args = 0
 606 0000 80B5     		push	{r7, lr}
 607              		.cfi_def_cfa_offset 8
 608              		.cfi_offset 7, -8
 609              		.cfi_offset 14, -4
 610 0002 82B0     		sub	sp, sp, #8
 611              		.cfi_def_cfa_offset 16
 612 0004 00AF     		add	r7, sp, #0
 613              		.cfi_def_cfa_register 7
 614 0006 7860     		str	r0, [r7, #4]
 615 0008 3960     		str	r1, [r7]
 203:..\..\..\common\hw\include/packet.h ****   if (to == NULL)
 616              		.loc 2 203 0
 617 000a 7B68     		ldr	r3, [r7, #4]
 618 000c 002B     		cmp	r3, #0
 619 000e 02D1     		bne	.L30
 204:..\..\..\common\hw\include/packet.h ****   {
 205:..\..\..\common\hw\include/packet.h ****     // Pointer to the pointer must not be null
 206:..\..\..\common\hw\include/packet.h ****     return -1;
 620              		.loc 2 206 0
 621 0010 4FF0FF33 		mov	r3, #-1
 622 0014 12E0     		b	.L31
 623              	.L30:
 207:..\..\..\common\hw\include/packet.h ****   }
 208:..\..\..\common\hw\include/packet.h ****   if (*to == NULL)
 624              		.loc 2 208 0
 625 0016 7B68     		ldr	r3, [r7, #4]
 626 0018 1B68     		ldr	r3, [r3]
 627 001a 002B     		cmp	r3, #0
 628 001c 05D1     		bne	.L32
 209:..\..\..\common\hw\include/packet.h ****   {
 210:..\..\..\common\hw\include/packet.h ****     *to = dmc_packet_init(DMC_PACKET_USER_CONFIRM);
 629              		.loc 2 210 0
 630 001e A020     		movs	r0, #160
 631 0020 FFF7FEFF 		bl	dmc_packet_init
 632 0024 0246     		mov	r2, r0
 633 0026 7B68     		ldr	r3, [r7, #4]
 634 0028 1A60     		str	r2, [r3]
 635              	.L32:
 211:..\..\..\common\hw\include/packet.h ****   }
 212:..\..\..\common\hw\include/packet.h ****   if ((*to)->type != DMC_PACKET_USER_CONFIRM)
 636              		.loc 2 212 0
 637 002a 7B68     		ldr	r3, [r7, #4]
 638 002c 1B68     		ldr	r3, [r3]
 639 002e 1B78     		ldrb	r3, [r3]	@ zero_extendqisi2
 640 0030 A02B     		cmp	r3, #160
 641 0032 02D0     		beq	.L33
 213:..\..\..\common\hw\include/packet.h ****   {
 214:..\..\..\common\hw\include/packet.h ****     return -2;
ARM GAS  C:\Users\Runeg\AppData\Local\Temp\cc9mCJok.s 			page 18


 642              		.loc 2 214 0
 643 0034 6FF00103 		mvn	r3, #1
 644 0038 00E0     		b	.L31
 645              	.L33:
 215:..\..\..\common\hw\include/packet.h ****   }
 216:..\..\..\common\hw\include/packet.h **** 
 217:..\..\..\common\hw\include/packet.h ****   return 0;
 646              		.loc 2 217 0
 647 003a 0023     		movs	r3, #0
 648              	.L31:
 218:..\..\..\common\hw\include/packet.h **** }
 649              		.loc 2 218 0
 650 003c 1846     		mov	r0, r3
 651 003e 0837     		adds	r7, r7, #8
 652              		.cfi_def_cfa_offset 8
 653 0040 BD46     		mov	sp, r7
 654              		.cfi_def_cfa_register 13
 655              		@ sp needed
 656 0042 80BD     		pop	{r7, pc}
 657              		.cfi_endproc
 658              	.LFE9:
 659              		.size	dmc_packet_marshal_user_confirm, .-dmc_packet_marshal_user_confirm
 660              		.section	.text.dmc_packet_unmarshal_machine_ok,"ax",%progbits
 661              		.align	2
 662              		.thumb
 663              		.thumb_func
 664              		.type	dmc_packet_unmarshal_machine_ok, %function
 665              	dmc_packet_unmarshal_machine_ok:
 666              	.LFB10:
 219:..\..\..\common\hw\include/packet.h **** 
 220:..\..\..\common\hw\include/packet.h **** /**
 221:..\..\..\common\hw\include/packet.h ****  * @brief Packet declaring that machine is ok after being out of order
 222:..\..\..\common\hw\include/packet.h ****  *
 223:..\..\..\common\hw\include/packet.h ****  * Direction: RPi -> PSoC
 224:..\..\..\common\hw\include/packet.h ****  */
 225:..\..\..\common\hw\include/packet.h **** struct dmc_packet_machine_ok
 226:..\..\..\common\hw\include/packet.h **** {
 227:..\..\..\common\hw\include/packet.h **** };
 228:..\..\..\common\hw\include/packet.h **** 
 229:..\..\..\common\hw\include/packet.h **** /**
 230:..\..\..\common\hw\include/packet.h ****  * @brief Unmarshal data into machine ok packet from base packet
 231:..\..\..\common\hw\include/packet.h ****  */
 232:..\..\..\common\hw\include/packet.h **** static int dmc_packet_unmarshal_machine_ok(struct dmc_packet_machine_ok *packet,
 233:..\..\..\common\hw\include/packet.h ****                                            struct dmc_packet            *from)
 234:..\..\..\common\hw\include/packet.h **** {
 667              		.loc 2 234 0
 668              		.cfi_startproc
 669              		@ args = 0, pretend = 0, frame = 8
 670              		@ frame_needed = 1, uses_anonymous_args = 0
 671              		@ link register save eliminated.
 672 0000 80B4     		push	{r7}
 673              		.cfi_def_cfa_offset 4
 674              		.cfi_offset 7, -4
 675 0002 83B0     		sub	sp, sp, #12
 676              		.cfi_def_cfa_offset 16
 677 0004 00AF     		add	r7, sp, #0
 678              		.cfi_def_cfa_register 7
ARM GAS  C:\Users\Runeg\AppData\Local\Temp\cc9mCJok.s 			page 19


 679 0006 7860     		str	r0, [r7, #4]
 680 0008 3960     		str	r1, [r7]
 235:..\..\..\common\hw\include/packet.h ****   if (from->type != DMC_PACKET_MACHINE_OK)
 681              		.loc 2 235 0
 682 000a 3B68     		ldr	r3, [r7]
 683 000c 1B78     		ldrb	r3, [r3]	@ zero_extendqisi2
 684 000e D02B     		cmp	r3, #208
 685 0010 02D0     		beq	.L35
 236:..\..\..\common\hw\include/packet.h ****   {
 237:..\..\..\common\hw\include/packet.h ****     return -1;
 686              		.loc 2 237 0
 687 0012 4FF0FF33 		mov	r3, #-1
 688 0016 00E0     		b	.L36
 689              	.L35:
 238:..\..\..\common\hw\include/packet.h ****   }
 239:..\..\..\common\hw\include/packet.h **** 
 240:..\..\..\common\hw\include/packet.h ****   return 0;
 690              		.loc 2 240 0
 691 0018 0023     		movs	r3, #0
 692              	.L36:
 241:..\..\..\common\hw\include/packet.h **** }
 693              		.loc 2 241 0
 694 001a 1846     		mov	r0, r3
 695 001c 0C37     		adds	r7, r7, #12
 696              		.cfi_def_cfa_offset 4
 697 001e BD46     		mov	sp, r7
 698              		.cfi_def_cfa_register 13
 699              		@ sp needed
 700 0020 80BC     		pop	{r7}
 701              		.cfi_restore 7
 702              		.cfi_def_cfa_offset 0
 703 0022 7047     		bx	lr
 704              		.cfi_endproc
 705              	.LFE10:
 706              		.size	dmc_packet_unmarshal_machine_ok, .-dmc_packet_unmarshal_machine_ok
 707              		.section	.text.dmc_packet_marshal_machine_ok,"ax",%progbits
 708              		.align	2
 709              		.thumb
 710              		.thumb_func
 711              		.type	dmc_packet_marshal_machine_ok, %function
 712              	dmc_packet_marshal_machine_ok:
 713              	.LFB11:
 242:..\..\..\common\hw\include/packet.h **** 
 243:..\..\..\common\hw\include/packet.h **** /**
 244:..\..\..\common\hw\include/packet.h ****  * @brief Marshal machine ok packet struct into base packet
 245:..\..\..\common\hw\include/packet.h ****  */
 246:..\..\..\common\hw\include/packet.h **** static int
 247:..\..\..\common\hw\include/packet.h **** dmc_packet_marshal_machine_ok(struct dmc_packet             **to,
 248:..\..\..\common\hw\include/packet.h ****                                 struct dmc_packet_machine_ok *packet)
 249:..\..\..\common\hw\include/packet.h **** {
 714              		.loc 2 249 0
 715              		.cfi_startproc
 716              		@ args = 0, pretend = 0, frame = 8
 717              		@ frame_needed = 1, uses_anonymous_args = 0
 718 0000 80B5     		push	{r7, lr}
 719              		.cfi_def_cfa_offset 8
 720              		.cfi_offset 7, -8
ARM GAS  C:\Users\Runeg\AppData\Local\Temp\cc9mCJok.s 			page 20


 721              		.cfi_offset 14, -4
 722 0002 82B0     		sub	sp, sp, #8
 723              		.cfi_def_cfa_offset 16
 724 0004 00AF     		add	r7, sp, #0
 725              		.cfi_def_cfa_register 7
 726 0006 7860     		str	r0, [r7, #4]
 727 0008 3960     		str	r1, [r7]
 250:..\..\..\common\hw\include/packet.h ****   if (to == NULL)
 728              		.loc 2 250 0
 729 000a 7B68     		ldr	r3, [r7, #4]
 730 000c 002B     		cmp	r3, #0
 731 000e 02D1     		bne	.L38
 251:..\..\..\common\hw\include/packet.h ****   {
 252:..\..\..\common\hw\include/packet.h ****     // Pointer to the pointer must not be null
 253:..\..\..\common\hw\include/packet.h ****     return -1;
 732              		.loc 2 253 0
 733 0010 4FF0FF33 		mov	r3, #-1
 734 0014 12E0     		b	.L39
 735              	.L38:
 254:..\..\..\common\hw\include/packet.h ****   }
 255:..\..\..\common\hw\include/packet.h ****   if (*to == NULL)
 736              		.loc 2 255 0
 737 0016 7B68     		ldr	r3, [r7, #4]
 738 0018 1B68     		ldr	r3, [r3]
 739 001a 002B     		cmp	r3, #0
 740 001c 05D1     		bne	.L40
 256:..\..\..\common\hw\include/packet.h ****   {
 257:..\..\..\common\hw\include/packet.h ****     *to = dmc_packet_init(DMC_PACKET_MACHINE_OK);
 741              		.loc 2 257 0
 742 001e D020     		movs	r0, #208
 743 0020 FFF7FEFF 		bl	dmc_packet_init
 744 0024 0246     		mov	r2, r0
 745 0026 7B68     		ldr	r3, [r7, #4]
 746 0028 1A60     		str	r2, [r3]
 747              	.L40:
 258:..\..\..\common\hw\include/packet.h ****   }
 259:..\..\..\common\hw\include/packet.h ****   if ((*to)->type != DMC_PACKET_MACHINE_OK)
 748              		.loc 2 259 0
 749 002a 7B68     		ldr	r3, [r7, #4]
 750 002c 1B68     		ldr	r3, [r3]
 751 002e 1B78     		ldrb	r3, [r3]	@ zero_extendqisi2
 752 0030 D02B     		cmp	r3, #208
 753 0032 02D0     		beq	.L41
 260:..\..\..\common\hw\include/packet.h ****   {
 261:..\..\..\common\hw\include/packet.h ****     return -2;
 754              		.loc 2 261 0
 755 0034 6FF00103 		mvn	r3, #1
 756 0038 00E0     		b	.L39
 757              	.L41:
 262:..\..\..\common\hw\include/packet.h ****   }
 263:..\..\..\common\hw\include/packet.h **** 
 264:..\..\..\common\hw\include/packet.h ****    return 0;
 758              		.loc 2 264 0
 759 003a 0023     		movs	r3, #0
 760              	.L39:
 265:..\..\..\common\hw\include/packet.h **** }
 761              		.loc 2 265 0
ARM GAS  C:\Users\Runeg\AppData\Local\Temp\cc9mCJok.s 			page 21


 762 003c 1846     		mov	r0, r3
 763 003e 0837     		adds	r7, r7, #8
 764              		.cfi_def_cfa_offset 8
 765 0040 BD46     		mov	sp, r7
 766              		.cfi_def_cfa_register 13
 767              		@ sp needed
 768 0042 80BD     		pop	{r7, pc}
 769              		.cfi_endproc
 770              	.LFE11:
 771              		.size	dmc_packet_marshal_machine_ok, .-dmc_packet_marshal_machine_ok
 772              		.section	.text.dmc_packet_unmarshal_fluid_pour_requested,"ax",%progbits
 773              		.align	2
 774              		.thumb
 775              		.thumb_func
 776              		.type	dmc_packet_unmarshal_fluid_pour_requested, %function
 777              	dmc_packet_unmarshal_fluid_pour_requested:
 778              	.LFB12:
 266:..\..\..\common\hw\include/packet.h **** 
 267:..\..\..\common\hw\include/packet.h **** /**
 268:..\..\..\common\hw\include/packet.h ****  * @brief Packet declaring that the machine should start to pour fluid.
 269:..\..\..\common\hw\include/packet.h ****  *
 270:..\..\..\common\hw\include/packet.h ****  * Direction: RPi -> PSoC
 271:..\..\..\common\hw\include/packet.h ****  */
 272:..\..\..\common\hw\include/packet.h **** struct dmc_packet_fluid_pour_requested
 273:..\..\..\common\hw\include/packet.h **** {
 274:..\..\..\common\hw\include/packet.h ****   /**
 275:..\..\..\common\hw\include/packet.h ****    * @brief The container to pour from. Ranging from 0-2
 276:..\..\..\common\hw\include/packet.h ****    */
 277:..\..\..\common\hw\include/packet.h ****   uint8_t container;
 278:..\..\..\common\hw\include/packet.h **** 
 279:..\..\..\common\hw\include/packet.h ****   /**
 280:..\..\..\common\hw\include/packet.h ****    * @brief Amount to pour in centiliters
 281:..\..\..\common\hw\include/packet.h ****    */
 282:..\..\..\common\hw\include/packet.h ****   uint8_t amount;
 283:..\..\..\common\hw\include/packet.h **** };
 284:..\..\..\common\hw\include/packet.h **** 
 285:..\..\..\common\hw\include/packet.h **** /**
 286:..\..\..\common\hw\include/packet.h ****  * @brief Unmarshal data into fluid pour requested packet from base packet
 287:..\..\..\common\hw\include/packet.h ****  */
 288:..\..\..\common\hw\include/packet.h **** static int dmc_packet_unmarshal_fluid_pour_requested(
 289:..\..\..\common\hw\include/packet.h ****     struct dmc_packet_fluid_pour_requested *packet, struct dmc_packet *from)
 290:..\..\..\common\hw\include/packet.h **** {
 779              		.loc 2 290 0
 780              		.cfi_startproc
 781              		@ args = 0, pretend = 0, frame = 16
 782              		@ frame_needed = 1, uses_anonymous_args = 0
 783              		@ link register save eliminated.
 784 0000 80B4     		push	{r7}
 785              		.cfi_def_cfa_offset 4
 786              		.cfi_offset 7, -4
 787 0002 85B0     		sub	sp, sp, #20
 788              		.cfi_def_cfa_offset 24
 789 0004 00AF     		add	r7, sp, #0
 790              		.cfi_def_cfa_register 7
 791 0006 7860     		str	r0, [r7, #4]
 792 0008 3960     		str	r1, [r7]
 291:..\..\..\common\hw\include/packet.h ****   if (from->type != DMC_PACKET_FLUID_POUR_REQUESTED)
ARM GAS  C:\Users\Runeg\AppData\Local\Temp\cc9mCJok.s 			page 22


 793              		.loc 2 291 0
 794 000a 3B68     		ldr	r3, [r7]
 795 000c 1B78     		ldrb	r3, [r3]	@ zero_extendqisi2
 796 000e B22B     		cmp	r3, #178
 797 0010 02D0     		beq	.L43
 292:..\..\..\common\hw\include/packet.h ****   {
 293:..\..\..\common\hw\include/packet.h ****     return -1;
 798              		.loc 2 293 0
 799 0012 4FF0FF33 		mov	r3, #-1
 800 0016 13E0     		b	.L44
 801              	.L43:
 294:..\..\..\common\hw\include/packet.h ****   }
 295:..\..\..\common\hw\include/packet.h **** 
 296:..\..\..\common\hw\include/packet.h ****   uint8_t offset    = 0;
 802              		.loc 2 296 0
 803 0018 0023     		movs	r3, #0
 804 001a FB73     		strb	r3, [r7, #15]
 297:..\..\..\common\hw\include/packet.h ****   packet->container = *(uint8_t *)(from->data + offset);
 805              		.loc 2 297 0
 806 001c 3B68     		ldr	r3, [r7]
 807 001e 5A68     		ldr	r2, [r3, #4]
 808 0020 FB7B     		ldrb	r3, [r7, #15]	@ zero_extendqisi2
 809 0022 1344     		add	r3, r3, r2
 810 0024 1A78     		ldrb	r2, [r3]	@ zero_extendqisi2
 811 0026 7B68     		ldr	r3, [r7, #4]
 812 0028 1A70     		strb	r2, [r3]
 298:..\..\..\common\hw\include/packet.h **** 
 299:..\..\..\common\hw\include/packet.h ****   offset += sizeof(packet->container); // Move offset of previous data
 813              		.loc 2 299 0
 814 002a FB7B     		ldrb	r3, [r7, #15]
 815 002c 0133     		adds	r3, r3, #1
 816 002e FB73     		strb	r3, [r7, #15]
 300:..\..\..\common\hw\include/packet.h ****   packet->amount = *(uint8_t *)(from->data + offset);
 817              		.loc 2 300 0
 818 0030 3B68     		ldr	r3, [r7]
 819 0032 5A68     		ldr	r2, [r3, #4]
 820 0034 FB7B     		ldrb	r3, [r7, #15]	@ zero_extendqisi2
 821 0036 1344     		add	r3, r3, r2
 822 0038 1A78     		ldrb	r2, [r3]	@ zero_extendqisi2
 823 003a 7B68     		ldr	r3, [r7, #4]
 824 003c 5A70     		strb	r2, [r3, #1]
 301:..\..\..\common\hw\include/packet.h **** 
 302:..\..\..\common\hw\include/packet.h ****   return 0;
 825              		.loc 2 302 0
 826 003e 0023     		movs	r3, #0
 827              	.L44:
 303:..\..\..\common\hw\include/packet.h **** }
 828              		.loc 2 303 0
 829 0040 1846     		mov	r0, r3
 830 0042 1437     		adds	r7, r7, #20
 831              		.cfi_def_cfa_offset 4
 832 0044 BD46     		mov	sp, r7
 833              		.cfi_def_cfa_register 13
 834              		@ sp needed
 835 0046 80BC     		pop	{r7}
 836              		.cfi_restore 7
 837              		.cfi_def_cfa_offset 0
ARM GAS  C:\Users\Runeg\AppData\Local\Temp\cc9mCJok.s 			page 23


 838 0048 7047     		bx	lr
 839              		.cfi_endproc
 840              	.LFE12:
 841              		.size	dmc_packet_unmarshal_fluid_pour_requested, .-dmc_packet_unmarshal_fluid_pour_requested
 842 004a 00BF     		.section	.text.dmc_packet_marshal_fluid_pour_requested,"ax",%progbits
 843              		.align	2
 844              		.thumb
 845              		.thumb_func
 846              		.type	dmc_packet_marshal_fluid_pour_requested, %function
 847              	dmc_packet_marshal_fluid_pour_requested:
 848              	.LFB13:
 304:..\..\..\common\hw\include/packet.h **** 
 305:..\..\..\common\hw\include/packet.h **** /**
 306:..\..\..\common\hw\include/packet.h ****  * @brief Marshal fluid pour requested packet struct into base packet
 307:..\..\..\common\hw\include/packet.h ****  */
 308:..\..\..\common\hw\include/packet.h **** static int dmc_packet_marshal_fluid_pour_requested(
 309:..\..\..\common\hw\include/packet.h ****     struct dmc_packet **to, struct dmc_packet_fluid_pour_requested *packet)
 310:..\..\..\common\hw\include/packet.h **** {
 849              		.loc 2 310 0
 850              		.cfi_startproc
 851              		@ args = 0, pretend = 0, frame = 16
 852              		@ frame_needed = 1, uses_anonymous_args = 0
 853 0000 80B5     		push	{r7, lr}
 854              		.cfi_def_cfa_offset 8
 855              		.cfi_offset 7, -8
 856              		.cfi_offset 14, -4
 857 0002 84B0     		sub	sp, sp, #16
 858              		.cfi_def_cfa_offset 24
 859 0004 00AF     		add	r7, sp, #0
 860              		.cfi_def_cfa_register 7
 861 0006 7860     		str	r0, [r7, #4]
 862 0008 3960     		str	r1, [r7]
 311:..\..\..\common\hw\include/packet.h ****   if (to == NULL)
 863              		.loc 2 311 0
 864 000a 7B68     		ldr	r3, [r7, #4]
 865 000c 002B     		cmp	r3, #0
 866 000e 02D1     		bne	.L46
 312:..\..\..\common\hw\include/packet.h ****   {
 313:..\..\..\common\hw\include/packet.h ****     // Pointer to the pointer must not be null
 314:..\..\..\common\hw\include/packet.h ****     return -1;
 867              		.loc 2 314 0
 868 0010 4FF0FF33 		mov	r3, #-1
 869 0014 2FE0     		b	.L47
 870              	.L46:
 315:..\..\..\common\hw\include/packet.h ****   }
 316:..\..\..\common\hw\include/packet.h ****   if (*to == NULL)
 871              		.loc 2 316 0
 872 0016 7B68     		ldr	r3, [r7, #4]
 873 0018 1B68     		ldr	r3, [r3]
 874 001a 002B     		cmp	r3, #0
 875 001c 05D1     		bne	.L48
 317:..\..\..\common\hw\include/packet.h ****   {
 318:..\..\..\common\hw\include/packet.h ****     // If the underlying dmc_packet* is not yet allocalted, allocate it
 319:..\..\..\common\hw\include/packet.h ****     *to = dmc_packet_init(DMC_PACKET_FLUID_POUR_REQUESTED);
 876              		.loc 2 319 0
 877 001e B220     		movs	r0, #178
 878 0020 FFF7FEFF 		bl	dmc_packet_init
ARM GAS  C:\Users\Runeg\AppData\Local\Temp\cc9mCJok.s 			page 24


 879 0024 0246     		mov	r2, r0
 880 0026 7B68     		ldr	r3, [r7, #4]
 881 0028 1A60     		str	r2, [r3]
 882              	.L48:
 320:..\..\..\common\hw\include/packet.h ****   }
 321:..\..\..\common\hw\include/packet.h ****   if (*to != NULL && (*to)->type != DMC_PACKET_FLUID_POUR_REQUESTED)
 883              		.loc 2 321 0
 884 002a 7B68     		ldr	r3, [r7, #4]
 885 002c 1B68     		ldr	r3, [r3]
 886 002e 002B     		cmp	r3, #0
 887 0030 07D0     		beq	.L49
 888              		.loc 2 321 0 is_stmt 0 discriminator 1
 889 0032 7B68     		ldr	r3, [r7, #4]
 890 0034 1B68     		ldr	r3, [r3]
 891 0036 1B78     		ldrb	r3, [r3]	@ zero_extendqisi2
 892 0038 B22B     		cmp	r3, #178
 893 003a 02D0     		beq	.L49
 322:..\..\..\common\hw\include/packet.h ****   {
 323:..\..\..\common\hw\include/packet.h ****     // If type of underlying dmc_packet* is not the same as the packet type,
 324:..\..\..\common\hw\include/packet.h ****     // then return error
 325:..\..\..\common\hw\include/packet.h ****     return -2;
 894              		.loc 2 325 0 is_stmt 1
 895 003c 6FF00103 		mvn	r3, #1
 896 0040 19E0     		b	.L47
 897              	.L49:
 326:..\..\..\common\hw\include/packet.h ****   }
 327:..\..\..\common\hw\include/packet.h **** 
 328:..\..\..\common\hw\include/packet.h ****   uint8_t offset                     = 0;
 898              		.loc 2 328 0
 899 0042 0023     		movs	r3, #0
 900 0044 FB73     		strb	r3, [r7, #15]
 329:..\..\..\common\hw\include/packet.h ****   *(uint8_t *)((*to)->data + offset) = packet->container;
 901              		.loc 2 329 0
 902 0046 7B68     		ldr	r3, [r7, #4]
 903 0048 1B68     		ldr	r3, [r3]
 904 004a 5A68     		ldr	r2, [r3, #4]
 905 004c FB7B     		ldrb	r3, [r7, #15]	@ zero_extendqisi2
 906 004e 1344     		add	r3, r3, r2
 907 0050 3A68     		ldr	r2, [r7]
 908 0052 1278     		ldrb	r2, [r2]	@ zero_extendqisi2
 909 0054 1A70     		strb	r2, [r3]
 330:..\..\..\common\hw\include/packet.h **** 
 331:..\..\..\common\hw\include/packet.h ****   offset += sizeof(packet->container); // Move offset of previous data
 910              		.loc 2 331 0
 911 0056 FB7B     		ldrb	r3, [r7, #15]
 912 0058 0133     		adds	r3, r3, #1
 913 005a FB73     		strb	r3, [r7, #15]
 332:..\..\..\common\hw\include/packet.h ****   *(uint8_t *)((*to)->data + offset) = packet->amount;
 914              		.loc 2 332 0
 915 005c 7B68     		ldr	r3, [r7, #4]
 916 005e 1B68     		ldr	r3, [r3]
 917 0060 5A68     		ldr	r2, [r3, #4]
 918 0062 FB7B     		ldrb	r3, [r7, #15]	@ zero_extendqisi2
 919 0064 1344     		add	r3, r3, r2
 920 0066 3A68     		ldr	r2, [r7]
 921 0068 5278     		ldrb	r2, [r2, #1]	@ zero_extendqisi2
 922 006a 1A70     		strb	r2, [r3]
ARM GAS  C:\Users\Runeg\AppData\Local\Temp\cc9mCJok.s 			page 25


 333:..\..\..\common\hw\include/packet.h **** 
 334:..\..\..\common\hw\include/packet.h ****   (*to)->data_len = sizeof(packet->container) + sizeof(packet->amount);
 923              		.loc 2 334 0
 924 006c 7B68     		ldr	r3, [r7, #4]
 925 006e 1B68     		ldr	r3, [r3]
 926 0070 0222     		movs	r2, #2
 927 0072 9A60     		str	r2, [r3, #8]
 335:..\..\..\common\hw\include/packet.h ****   return 0;
 928              		.loc 2 335 0
 929 0074 0023     		movs	r3, #0
 930              	.L47:
 336:..\..\..\common\hw\include/packet.h **** }
 931              		.loc 2 336 0
 932 0076 1846     		mov	r0, r3
 933 0078 1037     		adds	r7, r7, #16
 934              		.cfi_def_cfa_offset 8
 935 007a BD46     		mov	sp, r7
 936              		.cfi_def_cfa_register 13
 937              		@ sp needed
 938 007c 80BD     		pop	{r7, pc}
 939              		.cfi_endproc
 940              	.LFE13:
 941              		.size	dmc_packet_marshal_fluid_pour_requested, .-dmc_packet_marshal_fluid_pour_requested
 942              		.global	queue_size
 943 007e 00BF     		.bss
 944              		.align	2
 945              		.type	queue_size, %object
 946              		.size	queue_size, 4
 947              	queue_size:
 948 0000 00000000 		.space	4
 949              		.comm	queue,80,4
 950              		.section	.text.job_enqueue,"ax",%progbits
 951              		.align	2
 952              		.global	job_enqueue
 953              		.thumb
 954              		.thumb_func
 955              		.type	job_enqueue, %function
 956              	job_enqueue:
 957              	.LFB15:
 958              		.file 3 "job_queue_array.c"
   1:job_queue_array.c **** #include "job_queue.h"
   2:job_queue_array.c **** 
   3:job_queue_array.c **** #define MAX_QUEUE_JOBS 10
   4:job_queue_array.c **** 
   5:job_queue_array.c **** volatile int        queue_size = 0;
   6:job_queue_array.c **** volatile struct job queue[MAX_QUEUE_JOBS];
   7:job_queue_array.c **** 
   8:job_queue_array.c **** void job_enqueue(enum job_type type, void *data)
   9:job_queue_array.c **** {
 959              		.loc 3 9 0
 960              		.cfi_startproc
 961              		@ args = 0, pretend = 0, frame = 8
 962              		@ frame_needed = 1, uses_anonymous_args = 0
 963              		@ link register save eliminated.
 964 0000 80B4     		push	{r7}
 965              		.cfi_def_cfa_offset 4
 966              		.cfi_offset 7, -4
ARM GAS  C:\Users\Runeg\AppData\Local\Temp\cc9mCJok.s 			page 26


 967 0002 83B0     		sub	sp, sp, #12
 968              		.cfi_def_cfa_offset 16
 969 0004 00AF     		add	r7, sp, #0
 970              		.cfi_def_cfa_register 7
 971 0006 0346     		mov	r3, r0
 972 0008 3960     		str	r1, [r7]
 973 000a FB71     		strb	r3, [r7, #7]
  10:job_queue_array.c ****   if (queue_size == MAX_QUEUE_JOBS)
 974              		.loc 3 10 0
 975 000c 0D4B     		ldr	r3, .L54
 976 000e 1B68     		ldr	r3, [r3]
 977 0010 0A2B     		cmp	r3, #10
 978 0012 12D0     		beq	.L53
  11:job_queue_array.c ****   {
  12:job_queue_array.c ****     return;
  13:job_queue_array.c ****   }
  14:job_queue_array.c **** 
  15:job_queue_array.c ****   queue[queue_size].type = type;
 979              		.loc 3 15 0
 980 0014 0B4B     		ldr	r3, .L54
 981 0016 1B68     		ldr	r3, [r3]
 982 0018 0B49     		ldr	r1, .L54+4
 983 001a FA79     		ldrb	r2, [r7, #7]
 984 001c 01F83320 		strb	r2, [r1, r3, lsl #3]
  16:job_queue_array.c ****   queue[queue_size].data = data;
 985              		.loc 3 16 0
 986 0020 084B     		ldr	r3, .L54
 987 0022 1B68     		ldr	r3, [r3]
 988 0024 084A     		ldr	r2, .L54+4
 989 0026 DB00     		lsls	r3, r3, #3
 990 0028 1344     		add	r3, r3, r2
 991 002a 3A68     		ldr	r2, [r7]
 992 002c 5A60     		str	r2, [r3, #4]
  17:job_queue_array.c ****   queue_size++;
 993              		.loc 3 17 0
 994 002e 054B     		ldr	r3, .L54
 995 0030 1B68     		ldr	r3, [r3]
 996 0032 0133     		adds	r3, r3, #1
 997 0034 034A     		ldr	r2, .L54
 998 0036 1360     		str	r3, [r2]
 999 0038 00E0     		b	.L50
 1000              	.L53:
  12:job_queue_array.c ****   }
 1001              		.loc 3 12 0
 1002 003a 00BF     		nop
 1003              	.L50:
  18:job_queue_array.c **** }
 1004              		.loc 3 18 0
 1005 003c 0C37     		adds	r7, r7, #12
 1006              		.cfi_def_cfa_offset 4
 1007 003e BD46     		mov	sp, r7
 1008              		.cfi_def_cfa_register 13
 1009              		@ sp needed
 1010 0040 80BC     		pop	{r7}
 1011              		.cfi_restore 7
 1012              		.cfi_def_cfa_offset 0
 1013 0042 7047     		bx	lr
ARM GAS  C:\Users\Runeg\AppData\Local\Temp\cc9mCJok.s 			page 27


 1014              	.L55:
 1015              		.align	2
 1016              	.L54:
 1017 0044 00000000 		.word	queue_size
 1018 0048 00000000 		.word	queue
 1019              		.cfi_endproc
 1020              	.LFE15:
 1021              		.size	job_enqueue, .-job_enqueue
 1022              		.section	.text.job_dequeue,"ax",%progbits
 1023              		.align	2
 1024              		.global	job_dequeue
 1025              		.thumb
 1026              		.thumb_func
 1027              		.type	job_dequeue, %function
 1028              	job_dequeue:
 1029              	.LFB16:
  19:job_queue_array.c **** 
  20:job_queue_array.c **** int job_dequeue(struct job* next)
  21:job_queue_array.c **** {
 1030              		.loc 3 21 0
 1031              		.cfi_startproc
 1032              		@ args = 0, pretend = 0, frame = 16
 1033              		@ frame_needed = 1, uses_anonymous_args = 0
 1034              		@ link register save eliminated.
 1035 0000 80B4     		push	{r7}
 1036              		.cfi_def_cfa_offset 4
 1037              		.cfi_offset 7, -4
 1038 0002 85B0     		sub	sp, sp, #20
 1039              		.cfi_def_cfa_offset 24
 1040 0004 00AF     		add	r7, sp, #0
 1041              		.cfi_def_cfa_register 7
 1042 0006 7860     		str	r0, [r7, #4]
  22:job_queue_array.c ****   if (queue_size == 0)
 1043              		.loc 3 22 0
 1044 0008 174B     		ldr	r3, .L61
 1045 000a 1B68     		ldr	r3, [r3]
 1046 000c 002B     		cmp	r3, #0
 1047 000e 01D1     		bne	.L57
  23:job_queue_array.c ****     return 1;
 1048              		.loc 3 23 0
 1049 0010 0123     		movs	r3, #1
 1050 0012 23E0     		b	.L58
 1051              	.L57:
  24:job_queue_array.c **** 
  25:job_queue_array.c ****   *next = queue[0];
 1052              		.loc 3 25 0
 1053 0014 7B68     		ldr	r3, [r7, #4]
 1054 0016 154A     		ldr	r2, .L61+4
 1055 0018 92E80300 		ldmia	r2, {r0, r1}
 1056 001c 83E80300 		stmia	r3, {r0, r1}
 1057              	.LBB2:
  26:job_queue_array.c **** 
  27:job_queue_array.c ****   // Shift elements downwards
  28:job_queue_array.c ****   for (int i = 1; i < queue_size; i++)
 1058              		.loc 3 28 0
 1059 0020 0123     		movs	r3, #1
 1060 0022 FB60     		str	r3, [r7, #12]
ARM GAS  C:\Users\Runeg\AppData\Local\Temp\cc9mCJok.s 			page 28


 1061 0024 0FE0     		b	.L59
 1062              	.L60:
  29:job_queue_array.c ****   {
  30:job_queue_array.c ****     queue[i - 1] = queue[i];
 1063              		.loc 3 30 0 discriminator 3
 1064 0026 FB68     		ldr	r3, [r7, #12]
 1065 0028 013B     		subs	r3, r3, #1
 1066 002a 1048     		ldr	r0, .L61+4
 1067 002c 0F49     		ldr	r1, .L61+4
 1068 002e FA68     		ldr	r2, [r7, #12]
 1069 0030 DB00     		lsls	r3, r3, #3
 1070 0032 0344     		add	r3, r3, r0
 1071 0034 D200     		lsls	r2, r2, #3
 1072 0036 0A44     		add	r2, r2, r1
 1073 0038 92E80300 		ldmia	r2, {r0, r1}
 1074 003c 83E80300 		stmia	r3, {r0, r1}
  28:job_queue_array.c ****   {
 1075              		.loc 3 28 0 discriminator 3
 1076 0040 FB68     		ldr	r3, [r7, #12]
 1077 0042 0133     		adds	r3, r3, #1
 1078 0044 FB60     		str	r3, [r7, #12]
 1079              	.L59:
  28:job_queue_array.c ****   {
 1080              		.loc 3 28 0 is_stmt 0 discriminator 1
 1081 0046 084B     		ldr	r3, .L61
 1082 0048 1B68     		ldr	r3, [r3]
 1083 004a FA68     		ldr	r2, [r7, #12]
 1084 004c 9A42     		cmp	r2, r3
 1085 004e EADB     		blt	.L60
 1086              	.LBE2:
  31:job_queue_array.c ****   }
  32:job_queue_array.c **** 
  33:job_queue_array.c ****   queue_size--;
 1087              		.loc 3 33 0 is_stmt 1
 1088 0050 054B     		ldr	r3, .L61
 1089 0052 1B68     		ldr	r3, [r3]
 1090 0054 013B     		subs	r3, r3, #1
 1091 0056 044A     		ldr	r2, .L61
 1092 0058 1360     		str	r3, [r2]
  34:job_queue_array.c ****   return 0;
 1093              		.loc 3 34 0
 1094 005a 0023     		movs	r3, #0
 1095              	.L58:
  35:job_queue_array.c **** }
 1096              		.loc 3 35 0
 1097 005c 1846     		mov	r0, r3
 1098 005e 1437     		adds	r7, r7, #20
 1099              		.cfi_def_cfa_offset 4
 1100 0060 BD46     		mov	sp, r7
 1101              		.cfi_def_cfa_register 13
 1102              		@ sp needed
 1103 0062 80BC     		pop	{r7}
 1104              		.cfi_restore 7
 1105              		.cfi_def_cfa_offset 0
 1106 0064 7047     		bx	lr
 1107              	.L62:
 1108 0066 00BF     		.align	2
ARM GAS  C:\Users\Runeg\AppData\Local\Temp\cc9mCJok.s 			page 29


 1109              	.L61:
 1110 0068 00000000 		.word	queue_size
 1111 006c 00000000 		.word	queue
 1112              		.cfi_endproc
 1113              	.LFE16:
 1114              		.size	job_dequeue, .-job_dequeue
 1115              		.section	.text.job_enqueue_packet,"ax",%progbits
 1116              		.align	2
 1117              		.global	job_enqueue_packet
 1118              		.thumb
 1119              		.thumb_func
 1120              		.type	job_enqueue_packet, %function
 1121              	job_enqueue_packet:
 1122              	.LFB17:
  36:job_queue_array.c **** 
  37:job_queue_array.c **** void job_enqueue_packet(struct dmc_packet *packet)
  38:job_queue_array.c **** {
 1123              		.loc 3 38 0
 1124              		.cfi_startproc
 1125              		@ args = 0, pretend = 0, frame = 8
 1126              		@ frame_needed = 1, uses_anonymous_args = 0
 1127 0000 80B5     		push	{r7, lr}
 1128              		.cfi_def_cfa_offset 8
 1129              		.cfi_offset 7, -8
 1130              		.cfi_offset 14, -4
 1131 0002 82B0     		sub	sp, sp, #8
 1132              		.cfi_def_cfa_offset 16
 1133 0004 00AF     		add	r7, sp, #0
 1134              		.cfi_def_cfa_register 7
 1135 0006 7860     		str	r0, [r7, #4]
  39:job_queue_array.c ****   // Enqueue packet
  40:job_queue_array.c ****   job_enqueue(JOB_TYPE_PACKET, (void *)packet);
 1136              		.loc 3 40 0
 1137 0008 7968     		ldr	r1, [r7, #4]
 1138 000a 0120     		movs	r0, #1
 1139 000c FFF7FEFF 		bl	job_enqueue
  41:job_queue_array.c **** }
 1140              		.loc 3 41 0
 1141 0010 00BF     		nop
 1142 0012 0837     		adds	r7, r7, #8
 1143              		.cfi_def_cfa_offset 8
 1144 0014 BD46     		mov	sp, r7
 1145              		.cfi_def_cfa_register 13
 1146              		@ sp needed
 1147 0016 80BD     		pop	{r7, pc}
 1148              		.cfi_endproc
 1149              	.LFE17:
 1150              		.size	job_enqueue_packet, .-job_enqueue_packet
 1151              		.section	.text.job_enqueue_timer,"ax",%progbits
 1152              		.align	2
 1153              		.global	job_enqueue_timer
 1154              		.thumb
 1155              		.thumb_func
 1156              		.type	job_enqueue_timer, %function
 1157              	job_enqueue_timer:
 1158              	.LFB18:
  42:job_queue_array.c **** 
ARM GAS  C:\Users\Runeg\AppData\Local\Temp\cc9mCJok.s 			page 30


  43:job_queue_array.c **** void job_enqueue_timer(struct dmc_timer_action* action)
  44:job_queue_array.c **** {
 1159              		.loc 3 44 0
 1160              		.cfi_startproc
 1161              		@ args = 0, pretend = 0, frame = 8
 1162              		@ frame_needed = 1, uses_anonymous_args = 0
 1163 0000 80B5     		push	{r7, lr}
 1164              		.cfi_def_cfa_offset 8
 1165              		.cfi_offset 7, -8
 1166              		.cfi_offset 14, -4
 1167 0002 82B0     		sub	sp, sp, #8
 1168              		.cfi_def_cfa_offset 16
 1169 0004 00AF     		add	r7, sp, #0
 1170              		.cfi_def_cfa_register 7
 1171 0006 7860     		str	r0, [r7, #4]
  45:job_queue_array.c ****   job_enqueue(JOB_TYPE_TIMER, (void*)action);
 1172              		.loc 3 45 0
 1173 0008 7968     		ldr	r1, [r7, #4]
 1174 000a 0220     		movs	r0, #2
 1175 000c FFF7FEFF 		bl	job_enqueue
  46:job_queue_array.c **** }
 1176              		.loc 3 46 0
 1177 0010 00BF     		nop
 1178 0012 0837     		adds	r7, r7, #8
 1179              		.cfi_def_cfa_offset 8
 1180 0014 BD46     		mov	sp, r7
 1181              		.cfi_def_cfa_register 13
 1182              		@ sp needed
 1183 0016 80BD     		pop	{r7, pc}
 1184              		.cfi_endproc
 1185              	.LFE18:
 1186              		.size	job_enqueue_timer, .-job_enqueue_timer
 1187              		.text
 1188              	.Letext0:
 1189              		.file 4 "c:\\program files (x86)\\cypress\\psoc creator\\4.4\\psoc creator\\import\\gnu\\arm\\5.4.
 1190              		.file 5 "c:\\program files (x86)\\cypress\\psoc creator\\4.4\\psoc creator\\import\\gnu\\arm\\5.4.
 1191              		.file 6 "c:\\program files (x86)\\cypress\\psoc creator\\4.4\\psoc creator\\import\\gnu\\arm\\5.4.
 1192              		.file 7 "timers.h"
 1193              		.file 8 "job_queue.h"