ARM GAS  C:\Users\Runeg\AppData\Local\Temp\ccVhbwSU.s 			page 1


   1              		.syntax unified
   2              		.cpu cortex-m3
   3              		.fpu softvfp
   4              		.eabi_attribute 20, 1
   5              		.eabi_attribute 21, 1
   6              		.eabi_attribute 23, 3
   7              		.eabi_attribute 24, 1
   8              		.eabi_attribute 25, 1
   9              		.eabi_attribute 26, 1
  10              		.eabi_attribute 30, 1
  11              		.eabi_attribute 34, 1
  12              		.eabi_attribute 18, 4
  13              		.thumb
  14              		.syntax unified
  15              		.file	"main.c"
  16              		.text
  17              	.Ltext0:
  18              		.cfi_sections	.debug_frame
  19              		.section	.text.dmc_packet_unmarshal_fluid_pour_requested,"ax",%progbits
  20              		.align	2
  21              		.thumb
  22              		.thumb_func
  23              		.type	dmc_packet_unmarshal_fluid_pour_requested, %function
  24              	dmc_packet_unmarshal_fluid_pour_requested:
  25              	.LFB10:
  26              		.file 1 "..\\..\\..\\common\\hw\\include\\packet.h"
   1:..\..\..\common\hw\include/packet.h **** #ifndef DMC_PACKET_H
   2:..\..\..\common\hw\include/packet.h **** #define DMC_PACKET_H
   3:..\..\..\common\hw\include/packet.h **** 
   4:..\..\..\common\hw\include/packet.h **** #include "base_packet.h"
   5:..\..\..\common\hw\include/packet.h **** 
   6:..\..\..\common\hw\include/packet.h **** #ifdef MODULE
   7:..\..\..\common\hw\include/packet.h **** #include <linux/types.h>
   8:..\..\..\common\hw\include/packet.h **** #else
   9:..\..\..\common\hw\include/packet.h **** #include <stdint.h>
  10:..\..\..\common\hw\include/packet.h **** #endif
  11:..\..\..\common\hw\include/packet.h **** 
  12:..\..\..\common\hw\include/packet.h **** /**
  13:..\..\..\common\hw\include/packet.h ****  * @brief Reason codes for why the machine is out of order
  14:..\..\..\common\hw\include/packet.h ****  */
  15:..\..\..\common\hw\include/packet.h **** enum dmc_packet_out_of_order_reason
  16:..\..\..\common\hw\include/packet.h **** {
  17:..\..\..\common\hw\include/packet.h ****   /**
  18:..\..\..\common\hw\include/packet.h ****    * @brief An unknown error has occured
  19:..\..\..\common\hw\include/packet.h ****    */
  20:..\..\..\common\hw\include/packet.h ****   DMC_PACKET_OUT_OF_ORDER_REASON_UNKNOWN = 0,
  21:..\..\..\common\hw\include/packet.h **** 
  22:..\..\..\common\hw\include/packet.h ****   /**
  23:..\..\..\common\hw\include/packet.h ****    * @brief The machine detected that a fluid container 1
  24:..\..\..\common\hw\include/packet.h ****    * was removed from the machine
  25:..\..\..\common\hw\include/packet.h ****    */
  26:..\..\..\common\hw\include/packet.h ****   DMC_PACKET_OUT_OF_ORDER_REASON_FLUID_CONTAINER_1_REMOVED = 1,
  27:..\..\..\common\hw\include/packet.h **** 
  28:..\..\..\common\hw\include/packet.h ****   /**
  29:..\..\..\common\hw\include/packet.h ****    * @brief The machine detected that a fluid container 2
  30:..\..\..\common\hw\include/packet.h ****    * was removed from the machine
  31:..\..\..\common\hw\include/packet.h ****    */
ARM GAS  C:\Users\Runeg\AppData\Local\Temp\ccVhbwSU.s 			page 2


  32:..\..\..\common\hw\include/packet.h ****   DMC_PACKET_OUT_OF_ORDER_REASON_FLUID_CONTAINER_2_REMOVED = 2,
  33:..\..\..\common\hw\include/packet.h **** 
  34:..\..\..\common\hw\include/packet.h ****   /**
  35:..\..\..\common\hw\include/packet.h ****    * @brief The machine detected that a fluid container 3
  36:..\..\..\common\hw\include/packet.h ****    * was removed from the machine
  37:..\..\..\common\hw\include/packet.h ****    */
  38:..\..\..\common\hw\include/packet.h ****   DMC_PACKET_OUT_OF_ORDER_REASON_FLUID_CONTAINER_3_REMOVED = 3,
  39:..\..\..\common\hw\include/packet.h **** };
  40:..\..\..\common\hw\include/packet.h **** 
  41:..\..\..\common\hw\include/packet.h **** /**
  42:..\..\..\common\hw\include/packet.h ****  * @brief Packet declaring machine is out of order with a reason code. So errors
  43:..\..\..\common\hw\include/packet.h ****  * can be viewed on the touch screen UI.
  44:..\..\..\common\hw\include/packet.h ****  *
  45:..\..\..\common\hw\include/packet.h ****  * Direction: PSoC -> RPi
  46:..\..\..\common\hw\include/packet.h ****  */
  47:..\..\..\common\hw\include/packet.h **** struct dmc_packet_out_of_order
  48:..\..\..\common\hw\include/packet.h **** {
  49:..\..\..\common\hw\include/packet.h ****   /**
  50:..\..\..\common\hw\include/packet.h ****    * @brief The reason code for the machine to be out of order. See enum
  51:..\..\..\common\hw\include/packet.h ****    * dmc_packet_out_of_order_reason for what the codes mean
  52:..\..\..\common\hw\include/packet.h ****    */
  53:..\..\..\common\hw\include/packet.h ****   enum dmc_packet_out_of_order_reason reason;
  54:..\..\..\common\hw\include/packet.h **** };
  55:..\..\..\common\hw\include/packet.h **** 
  56:..\..\..\common\hw\include/packet.h **** /**
  57:..\..\..\common\hw\include/packet.h ****  * @brief Unmarshal data into out of order packet from base packet
  58:..\..\..\common\hw\include/packet.h ****  */
  59:..\..\..\common\hw\include/packet.h **** static int
  60:..\..\..\common\hw\include/packet.h **** dmc_packet_unmarshal_out_of_order(struct dmc_packet_out_of_order *packet,
  61:..\..\..\common\hw\include/packet.h ****                                   struct dmc_packet              *from)
  62:..\..\..\common\hw\include/packet.h **** {
  63:..\..\..\common\hw\include/packet.h ****   if (from->type != DMC_PACKET_OUT_OF_ORDER)
  64:..\..\..\common\hw\include/packet.h ****   {
  65:..\..\..\common\hw\include/packet.h ****     return -1;
  66:..\..\..\common\hw\include/packet.h ****   }
  67:..\..\..\common\hw\include/packet.h **** 
  68:..\..\..\common\hw\include/packet.h ****   uint8_t offset = 0;
  69:..\..\..\common\hw\include/packet.h ****   packet->reason = *(uint8_t *)(from->data + offset);
  70:..\..\..\common\hw\include/packet.h **** 
  71:..\..\..\common\hw\include/packet.h ****   return 0;
  72:..\..\..\common\hw\include/packet.h **** }
  73:..\..\..\common\hw\include/packet.h **** 
  74:..\..\..\common\hw\include/packet.h **** /**
  75:..\..\..\common\hw\include/packet.h ****  * @brief Marshal out of order packet struct into base packet
  76:..\..\..\common\hw\include/packet.h ****  */
  77:..\..\..\common\hw\include/packet.h **** static int
  78:..\..\..\common\hw\include/packet.h **** dmc_packet_marshal_out_of_order(struct dmc_packet              *to,
  79:..\..\..\common\hw\include/packet.h ****                                 struct dmc_packet_out_of_order *packet)
  80:..\..\..\common\hw\include/packet.h **** {
  81:..\..\..\common\hw\include/packet.h ****   if (to == NULL)
  82:..\..\..\common\hw\include/packet.h ****   {
  83:..\..\..\common\hw\include/packet.h ****     to = dmc_packet_init(DMC_PACKET_OUT_OF_ORDER);
  84:..\..\..\common\hw\include/packet.h ****   }
  85:..\..\..\common\hw\include/packet.h ****   if (to->type != DMC_PACKET_OUT_OF_ORDER)
  86:..\..\..\common\hw\include/packet.h ****   {
  87:..\..\..\common\hw\include/packet.h ****     return -1;
  88:..\..\..\common\hw\include/packet.h ****   }
ARM GAS  C:\Users\Runeg\AppData\Local\Temp\ccVhbwSU.s 			page 3


  89:..\..\..\common\hw\include/packet.h **** 
  90:..\..\..\common\hw\include/packet.h ****   uint8_t offset                  = 0;
  91:..\..\..\common\hw\include/packet.h ****   *(uint8_t *)(to->data + offset) = packet->reason;
  92:..\..\..\common\hw\include/packet.h **** 
  93:..\..\..\common\hw\include/packet.h ****   return 0;
  94:..\..\..\common\hw\include/packet.h **** }
  95:..\..\..\common\hw\include/packet.h **** 
  96:..\..\..\common\hw\include/packet.h **** /**
  97:..\..\..\common\hw\include/packet.h ****  * @brief Packet declaring that a new weight measurement has been made.
  98:..\..\..\common\hw\include/packet.h ****  *
  99:..\..\..\common\hw\include/packet.h ****  * Direction: PSoC -> RPi
 100:..\..\..\common\hw\include/packet.h ****  */
 101:..\..\..\common\hw\include/packet.h **** struct dmc_packet_container_weight_measured
 102:..\..\..\common\hw\include/packet.h **** {
 103:..\..\..\common\hw\include/packet.h ****   /**
 104:..\..\..\common\hw\include/packet.h ****    * @brief The container the measurement was from. Ranging from 0-2
 105:..\..\..\common\hw\include/packet.h ****    */
 106:..\..\..\common\hw\include/packet.h ****   uint8_t container;
 107:..\..\..\common\hw\include/packet.h **** 
 108:..\..\..\common\hw\include/packet.h ****   /**
 109:..\..\..\common\hw\include/packet.h ****    * @brief Weight measured in grams
 110:..\..\..\common\hw\include/packet.h ****    */
 111:..\..\..\common\hw\include/packet.h ****   int16_t weight;
 112:..\..\..\common\hw\include/packet.h **** };
 113:..\..\..\common\hw\include/packet.h **** 
 114:..\..\..\common\hw\include/packet.h **** /**
 115:..\..\..\common\hw\include/packet.h ****  * @brief Unmarshal data into container weight measured packet from base packet
 116:..\..\..\common\hw\include/packet.h ****  */
 117:..\..\..\common\hw\include/packet.h **** static int dmc_packet_unmarshal_container_weight_measured(
 118:..\..\..\common\hw\include/packet.h ****     struct dmc_packet_container_weight_measured *packet,
 119:..\..\..\common\hw\include/packet.h ****     struct dmc_packet                           *from)
 120:..\..\..\common\hw\include/packet.h **** {
 121:..\..\..\common\hw\include/packet.h ****   if (from->type != DMC_PACKET_CONTAINER_WEIGHT_MEASURED)
 122:..\..\..\common\hw\include/packet.h ****   {
 123:..\..\..\common\hw\include/packet.h ****     return -1;
 124:..\..\..\common\hw\include/packet.h ****   }
 125:..\..\..\common\hw\include/packet.h **** 
 126:..\..\..\common\hw\include/packet.h ****   uint8_t offset    = 0;
 127:..\..\..\common\hw\include/packet.h ****   packet->container = *(uint8_t *)(from->data + offset);
 128:..\..\..\common\hw\include/packet.h **** 
 129:..\..\..\common\hw\include/packet.h ****   offset += sizeof(packet->container); // Move offset of previous data
 130:..\..\..\common\hw\include/packet.h ****   packet->weight = *(uint16_t *)(from->data + offset);
 131:..\..\..\common\hw\include/packet.h **** 
 132:..\..\..\common\hw\include/packet.h ****   return 0;
 133:..\..\..\common\hw\include/packet.h **** }
 134:..\..\..\common\hw\include/packet.h **** 
 135:..\..\..\common\hw\include/packet.h **** /**
 136:..\..\..\common\hw\include/packet.h ****  * @brief Marshal container weight measured packet struct into base packet
 137:..\..\..\common\hw\include/packet.h ****  */
 138:..\..\..\common\hw\include/packet.h **** static int dmc_packet_marshal_container_weight_measured(
 139:..\..\..\common\hw\include/packet.h ****     struct dmc_packet *to, struct dmc_packet_container_weight_measured *packet)
 140:..\..\..\common\hw\include/packet.h **** {
 141:..\..\..\common\hw\include/packet.h ****   if (to == NULL)
 142:..\..\..\common\hw\include/packet.h ****   {
 143:..\..\..\common\hw\include/packet.h ****     to = dmc_packet_init(DMC_PACKET_CONTAINER_WEIGHT_MEASURED);
 144:..\..\..\common\hw\include/packet.h ****   }
 145:..\..\..\common\hw\include/packet.h ****   if (to->type != DMC_PACKET_CONTAINER_WEIGHT_MEASURED)
ARM GAS  C:\Users\Runeg\AppData\Local\Temp\ccVhbwSU.s 			page 4


 146:..\..\..\common\hw\include/packet.h ****   {
 147:..\..\..\common\hw\include/packet.h ****     return -1;
 148:..\..\..\common\hw\include/packet.h ****   }
 149:..\..\..\common\hw\include/packet.h **** 
 150:..\..\..\common\hw\include/packet.h ****   uint8_t offset                  = 0;
 151:..\..\..\common\hw\include/packet.h ****   *(uint8_t *)(to->data + offset) = packet->container;
 152:..\..\..\common\hw\include/packet.h **** 
 153:..\..\..\common\hw\include/packet.h ****   offset += sizeof(packet->container); // Move offset of previous data
 154:..\..\..\common\hw\include/packet.h ****   *(int16_t *)(to->data + offset) = packet->weight;
 155:..\..\..\common\hw\include/packet.h **** 
 156:..\..\..\common\hw\include/packet.h ****   return 0;
 157:..\..\..\common\hw\include/packet.h **** }
 158:..\..\..\common\hw\include/packet.h **** 
 159:..\..\..\common\hw\include/packet.h **** /**
 160:..\..\..\common\hw\include/packet.h ****  * @brief Packet declaring that a new weight measurement.
 161:..\..\..\common\hw\include/packet.h ****  *
 162:..\..\..\common\hw\include/packet.h ****  * Direction: RPi -> PSoC
 163:..\..\..\common\hw\include/packet.h ****  */
 164:..\..\..\common\hw\include/packet.h **** struct dmc_packet_user_confirm
 165:..\..\..\common\hw\include/packet.h **** {
 166:..\..\..\common\hw\include/packet.h **** };
 167:..\..\..\common\hw\include/packet.h **** 
 168:..\..\..\common\hw\include/packet.h **** /**
 169:..\..\..\common\hw\include/packet.h ****  * @brief Unmarshal data into user confirm packet from base packet
 170:..\..\..\common\hw\include/packet.h ****  */
 171:..\..\..\common\hw\include/packet.h **** static int
 172:..\..\..\common\hw\include/packet.h **** dmc_packet_unmarshal_user_confirm(struct dmc_packet_user_confirm *packet,
 173:..\..\..\common\hw\include/packet.h ****                                   struct dmc_packet              *from)
 174:..\..\..\common\hw\include/packet.h **** {
 175:..\..\..\common\hw\include/packet.h ****   if (from->type != DMC_PACKET_USER_CONFIRM)
 176:..\..\..\common\hw\include/packet.h ****   {
 177:..\..\..\common\hw\include/packet.h ****     return -1;
 178:..\..\..\common\hw\include/packet.h ****   }
 179:..\..\..\common\hw\include/packet.h **** 
 180:..\..\..\common\hw\include/packet.h ****   return 0;
 181:..\..\..\common\hw\include/packet.h **** }
 182:..\..\..\common\hw\include/packet.h **** 
 183:..\..\..\common\hw\include/packet.h **** /**
 184:..\..\..\common\hw\include/packet.h ****  * @brief Marshal user confirm packet struct into base packet
 185:..\..\..\common\hw\include/packet.h ****  */
 186:..\..\..\common\hw\include/packet.h **** static int
 187:..\..\..\common\hw\include/packet.h **** dmc_packet_marshal_user_confirm(struct dmc_packet              *to,
 188:..\..\..\common\hw\include/packet.h ****                                 struct dmc_packet_user_confirm *packet)
 189:..\..\..\common\hw\include/packet.h **** {
 190:..\..\..\common\hw\include/packet.h ****   if (to == NULL)
 191:..\..\..\common\hw\include/packet.h ****   {
 192:..\..\..\common\hw\include/packet.h ****     to = dmc_packet_init(DMC_PACKET_USER_CONFIRM);
 193:..\..\..\common\hw\include/packet.h ****   }
 194:..\..\..\common\hw\include/packet.h ****   if (to->type != DMC_PACKET_USER_CONFIRM)
 195:..\..\..\common\hw\include/packet.h ****   {
 196:..\..\..\common\hw\include/packet.h ****     return -1;
 197:..\..\..\common\hw\include/packet.h ****   }
 198:..\..\..\common\hw\include/packet.h **** 
 199:..\..\..\common\hw\include/packet.h ****   return 0;
 200:..\..\..\common\hw\include/packet.h **** }
 201:..\..\..\common\hw\include/packet.h **** 
 202:..\..\..\common\hw\include/packet.h **** /**
ARM GAS  C:\Users\Runeg\AppData\Local\Temp\ccVhbwSU.s 			page 5


 203:..\..\..\common\hw\include/packet.h ****  * @brief Packet declaring that the machine should start to pour fluid.
 204:..\..\..\common\hw\include/packet.h ****  *
 205:..\..\..\common\hw\include/packet.h ****  * Direction: RPi -> PSoC
 206:..\..\..\common\hw\include/packet.h ****  */
 207:..\..\..\common\hw\include/packet.h **** struct dmc_packet_fluid_pour_requested
 208:..\..\..\common\hw\include/packet.h **** {
 209:..\..\..\common\hw\include/packet.h ****   /**
 210:..\..\..\common\hw\include/packet.h ****    * @brief The container to pour from. Ranging from 0-2
 211:..\..\..\common\hw\include/packet.h ****    */
 212:..\..\..\common\hw\include/packet.h ****   uint8_t container;
 213:..\..\..\common\hw\include/packet.h **** 
 214:..\..\..\common\hw\include/packet.h ****   /**
 215:..\..\..\common\hw\include/packet.h ****    * @brief Amount to pour in centiliters
 216:..\..\..\common\hw\include/packet.h ****    */
 217:..\..\..\common\hw\include/packet.h ****   uint8_t amount;
 218:..\..\..\common\hw\include/packet.h **** };
 219:..\..\..\common\hw\include/packet.h **** 
 220:..\..\..\common\hw\include/packet.h **** /**
 221:..\..\..\common\hw\include/packet.h ****  * @brief Unmarshal data into fluid pour requested packet from base packet
 222:..\..\..\common\hw\include/packet.h ****  */
 223:..\..\..\common\hw\include/packet.h **** static int dmc_packet_unmarshal_fluid_pour_requested(
 224:..\..\..\common\hw\include/packet.h ****     struct dmc_packet_fluid_pour_requested *packet, struct dmc_packet *from)
 225:..\..\..\common\hw\include/packet.h **** {
  27              		.loc 1 225 0
  28              		.cfi_startproc
  29              		@ args = 0, pretend = 0, frame = 0
  30              		@ frame_needed = 0, uses_anonymous_args = 0
  31              		@ link register save eliminated.
  32              	.LVL0:
 226:..\..\..\common\hw\include/packet.h ****   if (from->type != DMC_PACKET_FLUID_POUR_REQUESTED)
  33              		.loc 1 226 0
  34 0000 0B78     		ldrb	r3, [r1]	@ zero_extendqisi2
  35 0002 B22B     		cmp	r3, #178
  36 0004 07D1     		bne	.L3
  37              	.LVL1:
 227:..\..\..\common\hw\include/packet.h ****   {
 228:..\..\..\common\hw\include/packet.h ****     return -1;
 229:..\..\..\common\hw\include/packet.h ****   }
 230:..\..\..\common\hw\include/packet.h **** 
 231:..\..\..\common\hw\include/packet.h ****   uint8_t offset    = 0;
 232:..\..\..\common\hw\include/packet.h ****   packet->container = *(uint8_t *)(from->data + offset);
  38              		.loc 1 232 0
  39 0006 4B68     		ldr	r3, [r1, #4]
  40 0008 1B78     		ldrb	r3, [r3]	@ zero_extendqisi2
  41 000a 0370     		strb	r3, [r0]
  42              	.LVL2:
 233:..\..\..\common\hw\include/packet.h **** 
 234:..\..\..\common\hw\include/packet.h ****   offset += sizeof(packet->container); // Move offset of previous data
 235:..\..\..\common\hw\include/packet.h ****   packet->amount = *(uint8_t *)(from->data + offset);
  43              		.loc 1 235 0
  44 000c 4B68     		ldr	r3, [r1, #4]
  45 000e 5B78     		ldrb	r3, [r3, #1]	@ zero_extendqisi2
  46 0010 4370     		strb	r3, [r0, #1]
 236:..\..\..\common\hw\include/packet.h **** 
 237:..\..\..\common\hw\include/packet.h ****   return 0;
  47              		.loc 1 237 0
  48 0012 0020     		movs	r0, #0
ARM GAS  C:\Users\Runeg\AppData\Local\Temp\ccVhbwSU.s 			page 6


  49              	.LVL3:
  50 0014 7047     		bx	lr
  51              	.LVL4:
  52              	.L3:
 228:..\..\..\common\hw\include/packet.h ****   }
  53              		.loc 1 228 0
  54 0016 4FF0FF30 		mov	r0, #-1
  55              	.LVL5:
 238:..\..\..\common\hw\include/packet.h **** }
  56              		.loc 1 238 0
  57 001a 7047     		bx	lr
  58              		.cfi_endproc
  59              	.LFE10:
  60              		.size	dmc_packet_unmarshal_fluid_pour_requested, .-dmc_packet_unmarshal_fluid_pour_requested
  61              		.section	.text.dmc_packet_free,"ax",%progbits
  62              		.align	2
  63              		.thumb
  64              		.thumb_func
  65              		.type	dmc_packet_free, %function
  66              	dmc_packet_free:
  67              	.LFB1:
  68              		.file 2 "..\\..\\..\\common\\hw\\include\\base_packet.h"
   1:..\..\..\common\hw\include/base_packet.h **** #ifndef DMC_BASE_PACKET_H
   2:..\..\..\common\hw\include/base_packet.h **** #define DMC_BASE_PACKET_H
   3:..\..\..\common\hw\include/base_packet.h **** 
   4:..\..\..\common\hw\include/base_packet.h **** #ifdef MODULE // Include kernel space memory allocation with kmalloc
   5:..\..\..\common\hw\include/base_packet.h **** #include <linux/slab.h>
   6:..\..\..\common\hw\include/base_packet.h **** #else
   7:..\..\..\common\hw\include/base_packet.h **** #include <stdlib.h>
   8:..\..\..\common\hw\include/base_packet.h **** #endif
   9:..\..\..\common\hw\include/base_packet.h **** 
  10:..\..\..\common\hw\include/base_packet.h **** /**
  11:..\..\..\common\hw\include/base_packet.h ****  * @brief Type of packet. (MAYBE: MSB is required to be 1 as this signals a
  12:..\..\..\common\hw\include/base_packet.h ****  * header byte)
  13:..\..\..\common\hw\include/base_packet.h ****  */
  14:..\..\..\common\hw\include/base_packet.h **** enum dmc_packet_type
  15:..\..\..\common\hw\include/base_packet.h **** {
  16:..\..\..\common\hw\include/base_packet.h ****   DMC_PACKET_OUT_OF_ORDER              = 0b10000000,
  17:..\..\..\common\hw\include/base_packet.h ****   DMC_PACKET_CONTAINER_WEIGHT_MEASURED = 0b10010010,
  18:..\..\..\common\hw\include/base_packet.h ****   DMC_PACKET_USER_CONFIRM              = 0b10100000,
  19:..\..\..\common\hw\include/base_packet.h ****   DMC_PACKET_FLUID_POUR_REQUESTED      = 0b10110010,
  20:..\..\..\common\hw\include/base_packet.h **** };
  21:..\..\..\common\hw\include/base_packet.h **** 
  22:..\..\..\common\hw\include/base_packet.h **** struct dmc_packet
  23:..\..\..\common\hw\include/base_packet.h **** {
  24:..\..\..\common\hw\include/base_packet.h ****   /**
  25:..\..\..\common\hw\include/base_packet.h ****    * @brief Type of packet. This is the first byte received.
  26:..\..\..\common\hw\include/base_packet.h ****    */
  27:..\..\..\common\hw\include/base_packet.h ****   enum dmc_packet_type type;
  28:..\..\..\common\hw\include/base_packet.h **** 
  29:..\..\..\common\hw\include/base_packet.h ****   /**
  30:..\..\..\common\hw\include/base_packet.h ****    * @brief Data payload of packet
  31:..\..\..\common\hw\include/base_packet.h ****    */
  32:..\..\..\common\hw\include/base_packet.h ****   char *data;
  33:..\..\..\common\hw\include/base_packet.h **** 
  34:..\..\..\common\hw\include/base_packet.h ****   /**
  35:..\..\..\common\hw\include/base_packet.h ****    * @brief Length of payload in bytes.
ARM GAS  C:\Users\Runeg\AppData\Local\Temp\ccVhbwSU.s 			page 7


  36:..\..\..\common\hw\include/base_packet.h ****    */
  37:..\..\..\common\hw\include/base_packet.h ****   size_t data_len;
  38:..\..\..\common\hw\include/base_packet.h **** };
  39:..\..\..\common\hw\include/base_packet.h **** 
  40:..\..\..\common\hw\include/base_packet.h **** /**
  41:..\..\..\common\hw\include/base_packet.h ****  * @brief Allocates and initializes a packet with a type. Primarily
  42:..\..\..\common\hw\include/base_packet.h ****  * used when starting to read data from a given source.
  43:..\..\..\common\hw\include/base_packet.h ****  */
  44:..\..\..\common\hw\include/base_packet.h **** static struct dmc_packet *dmc_packet_init(enum dmc_packet_type type)
  45:..\..\..\common\hw\include/base_packet.h **** {
  46:..\..\..\common\hw\include/base_packet.h ****   unsigned char data_bytes = type & 0b00001111;
  47:..\..\..\common\hw\include/base_packet.h **** 
  48:..\..\..\common\hw\include/base_packet.h ****   // Allocate and initialize packet with default values
  49:..\..\..\common\hw\include/base_packet.h ****   struct dmc_packet *packet;
  50:..\..\..\common\hw\include/base_packet.h **** #ifdef MODULE // Differeniate between kernel and use space allocations
  51:..\..\..\common\hw\include/base_packet.h ****   packet = (struct dmc_packet *)kmalloc(sizeof(struct dmc_packet), GFP_KERNEL);
  52:..\..\..\common\hw\include/base_packet.h **** #else
  53:..\..\..\common\hw\include/base_packet.h ****   packet = (struct dmc_packet *)malloc(sizeof(struct dmc_packet));
  54:..\..\..\common\hw\include/base_packet.h **** #endif
  55:..\..\..\common\hw\include/base_packet.h ****   packet->type     = type;
  56:..\..\..\common\hw\include/base_packet.h ****   packet->data_len = 0;
  57:..\..\..\common\hw\include/base_packet.h ****   packet->data     = NULL;
  58:..\..\..\common\hw\include/base_packet.h **** 
  59:..\..\..\common\hw\include/base_packet.h ****   // Allocate packet data if needed
  60:..\..\..\common\hw\include/base_packet.h ****   if (data_bytes > 0)
  61:..\..\..\common\hw\include/base_packet.h ****   {
  62:..\..\..\common\hw\include/base_packet.h **** #ifdef MODULE // Differeniate between kernel and use space allocations
  63:..\..\..\common\hw\include/base_packet.h ****     packet->data = (char *)kmalloc(sizeof(char) * data_bytes, GFP_KERNEL);
  64:..\..\..\common\hw\include/base_packet.h **** #else
  65:..\..\..\common\hw\include/base_packet.h ****     packet->data = (char *)malloc(sizeof(char) * data_bytes);
  66:..\..\..\common\hw\include/base_packet.h **** #endif
  67:..\..\..\common\hw\include/base_packet.h ****   }
  68:..\..\..\common\hw\include/base_packet.h **** 
  69:..\..\..\common\hw\include/base_packet.h ****   return packet;
  70:..\..\..\common\hw\include/base_packet.h **** }
  71:..\..\..\common\hw\include/base_packet.h **** 
  72:..\..\..\common\hw\include/base_packet.h **** /**
  73:..\..\..\common\hw\include/base_packet.h ****  * @brief De-allocate packet and its data
  74:..\..\..\common\hw\include/base_packet.h ****  */
  75:..\..\..\common\hw\include/base_packet.h **** static void dmc_packet_free(struct dmc_packet *packet)
  76:..\..\..\common\hw\include/base_packet.h **** {
  69              		.loc 2 76 0
  70              		.cfi_startproc
  71              		@ args = 0, pretend = 0, frame = 0
  72              		@ frame_needed = 0, uses_anonymous_args = 0
  73              	.LVL6:
  74 0000 10B5     		push	{r4, lr}
  75              		.cfi_def_cfa_offset 8
  76              		.cfi_offset 4, -8
  77              		.cfi_offset 14, -4
  78 0002 0446     		mov	r4, r0
  77:..\..\..\common\hw\include/base_packet.h **** #ifdef MODULE // Differeniate between kernel and use space de-allocations
  78:..\..\..\common\hw\include/base_packet.h ****   kfree((void *)packet->data);
  79:..\..\..\common\hw\include/base_packet.h ****   kfree((void *)packet);
  80:..\..\..\common\hw\include/base_packet.h **** #else
  81:..\..\..\common\hw\include/base_packet.h ****   free((void *)packet->data);
  79              		.loc 2 81 0
ARM GAS  C:\Users\Runeg\AppData\Local\Temp\ccVhbwSU.s 			page 8


  80 0004 4068     		ldr	r0, [r0, #4]
  81              	.LVL7:
  82 0006 FFF7FEFF 		bl	free
  83              	.LVL8:
  82:..\..\..\common\hw\include/base_packet.h ****   free((void *)packet);
  84              		.loc 2 82 0
  85 000a 2046     		mov	r0, r4
  86 000c FFF7FEFF 		bl	free
  87              	.LVL9:
  88 0010 10BD     		pop	{r4, pc}
  89              		.cfi_endproc
  90              	.LFE1:
  91              		.size	dmc_packet_free, .-dmc_packet_free
  92 0012 00BF     		.section	.text.weight_to_cl,"ax",%progbits
  93              		.align	2
  94              		.global	weight_to_cl
  95              		.thumb
  96              		.thumb_func
  97              		.type	weight_to_cl, %function
  98              	weight_to_cl:
  99              	.LFB13:
 100              		.file 3 "main.c"
   1:main.c        **** /* ========================================
   2:main.c        ****  *
   3:main.c        ****  * Copyright YOUR COMPANY, THE YEAR
   4:main.c        ****  * All Rights Reserved
   5:main.c        ****  * UNPUBLISHED, LICENSED SOFTWARE.
   6:main.c        ****  *
   7:main.c        ****  * CONFIDENTIAL AND PROPRIETARY INFORMATION
   8:main.c        ****  * WHICH IS THE PROPERTY OF your company.
   9:main.c        ****  *
  10:main.c        ****  * ========================================
  11:main.c        **** */
  12:main.c        **** //#include "project.h"
  13:main.c        **** #include "packet_uart.h"
  14:main.c        **** #include "job_queue.h"
  15:main.c        **** #include "pump_control.h"
  16:main.c        **** #include <stdio.h>
  17:main.c        **** #include "weight.h"
  18:main.c        **** #include "flags.h"
  19:main.c        **** 
  20:main.c        **** int MAX_VOLUME_IN_CONTAINER = 70;
  21:main.c        **** int PROCENTAGE_OF_MAX = 5;
  22:main.c        **** 
  23:main.c        **** 
  24:main.c        **** int weight_to_cl(enum dmc_weight_number weight_to_calculate)
  25:main.c        **** {
 101              		.loc 3 25 0
 102              		.cfi_startproc
 103              		@ args = 0, pretend = 0, frame = 0
 104              		@ frame_needed = 0, uses_anonymous_args = 0
 105              	.LVL10:
 106 0000 10B5     		push	{r4, lr}
 107              		.cfi_def_cfa_offset 8
 108              		.cfi_offset 4, -8
 109              		.cfi_offset 14, -4
  26:main.c        ****     select_weight(weight_to_calculate);
ARM GAS  C:\Users\Runeg\AppData\Local\Temp\ccVhbwSU.s 			page 9


 110              		.loc 3 26 0
 111 0002 FFF7FEFF 		bl	select_weight
 112              	.LVL11:
  27:main.c        ****     
  28:main.c        ****     return ((((current_weight->result - current_weight->min) * 1000)  
 113              		.loc 3 28 0
 114 0006 0A4B     		ldr	r3, .L8
 115 0008 1968     		ldr	r1, [r3]
 116 000a 4B68     		ldr	r3, [r1, #4]
 117 000c 0C69     		ldr	r4, [r1, #16]
 118 000e 1B1B     		subs	r3, r3, r4
 119 0010 4FF47A70 		mov	r0, #1000
 120 0014 00FB03F2 		mul	r2, r0, r3
  29:main.c        ****             /((current_weight->max - current_weight -> min)) * 1000))//this is used for calculating
 121              		.loc 3 29 0
 122 0018 4B69     		ldr	r3, [r1, #20]
 123 001a 1B1B     		subs	r3, r3, r4
 124 001c B2FBF3F3 		udiv	r3, r2, r3
  30:main.c        ****             * MAX_VOLUME_IN_CONTAINER;
 125              		.loc 3 30 0
 126 0020 044A     		ldr	r2, .L8+4
 127 0022 1268     		ldr	r2, [r2]
 128 0024 02FB03F3 		mul	r3, r2, r3
  31:main.c        **** }
 129              		.loc 3 31 0
 130 0028 00FB03F0 		mul	r0, r0, r3
 131 002c 10BD     		pop	{r4, pc}
 132              	.L9:
 133 002e 00BF     		.align	2
 134              	.L8:
 135 0030 00000000 		.word	current_weight
 136 0034 00000000 		.word	.LANCHOR0
 137              		.cfi_endproc
 138              	.LFE13:
 139              		.size	weight_to_cl, .-weight_to_cl
 140              		.global	__aeabi_ui2d
 141              		.global	__aeabi_dmul
 142              		.global	__aeabi_dadd
 143              		.global	__aeabi_dcmplt
 144              		.section	.text.is_weight_within_threshold,"ax",%progbits
 145              		.align	2
 146              		.global	is_weight_within_threshold
 147              		.thumb
 148              		.thumb_func
 149              		.type	is_weight_within_threshold, %function
 150              	is_weight_within_threshold:
 151              	.LFB14:
  32:main.c        **** 
  33:main.c        **** int is_weight_within_threshold(unsigned int* measured_weight)
  34:main.c        **** {
 152              		.loc 3 34 0
 153              		.cfi_startproc
 154              		@ args = 0, pretend = 0, frame = 0
 155              		@ frame_needed = 0, uses_anonymous_args = 0
 156              	.LVL12:
 157 0000 2DE9F047 		push	{r4, r5, r6, r7, r8, r9, r10, lr}
 158              		.cfi_def_cfa_offset 32
ARM GAS  C:\Users\Runeg\AppData\Local\Temp\ccVhbwSU.s 			page 10


 159              		.cfi_offset 4, -32
 160              		.cfi_offset 5, -28
 161              		.cfi_offset 6, -24
 162              		.cfi_offset 7, -20
 163              		.cfi_offset 8, -16
 164              		.cfi_offset 9, -12
 165              		.cfi_offset 10, -8
 166              		.cfi_offset 14, -4
 167 0004 0446     		mov	r4, r0
  35:main.c        ****     int upper_threshold;
  36:main.c        ****     int lower_threshold;
  37:main.c        ****     if (current_weight->result < (*measured_weight + 0.1*current_weight->max)  //implement upper & 
 168              		.loc 3 37 0
 169 0006 1A4B     		ldr	r3, .L18+8
 170 0008 1D68     		ldr	r5, [r3]
 171 000a D5F804A0 		ldr	r10, [r5, #4]
 172 000e 5046     		mov	r0, r10
 173              	.LVL13:
 174 0010 FFF7FEFF 		bl	__aeabi_ui2d
 175              	.LVL14:
 176 0014 0646     		mov	r6, r0
 177 0016 0F46     		mov	r7, r1
 178 0018 2468     		ldr	r4, [r4]
 179              	.LVL15:
 180 001a 6869     		ldr	r0, [r5, #20]
 181 001c FFF7FEFF 		bl	__aeabi_ui2d
 182              	.LVL16:
 183 0020 11A3     		adr	r3, .L18
 184 0022 D3E90023 		ldrd	r2, [r3]
 185 0026 FFF7FEFF 		bl	__aeabi_dmul
 186              	.LVL17:
 187 002a 8046     		mov	r8, r0
 188 002c 8946     		mov	r9, r1
 189 002e 2046     		mov	r0, r4
 190 0030 FFF7FEFF 		bl	__aeabi_ui2d
 191              	.LVL18:
 192 0034 4246     		mov	r2, r8
 193 0036 4B46     		mov	r3, r9
 194 0038 FFF7FEFF 		bl	__aeabi_dadd
 195              	.LVL19:
 196 003c 0246     		mov	r2, r0
 197 003e 0B46     		mov	r3, r1
 198 0040 3046     		mov	r0, r6
 199 0042 3946     		mov	r1, r7
 200 0044 FFF7FEFF 		bl	__aeabi_dcmplt
 201              	.LVL20:
 202 0048 28B1     		cbz	r0, .L16
  38:main.c        ****      && current_weight->result > (*measured_weight - 30)) //Make if return statement, assign de 2 s
 203              		.loc 3 38 0
 204 004a 1E3C     		subs	r4, r4, #30
 205 004c A245     		cmp	r10, r4
 206 004e 05D8     		bhi	.L14
  39:main.c        ****         return 1;
  40:main.c        ****     else return 0;
 207              		.loc 3 40 0
 208 0050 0020     		movs	r0, #0
 209 0052 BDE8F087 		pop	{r4, r5, r6, r7, r8, r9, r10, pc}
ARM GAS  C:\Users\Runeg\AppData\Local\Temp\ccVhbwSU.s 			page 11


 210              	.L16:
 211 0056 0020     		movs	r0, #0
 212 0058 BDE8F087 		pop	{r4, r5, r6, r7, r8, r9, r10, pc}
 213              	.L14:
  39:main.c        ****         return 1;
 214              		.loc 3 39 0
 215 005c 0120     		movs	r0, #1
  41:main.c        **** }
 216              		.loc 3 41 0
 217 005e BDE8F087 		pop	{r4, r5, r6, r7, r8, r9, r10, pc}
 218              	.L19:
 219 0062 00BFAFF3 		.align	3
 219      0080
 220              	.L18:
 221 0068 9A999999 		.word	-1717986918
 222 006c 9999B93F 		.word	1069128089
 223 0070 00000000 		.word	current_weight
 224              		.cfi_endproc
 225              	.LFE14:
 226              		.size	is_weight_within_threshold, .-is_weight_within_threshold
 227              		.section	.text.do_periodic_weight_check,"ax",%progbits
 228              		.align	2
 229              		.global	do_periodic_weight_check
 230              		.thumb
 231              		.thumb_func
 232              		.type	do_periodic_weight_check, %function
 233              	do_periodic_weight_check:
 234              	.LFB15:
  42:main.c        **** 
  43:main.c        **** void do_periodic_weight_check()
  44:main.c        **** {
 235              		.loc 3 44 0
 236              		.cfi_startproc
 237              		@ args = 0, pretend = 0, frame = 0
 238              		@ frame_needed = 0, uses_anonymous_args = 0
 239 0000 10B5     		push	{r4, lr}
 240              		.cfi_def_cfa_offset 8
 241              		.cfi_offset 4, -8
 242              		.cfi_offset 14, -4
 243              	.LVL21:
 244              	.LBB2:
  45:main.c        ****     for (enum dmc_weight_number weight_to_check = WEIGHT_1; weight_to_check <= WEIGHT_3; weight_to_
 245              		.loc 3 45 0
 246 0002 0124     		movs	r4, #1
 247 0004 0DE0     		b	.L21
 248              	.LVL22:
 249              	.L23:
 250              	.LBB3:
  46:main.c        ****     {
  47:main.c        ****         select_weight(weight_to_check);
 251              		.loc 3 47 0
 252 0006 2046     		mov	r0, r4
 253 0008 FFF7FEFF 		bl	select_weight
 254              	.LVL23:
  48:main.c        ****         unsigned int measured_weight = measure_weight(weight_to_check);
 255              		.loc 3 48 0
 256 000c 2046     		mov	r0, r4
ARM GAS  C:\Users\Runeg\AppData\Local\Temp\ccVhbwSU.s 			page 12


 257 000e FFF7FEFF 		bl	measure_weight
 258              	.LVL24:
  49:main.c        ****         if (!is_pumping)
 259              		.loc 3 49 0
 260 0012 054B     		ldr	r3, .L25
 261 0014 1B68     		ldr	r3, [r3]
 262 0016 13B1     		cbz	r3, .L22
  50:main.c        ****         {
  51:main.c        ****             if (!is_weight_within_threshold(&measured_weight)){} //Ignore measurement
  52:main.c        ****                 //SEND ERROR ON NO IM DIEING - SOMEBODY STOLE THE DAMN CONTAINER
  53:main.c        ****             else
  54:main.c        ****             //Make tara;
  55:main.c        ****             ;
  56:main.c        ****             //Husk at spørg om rækkefølge, giver det her mening?
  57:main.c        ****         }
  58:main.c        ****         else current_weight->result = measured_weight;        
 263              		.loc 3 58 0
 264 0018 044B     		ldr	r3, .L25+4
 265 001a 1B68     		ldr	r3, [r3]
 266 001c 5860     		str	r0, [r3, #4]
 267              	.L22:
 268              	.LVL25:
 269              	.LBE3:
  45:main.c        ****     {
 270              		.loc 3 45 0 discriminator 2
 271 001e 0134     		adds	r4, r4, #1
 272              	.LVL26:
 273 0020 E4B2     		uxtb	r4, r4
 274              	.LVL27:
 275              	.L21:
 276 0022 032C     		cmp	r4, #3
 277 0024 EFD9     		bls	.L23
 278              	.LBE2:
  59:main.c        ****     }
  60:main.c        **** }
 279              		.loc 3 60 0
 280 0026 10BD     		pop	{r4, pc}
 281              	.LVL28:
 282              	.L26:
 283              		.align	2
 284              	.L25:
 285 0028 00000000 		.word	.LANCHOR1
 286 002c 00000000 		.word	current_weight
 287              		.cfi_endproc
 288              	.LFE15:
 289              		.size	do_periodic_weight_check, .-do_periodic_weight_check
 290              		.section	.text.raise_flag,"ax",%progbits
 291              		.align	2
 292              		.global	raise_flag
 293              		.thumb
 294              		.thumb_func
 295              		.type	raise_flag, %function
 296              	raise_flag:
 297              	.LFB16:
  61:main.c        **** 
  62:main.c        **** 
  63:main.c        **** int raise_flag(struct dmc_packet *packet_to_check)
ARM GAS  C:\Users\Runeg\AppData\Local\Temp\ccVhbwSU.s 			page 13


  64:main.c        **** {
 298              		.loc 3 64 0
 299              		.cfi_startproc
 300              		@ args = 0, pretend = 0, frame = 0
 301              		@ frame_needed = 0, uses_anonymous_args = 0
 302              		@ link register save eliminated.
 303              	.LVL29:
  65:main.c        ****     switch(packet_to_check->type) {
 304              		.loc 3 65 0
 305 0000 0378     		ldrb	r3, [r0]	@ zero_extendqisi2
 306 0002 A02B     		cmp	r3, #160
 307 0004 01D1     		bne	.L31
  66:main.c        ****         case DMC_PACKET_USER_CONFIRM:
  67:main.c        ****         {
  68:main.c        ****             return 1;
 308              		.loc 3 68 0
 309 0006 0120     		movs	r0, #1
 310              	.LVL30:
 311 0008 7047     		bx	lr
 312              	.LVL31:
 313              	.L31:
  69:main.c        ****         }
  70:main.c        ****         default:
  71:main.c        ****             return 0;
 314              		.loc 3 71 0
 315 000a 0020     		movs	r0, #0
 316              	.LVL32:
  72:main.c        ****     }
  73:main.c        **** }
 317              		.loc 3 73 0
 318 000c 7047     		bx	lr
 319              		.cfi_endproc
 320              	.LFE16:
 321              		.size	raise_flag, .-raise_flag
 322 000e 00BF     		.section	.text.handle_packet,"ax",%progbits
 323              		.align	2
 324              		.global	handle_packet
 325              		.thumb
 326              		.thumb_func
 327              		.type	handle_packet, %function
 328              	handle_packet:
 329              	.LFB17:
  74:main.c        **** 
  75:main.c        **** void handle_packet(struct dmc_packet* packet){
 330              		.loc 3 75 0
 331              		.cfi_startproc
 332              		@ args = 0, pretend = 0, frame = 8
 333              		@ frame_needed = 0, uses_anonymous_args = 0
 334              	.LVL33:
 335 0000 10B5     		push	{r4, lr}
 336              		.cfi_def_cfa_offset 8
 337              		.cfi_offset 4, -8
 338              		.cfi_offset 14, -4
 339 0002 82B0     		sub	sp, sp, #8
 340              		.cfi_def_cfa_offset 16
 341 0004 0446     		mov	r4, r0
  76:main.c        ****     
ARM GAS  C:\Users\Runeg\AppData\Local\Temp\ccVhbwSU.s 			page 14


  77:main.c        ****     switch(packet->type)
 342              		.loc 3 77 0
 343 0006 0378     		ldrb	r3, [r0]	@ zero_extendqisi2
 344 0008 B22B     		cmp	r3, #178
 345 000a 09D1     		bne	.L33
 346              	.LBB4:
  78:main.c        ****     {
  79:main.c        ****         case DMC_PACKET_FLUID_POUR_REQUESTED:
  80:main.c        ****         {
  81:main.c        ****             struct dmc_packet_fluid_pour_requested requested_drink;
  82:main.c        ****             dmc_packet_unmarshal_fluid_pour_requested(&requested_drink, packet);
 347              		.loc 3 82 0
 348 000c 0146     		mov	r1, r0
 349 000e 01A8     		add	r0, sp, #4
 350              	.LVL34:
 351 0010 FFF7FEFF 		bl	dmc_packet_unmarshal_fluid_pour_requested
 352              	.LVL35:
  83:main.c        ****             pump_fluid((enum dmc_pump)requested_drink.container, requested_drink.amount);
 353              		.loc 3 83 0
 354 0014 9DF80510 		ldrb	r1, [sp, #5]	@ zero_extendqisi2
 355 0018 9DF80400 		ldrb	r0, [sp, #4]	@ zero_extendqisi2
 356 001c FFF7FEFF 		bl	pump_fluid
 357              	.LVL36:
 358              	.L33:
 359              	.LBE4:
  84:main.c        ****             break;
  85:main.c        ****         }
  86:main.c        ****         
  87:main.c        ****     }
  88:main.c        ****     
  89:main.c        ****     dmc_packet_free(packet);
 360              		.loc 3 89 0
 361 0020 2046     		mov	r0, r4
 362 0022 FFF7FEFF 		bl	dmc_packet_free
 363              	.LVL37:
  90:main.c        **** }
 364              		.loc 3 90 0
 365 0026 02B0     		add	sp, sp, #8
 366              		.cfi_def_cfa_offset 8
 367              		@ sp needed
 368 0028 10BD     		pop	{r4, pc}
 369              		.cfi_endproc
 370              	.LFE17:
 371              		.size	handle_packet, .-handle_packet
 372 002a 00BF     		.section	.text.handle_timer,"ax",%progbits
 373              		.align	2
 374              		.global	handle_timer
 375              		.thumb
 376              		.thumb_func
 377              		.type	handle_timer, %function
 378              	handle_timer:
 379              	.LFB18:
  91:main.c        **** 
  92:main.c        **** void handle_timer(struct timer_action* action)
  93:main.c        **** {
 380              		.loc 3 93 0
 381              		.cfi_startproc
ARM GAS  C:\Users\Runeg\AppData\Local\Temp\ccVhbwSU.s 			page 15


 382              		@ args = 0, pretend = 0, frame = 0
 383              		@ frame_needed = 0, uses_anonymous_args = 0
 384              	.LVL38:
 385 0000 08B5     		push	{r3, lr}
 386              		.cfi_def_cfa_offset 8
 387              		.cfi_offset 3, -8
 388              		.cfi_offset 14, -4
  94:main.c        ****     switch (action->type)
 389              		.loc 3 94 0
 390 0002 0378     		ldrb	r3, [r0]	@ zero_extendqisi2
 391 0004 23B1     		cbz	r3, .L38
 392 0006 012B     		cmp	r3, #1
 393 0008 05D1     		bne	.L36
  95:main.c        ****     {
  96:main.c        ****     case TIMER_ACTION_CHECK_WEIGHT:
  97:main.c        ****         {
  98:main.c        ****             do_periodic_weight_check();
 394              		.loc 3 98 0
 395 000a FFF7FEFF 		bl	do_periodic_weight_check
 396              	.LVL39:
  99:main.c        ****             break;
 397              		.loc 3 99 0
 398 000e 08BD     		pop	{r3, pc}
 399              	.LVL40:
 400              	.L38:
 100:main.c        ****         }
 101:main.c        ****     case TIMER_ACTION_STOP_PUMP:
 102:main.c        ****         {
 103:main.c        ****             stop_pump((enum dmc_pump)action->origin);
 401              		.loc 3 103 0
 402 0010 4078     		ldrb	r0, [r0, #1]	@ zero_extendqisi2
 403              	.LVL41:
 404 0012 FFF7FEFF 		bl	stop_pump
 405              	.LVL42:
 406              	.L36:
 407 0016 08BD     		pop	{r3, pc}
 408              		.cfi_endproc
 409              	.LFE18:
 410              		.size	handle_timer, .-handle_timer
 411              		.section	.text.main,"ax",%progbits
 412              		.align	2
 413              		.global	main
 414              		.thumb
 415              		.thumb_func
 416              		.type	main, %function
 417              	main:
 418              	.LFB19:
 104:main.c        ****             break;
 105:main.c        ****         }
 106:main.c        ****     }  
 107:main.c        **** }
 108:main.c        **** 
 109:main.c        **** 
 110:main.c        **** int main(void)
 111:main.c        **** {
 419              		.loc 3 111 0
 420              		.cfi_startproc
ARM GAS  C:\Users\Runeg\AppData\Local\Temp\ccVhbwSU.s 			page 16


 421              		@ args = 0, pretend = 0, frame = 0
 422              		@ frame_needed = 0, uses_anonymous_args = 0
 423 0000 08B5     		push	{r3, lr}
 424              		.cfi_def_cfa_offset 8
 425              		.cfi_offset 3, -8
 426              		.cfi_offset 14, -4
 112:main.c        ****     init_queue();
 427              		.loc 3 112 0
 428 0002 FFF7FEFF 		bl	init_queue
 429              	.LVL43:
 113:main.c        ****     init_uart();
 430              		.loc 3 113 0
 431 0006 FFF7FEFF 		bl	init_uart
 432              	.LVL44:
 114:main.c        ****     init_timers();
 433              		.loc 3 114 0
 434 000a FFF7FEFF 		bl	init_timers
 435              	.LVL45:
 436              	.L43:
 115:main.c        ****     struct job* current_job;
 116:main.c        ****     
 117:main.c        ****     for(;;)
 118:main.c        ****     {
 119:main.c        ****         current_job = job_dequeue();
 437              		.loc 3 119 0
 438 000e FFF7FEFF 		bl	job_dequeue
 439              	.LVL46:
 120:main.c        ****         
 121:main.c        ****         switch (current_job->type)
 440              		.loc 3 121 0
 441 0012 0378     		ldrb	r3, [r0]	@ zero_extendqisi2
 442 0014 012B     		cmp	r3, #1
 443 0016 02D0     		beq	.L44
 444 0018 022B     		cmp	r3, #2
 445 001a 04D0     		beq	.L45
 446 001c F7E7     		b	.L43
 447              	.L44:
 122:main.c        ****         {
 123:main.c        ****             case JOB_TYPE_UNDEFINED:
 124:main.c        ****             {
 125:main.c        ****                 //Doo doo fart
 126:main.c        ****                 break;
 127:main.c        ****             }
 128:main.c        ****             case JOB_TYPE_PACKET:
 129:main.c        ****             {
 130:main.c        ****                 handle_packet((struct dmc_packet*)current_job->data);
 448              		.loc 3 130 0
 449 001e 4068     		ldr	r0, [r0, #4]
 450              	.LVL47:
 451 0020 FFF7FEFF 		bl	handle_packet
 452              	.LVL48:
 131:main.c        ****                 
 132:main.c        ****                 //Piss boy 123
 133:main.c        ****                 break;
 453              		.loc 3 133 0
 454 0024 F3E7     		b	.L43
 455              	.LVL49:
ARM GAS  C:\Users\Runeg\AppData\Local\Temp\ccVhbwSU.s 			page 17


 456              	.L45:
 134:main.c        ****             }
 135:main.c        ****             case JOB_TYPE_TIMER:
 136:main.c        ****             {
 137:main.c        ****                 handle_timer((struct timer_action*)current_job->data);
 457              		.loc 3 137 0
 458 0026 4068     		ldr	r0, [r0, #4]
 459              	.LVL50:
 460 0028 FFF7FEFF 		bl	handle_timer
 461              	.LVL51:
 138:main.c        ****                 //Martin er en so
 139:main.c        ****                 break;
 462              		.loc 3 139 0
 463 002c EFE7     		b	.L43
 464              		.cfi_endproc
 465              	.LFE19:
 466              		.size	main, .-main
 467              		.global	PROCENTAGE_OF_MAX
 468              		.global	MAX_VOLUME_IN_CONTAINER
 469              		.global	is_pumping
 470              		.comm	current_weight,4,4
 471              		.comm	weight3,24,4
 472              		.comm	weight2,24,4
 473              		.comm	weight1,24,4
 474 002e 00BF     		.data
 475              		.align	2
 476              		.set	.LANCHOR0,. + 0
 477              		.type	MAX_VOLUME_IN_CONTAINER, %object
 478              		.size	MAX_VOLUME_IN_CONTAINER, 4
 479              	MAX_VOLUME_IN_CONTAINER:
 480 0000 46000000 		.word	70
 481              		.type	PROCENTAGE_OF_MAX, %object
 482              		.size	PROCENTAGE_OF_MAX, 4
 483              	PROCENTAGE_OF_MAX:
 484 0004 05000000 		.word	5
 485              		.bss
 486              		.align	2
 487              		.set	.LANCHOR1,. + 0
 488              		.type	is_pumping, %object
 489              		.size	is_pumping, 4
 490              	is_pumping:
 491 0000 00000000 		.space	4
 492              		.text
 493              	.Letext0:
 494              		.file 4 "c:\\program files (x86)\\cypress\\psoc creator\\4.4\\psoc creator\\import\\gnu\\arm\\5.4.
 495              		.file 5 "c:\\program files (x86)\\cypress\\psoc creator\\4.4\\psoc creator\\import\\gnu\\arm\\5.4.
 496              		.file 6 "c:\\program files (x86)\\cypress\\psoc creator\\4.4\\psoc creator\\import\\gnu\\arm\\5.4.
 497              		.file 7 "job_queue.h"
 498              		.file 8 "timers.h"
 499              		.file 9 "pump_control.h"
 500              		.file 10 "weight.h"
 501              		.file 11 "flags.h"
 502              		.file 12 "c:\\program files (x86)\\cypress\\psoc creator\\4.4\\psoc creator\\import\\gnu\\arm\\5.4
 503              		.file 13 "packet_uart.h"