ARM GAS  C:\Users\Runeg\AppData\Local\Temp\ccsurNJc.s 			page 1


   1              		.syntax unified
   2              		.cpu cortex-m3
   3              		.fpu softvfp
   4              		.eabi_attribute 20, 1
   5              		.eabi_attribute 21, 1
   6              		.eabi_attribute 23, 3
   7              		.eabi_attribute 24, 1
   8              		.eabi_attribute 25, 1
   9              		.eabi_attribute 26, 1
  10              		.eabi_attribute 30, 1
  11              		.eabi_attribute 34, 1
  12              		.eabi_attribute 18, 4
  13              		.thumb
  14              		.syntax unified
  15              		.file	"packet_uart.c"
  16              		.text
  17              	.Ltext0:
  18              		.cfi_sections	.debug_frame
  19              		.section	.text.dmc_packet_complete,"ax",%progbits
  20              		.align	2
  21              		.thumb
  22              		.thumb_func
  23              		.type	dmc_packet_complete, %function
  24              	dmc_packet_complete:
  25              	.LFB65:
  26              		.file 1 "..\\..\\..\\common\\hw\\include\\base_packet.h"
   1:..\..\..\common\hw\include/base_packet.h **** #ifndef DMC_BASE_PACKET_H
   2:..\..\..\common\hw\include/base_packet.h **** #define DMC_BASE_PACKET_H
   3:..\..\..\common\hw\include/base_packet.h **** 
   4:..\..\..\common\hw\include/base_packet.h **** #ifdef MODULE // Include kernel space memory allocation with kmalloc
   5:..\..\..\common\hw\include/base_packet.h **** #include <linux/slab.h>
   6:..\..\..\common\hw\include/base_packet.h **** #else
   7:..\..\..\common\hw\include/base_packet.h **** #include <stdlib.h>
   8:..\..\..\common\hw\include/base_packet.h **** #endif
   9:..\..\..\common\hw\include/base_packet.h **** 
  10:..\..\..\common\hw\include/base_packet.h **** /**
  11:..\..\..\common\hw\include/base_packet.h ****  * @brief Type of packet. (MAYBE: MSB is required to be 1 as this signals a
  12:..\..\..\common\hw\include/base_packet.h ****  * header byte)
  13:..\..\..\common\hw\include/base_packet.h ****  */
  14:..\..\..\common\hw\include/base_packet.h **** enum dmc_packet_type
  15:..\..\..\common\hw\include/base_packet.h **** {
  16:..\..\..\common\hw\include/base_packet.h ****   DMC_PACKET_OUT_OF_ORDER              = 0b10000000,
  17:..\..\..\common\hw\include/base_packet.h ****   DMC_PACKET_CONTAINER_WEIGHT_MEASURED = 0b10010010,
  18:..\..\..\common\hw\include/base_packet.h ****   DMC_PACKET_USER_CONFIRM              = 0b10100000,
  19:..\..\..\common\hw\include/base_packet.h ****   DMC_PACKET_FLUID_POUR_REQUESTED      = 0b10110010,
  20:..\..\..\common\hw\include/base_packet.h **** };
  21:..\..\..\common\hw\include/base_packet.h **** 
  22:..\..\..\common\hw\include/base_packet.h **** struct dmc_packet
  23:..\..\..\common\hw\include/base_packet.h **** {
  24:..\..\..\common\hw\include/base_packet.h ****   /**
  25:..\..\..\common\hw\include/base_packet.h ****    * @brief Type of packet. This is the first byte received.
  26:..\..\..\common\hw\include/base_packet.h ****    */
  27:..\..\..\common\hw\include/base_packet.h ****   enum dmc_packet_type type;
  28:..\..\..\common\hw\include/base_packet.h **** 
  29:..\..\..\common\hw\include/base_packet.h ****   /**
  30:..\..\..\common\hw\include/base_packet.h ****    * @brief Data payload of packet
  31:..\..\..\common\hw\include/base_packet.h ****    */
ARM GAS  C:\Users\Runeg\AppData\Local\Temp\ccsurNJc.s 			page 2


  32:..\..\..\common\hw\include/base_packet.h ****   char *data;
  33:..\..\..\common\hw\include/base_packet.h **** 
  34:..\..\..\common\hw\include/base_packet.h ****   /**
  35:..\..\..\common\hw\include/base_packet.h ****    * @brief Length of payload in bytes.
  36:..\..\..\common\hw\include/base_packet.h ****    */
  37:..\..\..\common\hw\include/base_packet.h ****   size_t data_len;
  38:..\..\..\common\hw\include/base_packet.h **** };
  39:..\..\..\common\hw\include/base_packet.h **** 
  40:..\..\..\common\hw\include/base_packet.h **** /**
  41:..\..\..\common\hw\include/base_packet.h ****  * @brief Allocates and initializes a packet with a type. Primarily
  42:..\..\..\common\hw\include/base_packet.h ****  * used when starting to read data from a given source.
  43:..\..\..\common\hw\include/base_packet.h ****  */
  44:..\..\..\common\hw\include/base_packet.h **** static struct dmc_packet *dmc_packet_init(enum dmc_packet_type type)
  45:..\..\..\common\hw\include/base_packet.h **** {
  46:..\..\..\common\hw\include/base_packet.h ****   unsigned char data_bytes = type & 0b00001111;
  47:..\..\..\common\hw\include/base_packet.h **** 
  48:..\..\..\common\hw\include/base_packet.h ****   // Allocate and initialize packet with default values
  49:..\..\..\common\hw\include/base_packet.h ****   struct dmc_packet *packet;
  50:..\..\..\common\hw\include/base_packet.h **** #ifdef MODULE // Differeniate between kernel and use space allocations
  51:..\..\..\common\hw\include/base_packet.h ****   packet = (struct dmc_packet *)kmalloc(sizeof(struct dmc_packet), GFP_KERNEL);
  52:..\..\..\common\hw\include/base_packet.h **** #else
  53:..\..\..\common\hw\include/base_packet.h ****   packet = (struct dmc_packet *)malloc(sizeof(struct dmc_packet));
  54:..\..\..\common\hw\include/base_packet.h **** #endif
  55:..\..\..\common\hw\include/base_packet.h ****   packet->type     = type;
  56:..\..\..\common\hw\include/base_packet.h ****   packet->data_len = 0;
  57:..\..\..\common\hw\include/base_packet.h ****   packet->data     = NULL;
  58:..\..\..\common\hw\include/base_packet.h **** 
  59:..\..\..\common\hw\include/base_packet.h ****   // Allocate packet data if needed
  60:..\..\..\common\hw\include/base_packet.h ****   if (data_bytes > 0)
  61:..\..\..\common\hw\include/base_packet.h ****   {
  62:..\..\..\common\hw\include/base_packet.h **** #ifdef MODULE // Differeniate between kernel and use space allocations
  63:..\..\..\common\hw\include/base_packet.h ****     packet->data = (char *)kmalloc(sizeof(char) * data_bytes, GFP_KERNEL);
  64:..\..\..\common\hw\include/base_packet.h **** #else
  65:..\..\..\common\hw\include/base_packet.h ****     packet->data = (char *)malloc(sizeof(char) * data_bytes);
  66:..\..\..\common\hw\include/base_packet.h **** #endif
  67:..\..\..\common\hw\include/base_packet.h ****   }
  68:..\..\..\common\hw\include/base_packet.h **** 
  69:..\..\..\common\hw\include/base_packet.h ****   return packet;
  70:..\..\..\common\hw\include/base_packet.h **** }
  71:..\..\..\common\hw\include/base_packet.h **** 
  72:..\..\..\common\hw\include/base_packet.h **** /**
  73:..\..\..\common\hw\include/base_packet.h ****  * @brief De-allocate packet and its data
  74:..\..\..\common\hw\include/base_packet.h ****  */
  75:..\..\..\common\hw\include/base_packet.h **** static void dmc_packet_free(struct dmc_packet *packet)
  76:..\..\..\common\hw\include/base_packet.h **** {
  77:..\..\..\common\hw\include/base_packet.h **** #ifdef MODULE // Differeniate between kernel and use space de-allocations
  78:..\..\..\common\hw\include/base_packet.h ****   kfree((void *)packet->data);
  79:..\..\..\common\hw\include/base_packet.h ****   kfree((void *)packet);
  80:..\..\..\common\hw\include/base_packet.h **** #else
  81:..\..\..\common\hw\include/base_packet.h ****   free((void *)packet->data);
  82:..\..\..\common\hw\include/base_packet.h ****   free((void *)packet);
  83:..\..\..\common\hw\include/base_packet.h **** #endif
  84:..\..\..\common\hw\include/base_packet.h **** }
  85:..\..\..\common\hw\include/base_packet.h **** 
  86:..\..\..\common\hw\include/base_packet.h **** /**
  87:..\..\..\common\hw\include/base_packet.h ****  * @brief Checks if a packet is fully complete, in the sense that all intended
  88:..\..\..\common\hw\include/base_packet.h ****  * data is received
ARM GAS  C:\Users\Runeg\AppData\Local\Temp\ccsurNJc.s 			page 3


  89:..\..\..\common\hw\include/base_packet.h ****  * @returns True, if packet is complete.
  90:..\..\..\common\hw\include/base_packet.h ****  */
  91:..\..\..\common\hw\include/base_packet.h **** static unsigned char dmc_packet_complete(struct dmc_packet *packet)
  92:..\..\..\common\hw\include/base_packet.h **** {
  27              		.loc 1 92 0
  28              		.cfi_startproc
  29              		@ args = 0, pretend = 0, frame = 0
  30              		@ frame_needed = 0, uses_anonymous_args = 0
  31              		@ link register save eliminated.
  32              	.LVL0:
  93:..\..\..\common\hw\include/base_packet.h ****   unsigned char data_bytes = packet->type & 0b00001111;
  33              		.loc 1 93 0
  34 0000 0378     		ldrb	r3, [r0]	@ zero_extendqisi2
  35 0002 03F00F03 		and	r3, r3, #15
  36              	.LVL1:
  94:..\..\..\common\hw\include/base_packet.h ****   return data_bytes == packet->data_len;
  37              		.loc 1 94 0
  38 0006 8068     		ldr	r0, [r0, #8]
  39              	.LVL2:
  95:..\..\..\common\hw\include/base_packet.h **** }
  40              		.loc 1 95 0
  41 0008 8342     		cmp	r3, r0
  42 000a 14BF     		ite	ne
  43 000c 0020     		movne	r0, #0
  44 000e 0120     		moveq	r0, #1
  45 0010 7047     		bx	lr
  46              		.cfi_endproc
  47              	.LFE65:
  48              		.size	dmc_packet_complete, .-dmc_packet_complete
  49 0012 00BF     		.section	.text.dmc_packet_append_byte,"ax",%progbits
  50              		.align	2
  51              		.thumb
  52              		.thumb_func
  53              		.type	dmc_packet_append_byte, %function
  54              	dmc_packet_append_byte:
  55              	.LFB66:
  96:..\..\..\common\hw\include/base_packet.h **** 
  97:..\..\..\common\hw\include/base_packet.h **** /**
  98:..\..\..\common\hw\include/base_packet.h ****  * @brief Appends data byte to packet payload.
  99:..\..\..\common\hw\include/base_packet.h ****  * @returns 0 if successful, 1 if payload is already at capacity.
 100:..\..\..\common\hw\include/base_packet.h ****  */
 101:..\..\..\common\hw\include/base_packet.h **** static unsigned char dmc_packet_append_byte(struct dmc_packet *packet,
 102:..\..\..\common\hw\include/base_packet.h ****                                             unsigned char      data)
 103:..\..\..\common\hw\include/base_packet.h **** {
  56              		.loc 1 103 0
  57              		.cfi_startproc
  58              		@ args = 0, pretend = 0, frame = 0
  59              		@ frame_needed = 0, uses_anonymous_args = 0
  60              		@ link register save eliminated.
  61              	.LVL3:
 104:..\..\..\common\hw\include/base_packet.h ****   unsigned char data_bytes = packet->type & 0b00001111;
  62              		.loc 1 104 0
  63 0000 0378     		ldrb	r3, [r0]	@ zero_extendqisi2
  64 0002 03F00F03 		and	r3, r3, #15
  65              	.LVL4:
 105:..\..\..\common\hw\include/base_packet.h ****   if (data_bytes == packet->data_len)
  66              		.loc 1 105 0
ARM GAS  C:\Users\Runeg\AppData\Local\Temp\ccsurNJc.s 			page 4


  67 0006 8268     		ldr	r2, [r0, #8]
  68 0008 9342     		cmp	r3, r2
  69 000a 06D0     		beq	.L4
 103:..\..\..\common\hw\include/base_packet.h ****   unsigned char data_bytes = packet->type & 0b00001111;
  70              		.loc 1 103 0
  71 000c 10B4     		push	{r4}
  72              		.cfi_def_cfa_offset 4
  73              		.cfi_offset 4, -4
 106:..\..\..\common\hw\include/base_packet.h ****   {
 107:..\..\..\common\hw\include/base_packet.h ****     return 1;
 108:..\..\..\common\hw\include/base_packet.h ****   }
 109:..\..\..\common\hw\include/base_packet.h **** 
 110:..\..\..\common\hw\include/base_packet.h ****   packet->data[packet->data_len++] = data;
  74              		.loc 1 110 0
  75 000e 4368     		ldr	r3, [r0, #4]
  76              	.LVL5:
  77 0010 541C     		adds	r4, r2, #1
  78 0012 8460     		str	r4, [r0, #8]
  79 0014 9954     		strb	r1, [r3, r2]
  80              	.LVL6:
 111:..\..\..\common\hw\include/base_packet.h ****   return 0;
  81              		.loc 1 111 0
  82 0016 0020     		movs	r0, #0
  83              	.LVL7:
  84 0018 01E0     		b	.L3
  85              	.LVL8:
  86              	.L4:
  87              		.cfi_def_cfa_offset 0
  88              		.cfi_restore 4
 107:..\..\..\common\hw\include/base_packet.h ****   }
  89              		.loc 1 107 0
  90 001a 0120     		movs	r0, #1
  91              	.LVL9:
  92 001c 7047     		bx	lr
  93              	.LVL10:
  94              	.L3:
  95              		.cfi_def_cfa_offset 4
  96              		.cfi_offset 4, -4
 112:..\..\..\common\hw\include/base_packet.h **** }
  97              		.loc 1 112 0
  98 001e 10BC     		pop	{r4}
  99              		.cfi_restore 4
 100              		.cfi_def_cfa_offset 0
 101 0020 7047     		bx	lr
 102              		.cfi_endproc
 103              	.LFE66:
 104              		.size	dmc_packet_append_byte, .-dmc_packet_append_byte
 105 0022 00BF     		.section	.text.dmc_packet_init,"ax",%progbits
 106              		.align	2
 107              		.thumb
 108              		.thumb_func
 109              		.type	dmc_packet_init, %function
 110              	dmc_packet_init:
 111              	.LFB63:
  45:..\..\..\common\hw\include/base_packet.h ****   unsigned char data_bytes = type & 0b00001111;
 112              		.loc 1 45 0
 113              		.cfi_startproc
ARM GAS  C:\Users\Runeg\AppData\Local\Temp\ccsurNJc.s 			page 5


 114              		@ args = 0, pretend = 0, frame = 0
 115              		@ frame_needed = 0, uses_anonymous_args = 0
 116              	.LVL11:
 117 0000 70B5     		push	{r4, r5, r6, lr}
 118              		.cfi_def_cfa_offset 16
 119              		.cfi_offset 4, -16
 120              		.cfi_offset 5, -12
 121              		.cfi_offset 6, -8
 122              		.cfi_offset 14, -4
 123 0002 0546     		mov	r5, r0
  46:..\..\..\common\hw\include/base_packet.h **** 
 124              		.loc 1 46 0
 125 0004 00F00F06 		and	r6, r0, #15
 126              	.LVL12:
  53:..\..\..\common\hw\include/base_packet.h **** #endif
 127              		.loc 1 53 0
 128 0008 0C20     		movs	r0, #12
 129              	.LVL13:
 130 000a FFF7FEFF 		bl	malloc
 131              	.LVL14:
 132 000e 0446     		mov	r4, r0
 133              	.LVL15:
  55:..\..\..\common\hw\include/base_packet.h ****   packet->data_len = 0;
 134              		.loc 1 55 0
 135 0010 0570     		strb	r5, [r0]
  56:..\..\..\common\hw\include/base_packet.h ****   packet->data     = NULL;
 136              		.loc 1 56 0
 137 0012 0023     		movs	r3, #0
 138 0014 8360     		str	r3, [r0, #8]
  57:..\..\..\common\hw\include/base_packet.h **** 
 139              		.loc 1 57 0
 140 0016 4360     		str	r3, [r0, #4]
  60:..\..\..\common\hw\include/base_packet.h ****   {
 141              		.loc 1 60 0
 142 0018 1EB1     		cbz	r6, .L8
  65:..\..\..\common\hw\include/base_packet.h **** #endif
 143              		.loc 1 65 0
 144 001a 3046     		mov	r0, r6
 145              	.LVL16:
 146 001c FFF7FEFF 		bl	malloc
 147              	.LVL17:
 148 0020 6060     		str	r0, [r4, #4]
 149              	.L8:
  70:..\..\..\common\hw\include/base_packet.h **** 
 150              		.loc 1 70 0
 151 0022 2046     		mov	r0, r4
 152 0024 70BD     		pop	{r4, r5, r6, pc}
 153              		.cfi_endproc
 154              	.LFE63:
 155              		.size	dmc_packet_init, .-dmc_packet_init
 156 0026 00BF     		.section	.text.init_uart,"ax",%progbits
 157              		.align	2
 158              		.global	init_uart
 159              		.thumb
 160              		.thumb_func
 161              		.type	init_uart, %function
 162              	init_uart:
ARM GAS  C:\Users\Runeg\AppData\Local\Temp\ccsurNJc.s 			page 6


 163              	.LFB75:
 164              		.file 2 "packet_uart.c"
   1:packet_uart.c **** /* ========================================
   2:packet_uart.c ****  *
   3:packet_uart.c ****  * Copyright YOUR COMPANY, THE YEAR
   4:packet_uart.c ****  * All Rights Reserved
   5:packet_uart.c ****  * UNPUBLISHED, LICENSED SOFTWARE.
   6:packet_uart.c ****  *
   7:packet_uart.c ****  * CONFIDENTIAL AND PROPRIETARY INFORMATION
   8:packet_uart.c ****  * WHICH IS THE PROPERTY OF your company.
   9:packet_uart.c ****  *
  10:packet_uart.c ****  * ========================================
  11:packet_uart.c **** */
  12:packet_uart.c **** 
  13:packet_uart.c **** #include "project.h"
  14:packet_uart.c **** #include "packet_uart.h"
  15:packet_uart.c **** 
  16:packet_uart.c **** struct dmc_packet* current_packet;
  17:packet_uart.c **** int discard_packet = 0;
  18:packet_uart.c **** 
  19:packet_uart.c **** 
  20:packet_uart.c **** int (*raise_flag_handler)(struct dmc_packet*);
  21:packet_uart.c **** 
  22:packet_uart.c **** CY_ISR_PROTO(ISR_UART_rx_handler);
  23:packet_uart.c **** 
  24:packet_uart.c **** void init_uart(int (*raise_flag)(struct dmc_packet*) )
  25:packet_uart.c **** {   
 165              		.loc 2 25 0
 166              		.cfi_startproc
 167              		@ args = 0, pretend = 0, frame = 0
 168              		@ frame_needed = 0, uses_anonymous_args = 0
 169              	.LVL18:
 170 0000 08B5     		push	{r3, lr}
 171              		.cfi_def_cfa_offset 8
 172              		.cfi_offset 3, -8
 173              		.cfi_offset 14, -4
  26:packet_uart.c ****     raise_flag_handler = raise_flag;
 174              		.loc 2 26 0
 175 0002 044B     		ldr	r3, .L12
 176 0004 1860     		str	r0, [r3]
  27:packet_uart.c ****     
  28:packet_uart.c ****     isr_uart_rx_StartEx(ISR_UART_rx_handler);
 177              		.loc 2 28 0
 178 0006 0448     		ldr	r0, .L12+4
 179              	.LVL19:
 180 0008 FFF7FEFF 		bl	isr_uart_rx_StartEx
 181              	.LVL20:
  29:packet_uart.c ****     
  30:packet_uart.c ****     UART_1_Start();
 182              		.loc 2 30 0
 183 000c FFF7FEFF 		bl	UART_1_Start
 184              	.LVL21:
 185 0010 08BD     		pop	{r3, pc}
 186              	.L13:
 187 0012 00BF     		.align	2
 188              	.L12:
 189 0014 00000000 		.word	raise_flag_handler
ARM GAS  C:\Users\Runeg\AppData\Local\Temp\ccsurNJc.s 			page 7


 190 0018 00000000 		.word	ISR_UART_rx_handler
 191              		.cfi_endproc
 192              	.LFE75:
 193              		.size	init_uart, .-init_uart
 194              		.section	.text.handleByteReceived,"ax",%progbits
 195              		.align	2
 196              		.global	handleByteReceived
 197              		.thumb
 198              		.thumb_func
 199              		.type	handleByteReceived, %function
 200              	handleByteReceived:
 201              	.LFB76:
  31:packet_uart.c **** }
  32:packet_uart.c **** 
  33:packet_uart.c **** void handleByteReceived(uint8_t byteReceived)
  34:packet_uart.c **** {
 202              		.loc 2 34 0
 203              		.cfi_startproc
 204              		@ args = 0, pretend = 0, frame = 0
 205              		@ frame_needed = 0, uses_anonymous_args = 0
 206              	.LVL22:
 207 0000 10B5     		push	{r4, lr}
 208              		.cfi_def_cfa_offset 8
 209              		.cfi_offset 4, -8
 210              		.cfi_offset 14, -4
  35:packet_uart.c ****     
  36:packet_uart.c ****    //Put first byte through packet init
  37:packet_uart.c ****    if (current_packet == NULL)
 211              		.loc 2 37 0
 212 0002 104B     		ldr	r3, .L19
 213 0004 1B68     		ldr	r3, [r3]
 214 0006 4BB9     		cbnz	r3, .L15
  38:packet_uart.c ****     {
  39:packet_uart.c ****         //TO DO: Validate packet type is valid        
  40:packet_uart.c ****         current_packet = dmc_packet_init((enum dmc_packet_type)byteReceived);
 215              		.loc 2 40 0
 216 0008 FFF7FEFF 		bl	dmc_packet_init
 217              	.LVL23:
 218 000c 0D4B     		ldr	r3, .L19
 219 000e 1860     		str	r0, [r3]
  41:packet_uart.c ****         discard_packet = raise_flag_handler(current_packet);
 220              		.loc 2 41 0
 221 0010 0D4B     		ldr	r3, .L19+4
 222 0012 1B68     		ldr	r3, [r3]
 223 0014 9847     		blx	r3
 224              	.LVL24:
 225 0016 0D4B     		ldr	r3, .L19+8
 226 0018 1860     		str	r0, [r3]
  42:packet_uart.c ****         return;
 227              		.loc 2 42 0
 228 001a 10BD     		pop	{r4, pc}
 229              	.LVL25:
 230              	.L15:
  43:packet_uart.c ****             
  44:packet_uart.c ****             
  45:packet_uart.c ****     }
  46:packet_uart.c ****    
ARM GAS  C:\Users\Runeg\AppData\Local\Temp\ccsurNJc.s 			page 8


  47:packet_uart.c ****     //Append byterecived to current_packet
  48:packet_uart.c ****     dmc_packet_append_byte(current_packet, (unsigned char)byteReceived);
 231              		.loc 2 48 0
 232 001c 0146     		mov	r1, r0
 233 001e 1846     		mov	r0, r3
 234              	.LVL26:
 235 0020 FFF7FEFF 		bl	dmc_packet_append_byte
 236              	.LVL27:
  49:packet_uart.c ****     
  50:packet_uart.c ****     //Push packet to job_queue if payload is complete
  51:packet_uart.c ****     if (dmc_packet_complete(current_packet))
 237              		.loc 2 51 0
 238 0024 074B     		ldr	r3, .L19
 239 0026 1C68     		ldr	r4, [r3]
 240 0028 2046     		mov	r0, r4
 241 002a FFF7FEFF 		bl	dmc_packet_complete
 242              	.LVL28:
 243 002e 40B1     		cbz	r0, .L14
  52:packet_uart.c ****     {
  53:packet_uart.c ****         if (!discard_packet)
 244              		.loc 2 53 0
 245 0030 064B     		ldr	r3, .L19+8
 246 0032 1B68     		ldr	r3, [r3]
 247 0034 13B9     		cbnz	r3, .L17
  54:packet_uart.c ****             job_enqueue_packet(current_packet);
 248              		.loc 2 54 0
 249 0036 2046     		mov	r0, r4
 250 0038 FFF7FEFF 		bl	job_enqueue_packet
 251              	.LVL29:
 252              	.L17:
  55:packet_uart.c ****         current_packet = NULL;
 253              		.loc 2 55 0
 254 003c 0022     		movs	r2, #0
 255 003e 014B     		ldr	r3, .L19
 256 0040 1A60     		str	r2, [r3]
 257              	.L14:
 258 0042 10BD     		pop	{r4, pc}
 259              	.L20:
 260              		.align	2
 261              	.L19:
 262 0044 00000000 		.word	current_packet
 263 0048 00000000 		.word	raise_flag_handler
 264 004c 00000000 		.word	.LANCHOR0
 265              		.cfi_endproc
 266              	.LFE76:
 267              		.size	handleByteReceived, .-handleByteReceived
 268              		.section	.text.ISR_UART_rx_handler,"ax",%progbits
 269              		.align	2
 270              		.global	ISR_UART_rx_handler
 271              		.thumb
 272              		.thumb_func
 273              		.type	ISR_UART_rx_handler, %function
 274              	ISR_UART_rx_handler:
 275              	.LFB77:
  56:packet_uart.c ****     }
  57:packet_uart.c **** }
  58:packet_uart.c **** 
ARM GAS  C:\Users\Runeg\AppData\Local\Temp\ccsurNJc.s 			page 9


  59:packet_uart.c **** 
  60:packet_uart.c **** CY_ISR(ISR_UART_rx_handler)
  61:packet_uart.c **** {
 276              		.loc 2 61 0
 277              		.cfi_startproc
 278              		@ args = 0, pretend = 0, frame = 0
 279              		@ frame_needed = 0, uses_anonymous_args = 0
 280 0000 38B5     		push	{r3, r4, r5, lr}
 281              		.cfi_def_cfa_offset 16
 282              		.cfi_offset 3, -16
 283              		.cfi_offset 4, -12
 284              		.cfi_offset 5, -8
 285              		.cfi_offset 14, -4
  62:packet_uart.c ****     uint8_t bytesToRead = UART_1_GetRxBufferSize();
 286              		.loc 2 62 0
 287 0002 FFF7FEFF 		bl	UART_1_GetRxBufferSize
 288              	.LVL30:
 289 0006 0446     		mov	r4, r0
 290              	.LVL31:
  63:packet_uart.c ****     while (bytesToRead > 0)
 291              		.loc 2 63 0
 292 0008 09E0     		b	.L22
 293              	.L23:
 294              	.LBB2:
  64:packet_uart.c ****     {
  65:packet_uart.c ****         uint8_t byteReceived = UART_1_ReadRxData();
 295              		.loc 2 65 0
 296 000a FFF7FEFF 		bl	UART_1_ReadRxData
 297              	.LVL32:
 298 000e 0546     		mov	r5, r0
 299              	.LVL33:
  66:packet_uart.c ****         UART_1_WriteTxData(byteReceived); // echo back
 300              		.loc 2 66 0
 301 0010 FFF7FEFF 		bl	UART_1_WriteTxData
 302              	.LVL34:
  67:packet_uart.c ****         
  68:packet_uart.c ****         handleByteReceived(byteReceived);
 303              		.loc 2 68 0
 304 0014 2846     		mov	r0, r5
 305 0016 FFF7FEFF 		bl	handleByteReceived
 306              	.LVL35:
  69:packet_uart.c ****         
  70:packet_uart.c ****         bytesToRead--;
 307              		.loc 2 70 0
 308 001a 013C     		subs	r4, r4, #1
 309              	.LVL36:
 310 001c E4B2     		uxtb	r4, r4
 311              	.LVL37:
 312              	.L22:
 313              	.LBE2:
  63:packet_uart.c ****     {
 314              		.loc 2 63 0
 315 001e 002C     		cmp	r4, #0
 316 0020 F3D1     		bne	.L23
  71:packet_uart.c ****     }
  72:packet_uart.c **** }
 317              		.loc 2 72 0
ARM GAS  C:\Users\Runeg\AppData\Local\Temp\ccsurNJc.s 			page 10


 318 0022 38BD     		pop	{r3, r4, r5, pc}
 319              		.cfi_endproc
 320              	.LFE77:
 321              		.size	ISR_UART_rx_handler, .-ISR_UART_rx_handler
 322              		.comm	raise_flag_handler,4,4
 323              		.global	discard_packet
 324              		.comm	current_packet,4,4
 325              		.bss
 326              		.align	2
 327              		.set	.LANCHOR0,. + 0
 328              		.type	discard_packet, %object
 329              		.size	discard_packet, 4
 330              	discard_packet:
 331 0000 00000000 		.space	4
 332              		.text
 333              	.Letext0:
 334              		.file 3 "c:\\program files (x86)\\cypress\\psoc creator\\4.4\\psoc creator\\import\\gnu\\arm\\5.4.
 335              		.file 4 "c:\\program files (x86)\\cypress\\psoc creator\\4.4\\psoc creator\\import\\gnu\\arm\\5.4.
 336              		.file 5 "c:\\program files (x86)\\cypress\\psoc creator\\4.4\\psoc creator\\import\\gnu\\arm\\5.4.
 337              		.file 6 "Generated_Source\\PSoC5/core_cm3.h"
 338              		.file 7 "c:\\program files (x86)\\cypress\\psoc creator\\4.4\\psoc creator\\import\\gnu\\arm\\5.4.
 339              		.file 8 "Generated_Source\\PSoC5/isr_uart_rx.h"
 340              		.file 9 "Generated_Source\\PSoC5/UART_1.h"
 341              		.file 10 "job_queue.h"