ARM GAS  C:\Users\Runeg\AppData\Local\Temp\cc9zz4be.s 			page 1


   1              		.syntax unified
   2              		.cpu cortex-m3
   3              		.fpu softvfp
   4              		.eabi_attribute 20, 1
   5              		.eabi_attribute 21, 1
   6              		.eabi_attribute 23, 3
   7              		.eabi_attribute 24, 1
   8              		.eabi_attribute 25, 1
   9              		.eabi_attribute 26, 1
  10              		.eabi_attribute 30, 1
  11              		.eabi_attribute 34, 1
  12              		.eabi_attribute 18, 4
  13              		.thumb
  14              		.syntax unified
  15              		.file	"pc_uart.c"
  16              		.text
  17              	.Ltext0:
  18              		.cfi_sections	.debug_frame
  19              		.section	.text.echo_uart,"ax",%progbits
  20              		.align	2
  21              		.global	echo_uart
  22              		.thumb
  23              		.thumb_func
  24              		.type	echo_uart, %function
  25              	echo_uart:
  26              	.LFB63:
  27              		.file 1 "pc_uart.c"
   1:pc_uart.c     **** /* ========================================
   2:pc_uart.c     ****  *
   3:pc_uart.c     ****  * Copyright YOUR COMPANY, THE YEAR
   4:pc_uart.c     ****  * All Rights Reserved
   5:pc_uart.c     ****  * UNPUBLISHED, LICENSED SOFTWARE.
   6:pc_uart.c     ****  *
   7:pc_uart.c     ****  * CONFIDENTIAL AND PROPRIETARY INFORMATION
   8:pc_uart.c     ****  * WHICH IS THE PROPERTY OF your company.
   9:pc_uart.c     ****  *
  10:pc_uart.c     ****  * ========================================
  11:pc_uart.c     **** */
  12:pc_uart.c     **** #include "pc_uart.h"
  13:pc_uart.c     **** 
  14:pc_uart.c     **** 
  15:pc_uart.c     **** void echo_uart(const char* string)
  16:pc_uart.c     **** {
  28              		.loc 1 16 0
  29              		.cfi_startproc
  30              		@ args = 0, pretend = 0, frame = 0
  31              		@ frame_needed = 0, uses_anonymous_args = 0
  32              	.LVL0:
  33 0000 08B5     		push	{r3, lr}
  34              		.cfi_def_cfa_offset 8
  35              		.cfi_offset 3, -8
  36              		.cfi_offset 14, -4
  17:pc_uart.c     ****     uart_pc_PutStringConst(string);
  37              		.loc 1 17 0
  38 0002 FFF7FEFF 		bl	uart_pc_PutString
  39              	.LVL1:
  40 0006 08BD     		pop	{r3, pc}
ARM GAS  C:\Users\Runeg\AppData\Local\Temp\cc9zz4be.s 			page 2


  41              		.cfi_endproc
  42              	.LFE63:
  43              		.size	echo_uart, .-echo_uart
  44              		.section	.text.init_uart_pc,"ax",%progbits
  45              		.align	2
  46              		.global	init_uart_pc
  47              		.thumb
  48              		.thumb_func
  49              		.type	init_uart_pc, %function
  50              	init_uart_pc:
  51              	.LFB64:
  18:pc_uart.c     **** }
  19:pc_uart.c     **** 
  20:pc_uart.c     **** void init_uart_pc()
  21:pc_uart.c     **** {
  52              		.loc 1 21 0
  53              		.cfi_startproc
  54              		@ args = 0, pretend = 0, frame = 0
  55              		@ frame_needed = 0, uses_anonymous_args = 0
  56 0000 08B5     		push	{r3, lr}
  57              		.cfi_def_cfa_offset 8
  58              		.cfi_offset 3, -8
  59              		.cfi_offset 14, -4
  22:pc_uart.c     ****     uart_pc_Start();
  60              		.loc 1 22 0
  61 0002 FFF7FEFF 		bl	uart_pc_Start
  62              	.LVL2:
  63 0006 08BD     		pop	{r3, pc}
  64              		.cfi_endproc
  65              	.LFE64:
  66              		.size	init_uart_pc, .-init_uart_pc
  67              		.text
  68              	.Letext0:
  69              		.file 2 "c:\\program files (x86)\\cypress\\psoc creator\\4.4\\psoc creator\\import\\gnu\\arm\\5.4.
  70              		.file 3 "c:\\program files (x86)\\cypress\\psoc creator\\4.4\\psoc creator\\import\\gnu\\arm\\5.4.
  71              		.file 4 "Generated_Source\\PSoC5/uart_pc.h"
  72              		.file 5 "Generated_Source\\PSoC5/core_cm3.h"