ARM GAS  C:\Users\Runeg\AppData\Local\Temp\ccMthMC7.s 			page 1


   1              		.syntax unified
   2              		.cpu cortex-m3
   3              		.fpu softvfp
   4              		.eabi_attribute 20, 1
   5              		.eabi_attribute 21, 1
   6              		.eabi_attribute 23, 3
   7              		.eabi_attribute 24, 1
   8              		.eabi_attribute 25, 1
   9              		.eabi_attribute 26, 1
  10              		.eabi_attribute 30, 6
  11              		.eabi_attribute 34, 1
  12              		.eabi_attribute 18, 4
  13              		.thumb
  14              		.syntax unified
  15              		.file	"pump_control.c"
  16              		.text
  17              	.Ltext0:
  18              		.cfi_sections	.debug_frame
  19              		.global	pump_1_pumping
  20              		.bss
  21              		.align	2
  22              		.type	pump_1_pumping, %object
  23              		.size	pump_1_pumping, 4
  24              	pump_1_pumping:
  25 0000 00000000 		.space	4
  26              		.global	pump_2_pumping
  27              		.align	2
  28              		.type	pump_2_pumping, %object
  29              		.size	pump_2_pumping, 4
  30              	pump_2_pumping:
  31 0004 00000000 		.space	4
  32              		.global	pump_3_pumping
  33              		.align	2
  34              		.type	pump_3_pumping, %object
  35              		.size	pump_3_pumping, 4
  36              	pump_3_pumping:
  37 0008 00000000 		.space	4
  38              		.section	.text.pump_fluid,"ax",%progbits
  39              		.align	2
  40              		.global	pump_fluid
  41              		.thumb
  42              		.thumb_func
  43              		.type	pump_fluid, %function
  44              	pump_fluid:
  45              	.LFB63:
  46              		.file 1 "pump_control.c"
   1:pump_control.c **** /* ========================================
   2:pump_control.c ****  *
   3:pump_control.c ****  * Copyright YOUR COMPANY, THE YEAR
   4:pump_control.c ****  * All Rights Reserved
   5:pump_control.c ****  * UNPUBLISHED, LICENSED SOFTWARE.
   6:pump_control.c ****  *
   7:pump_control.c ****  * CONFIDENTIAL AND PROPRIETARY INFORMATION
   8:pump_control.c ****  * WHICH IS THE PROPERTY OF your company.
   9:pump_control.c ****  *
  10:pump_control.c ****  * ========================================
  11:pump_control.c **** */
ARM GAS  C:\Users\Runeg\AppData\Local\Temp\ccMthMC7.s 			page 2


  12:pump_control.c **** #include "pump_control.h"
  13:pump_control.c **** #include "project.h"
  14:pump_control.c **** 
  15:pump_control.c **** 
  16:pump_control.c **** 
  17:pump_control.c ****     int pump_1_pumping = 0;
  18:pump_control.c ****     int pump_2_pumping = 0;
  19:pump_control.c ****     int pump_3_pumping = 0;
  20:pump_control.c **** 
  21:pump_control.c ****     
  22:pump_control.c **** void pump_fluid(enum dmc_pump pump)
  23:pump_control.c **** {
  47              		.loc 1 23 0
  48              		.cfi_startproc
  49              		@ args = 0, pretend = 0, frame = 8
  50              		@ frame_needed = 1, uses_anonymous_args = 0
  51 0000 80B5     		push	{r7, lr}
  52              		.cfi_def_cfa_offset 8
  53              		.cfi_offset 7, -8
  54              		.cfi_offset 14, -4
  55 0002 82B0     		sub	sp, sp, #8
  56              		.cfi_def_cfa_offset 16
  57 0004 00AF     		add	r7, sp, #0
  58              		.cfi_def_cfa_register 7
  59 0006 0346     		mov	r3, r0
  60 0008 FB71     		strb	r3, [r7, #7]
  24:pump_control.c ****     
  25:pump_control.c ****     switch (pump)
  61              		.loc 1 25 0
  62 000a FB79     		ldrb	r3, [r7, #7]	@ zero_extendqisi2
  63 000c 022B     		cmp	r3, #2
  64 000e 0BD0     		beq	.L3
  65 0010 032B     		cmp	r3, #3
  66 0012 10D0     		beq	.L4
  67 0014 012B     		cmp	r3, #1
  68 0016 00D0     		beq	.L5
  26:pump_control.c ****     {
  27:pump_control.c ****     case PUMP_1:
  28:pump_control.c ****         {
  29:pump_control.c ****             pump_1_Write(1);
  30:pump_control.c ****             pump_1_pumping = 1;
  31:pump_control.c ****             break;
  32:pump_control.c ****         }
  33:pump_control.c ****    case PUMP_2:
  34:pump_control.c ****         {
  35:pump_control.c ****             pump_2_Write(1);
  36:pump_control.c ****             pump_2_pumping = 1;
  37:pump_control.c ****             break;
  38:pump_control.c ****         }
  39:pump_control.c ****     case PUMP_3:
  40:pump_control.c ****         {
  41:pump_control.c ****             pump_3_Write(1);
  42:pump_control.c ****             pump_3_pumping = 1;
  43:pump_control.c ****             break;
  44:pump_control.c ****         } 
  45:pump_control.c ****     }
  46:pump_control.c **** }
ARM GAS  C:\Users\Runeg\AppData\Local\Temp\ccMthMC7.s 			page 3


  69              		.loc 1 46 0
  70 0018 14E0     		b	.L6
  71              	.L5:
  29:pump_control.c ****             pump_1_pumping = 1;
  72              		.loc 1 29 0
  73 001a 0120     		movs	r0, #1
  74 001c FFF7FEFF 		bl	pump_1_Write
  30:pump_control.c ****             break;
  75              		.loc 1 30 0
  76 0020 0A4B     		ldr	r3, .L7
  77 0022 0122     		movs	r2, #1
  78 0024 1A60     		str	r2, [r3]
  31:pump_control.c ****         }
  79              		.loc 1 31 0
  80 0026 0DE0     		b	.L2
  81              	.L3:
  35:pump_control.c ****             pump_2_pumping = 1;
  82              		.loc 1 35 0
  83 0028 0120     		movs	r0, #1
  84 002a FFF7FEFF 		bl	pump_2_Write
  36:pump_control.c ****             break;
  85              		.loc 1 36 0
  86 002e 084B     		ldr	r3, .L7+4
  87 0030 0122     		movs	r2, #1
  88 0032 1A60     		str	r2, [r3]
  37:pump_control.c ****         }
  89              		.loc 1 37 0
  90 0034 06E0     		b	.L2
  91              	.L4:
  41:pump_control.c ****             pump_3_pumping = 1;
  92              		.loc 1 41 0
  93 0036 0120     		movs	r0, #1
  94 0038 FFF7FEFF 		bl	pump_3_Write
  42:pump_control.c ****             break;
  95              		.loc 1 42 0
  96 003c 054B     		ldr	r3, .L7+8
  97 003e 0122     		movs	r2, #1
  98 0040 1A60     		str	r2, [r3]
  43:pump_control.c ****         } 
  99              		.loc 1 43 0
 100 0042 00BF     		nop
 101              	.L2:
 102              	.L6:
 103              		.loc 1 46 0
 104 0044 00BF     		nop
 105 0046 0837     		adds	r7, r7, #8
 106              		.cfi_def_cfa_offset 8
 107 0048 BD46     		mov	sp, r7
 108              		.cfi_def_cfa_register 13
 109              		@ sp needed
 110 004a 80BD     		pop	{r7, pc}
 111              	.L8:
 112              		.align	2
 113              	.L7:
 114 004c 00000000 		.word	pump_1_pumping
 115 0050 00000000 		.word	pump_2_pumping
 116 0054 00000000 		.word	pump_3_pumping
ARM GAS  C:\Users\Runeg\AppData\Local\Temp\ccMthMC7.s 			page 4


 117              		.cfi_endproc
 118              	.LFE63:
 119              		.size	pump_fluid, .-pump_fluid
 120              		.section	.text.is_pumping,"ax",%progbits
 121              		.align	2
 122              		.global	is_pumping
 123              		.thumb
 124              		.thumb_func
 125              		.type	is_pumping, %function
 126              	is_pumping:
 127              	.LFB64:
  47:pump_control.c **** 
  48:pump_control.c **** int is_pumping(enum dmc_pump pump)
  49:pump_control.c **** {
 128              		.loc 1 49 0
 129              		.cfi_startproc
 130              		@ args = 0, pretend = 0, frame = 8
 131              		@ frame_needed = 1, uses_anonymous_args = 0
 132              		@ link register save eliminated.
 133 0000 80B4     		push	{r7}
 134              		.cfi_def_cfa_offset 4
 135              		.cfi_offset 7, -4
 136 0002 83B0     		sub	sp, sp, #12
 137              		.cfi_def_cfa_offset 16
 138 0004 00AF     		add	r7, sp, #0
 139              		.cfi_def_cfa_register 7
 140 0006 0346     		mov	r3, r0
 141 0008 FB71     		strb	r3, [r7, #7]
  50:pump_control.c ****     switch (pump)
 142              		.loc 1 50 0
 143 000a FB79     		ldrb	r3, [r7, #7]	@ zero_extendqisi2
 144 000c 022B     		cmp	r3, #2
 145 000e 06D0     		beq	.L11
 146 0010 032B     		cmp	r3, #3
 147 0012 07D0     		beq	.L12
 148 0014 012B     		cmp	r3, #1
 149 0016 08D1     		bne	.L15
  51:pump_control.c ****     {
  52:pump_control.c ****     case PUMP_1: return pump_1_pumping; 
 150              		.loc 1 52 0
 151 0018 064B     		ldr	r3, .L16
 152 001a 1B68     		ldr	r3, [r3]
 153 001c 05E0     		b	.L9
 154              	.L11:
  53:pump_control.c ****     case PUMP_2: return pump_2_pumping;
 155              		.loc 1 53 0
 156 001e 064B     		ldr	r3, .L16+4
 157 0020 1B68     		ldr	r3, [r3]
 158 0022 02E0     		b	.L9
 159              	.L12:
  54:pump_control.c ****     case PUMP_3: return pump_3_pumping;
 160              		.loc 1 54 0
 161 0024 054B     		ldr	r3, .L16+8
 162 0026 1B68     		ldr	r3, [r3]
 163 0028 FFE7     		b	.L9
 164              	.L15:
 165              	.L9:
ARM GAS  C:\Users\Runeg\AppData\Local\Temp\ccMthMC7.s 			page 5


  55:pump_control.c ****     }
  56:pump_control.c **** }
 166              		.loc 1 56 0
 167 002a 1846     		mov	r0, r3
 168 002c 0C37     		adds	r7, r7, #12
 169              		.cfi_def_cfa_offset 4
 170 002e BD46     		mov	sp, r7
 171              		.cfi_def_cfa_register 13
 172              		@ sp needed
 173 0030 80BC     		pop	{r7}
 174              		.cfi_restore 7
 175              		.cfi_def_cfa_offset 0
 176 0032 7047     		bx	lr
 177              	.L17:
 178              		.align	2
 179              	.L16:
 180 0034 00000000 		.word	pump_1_pumping
 181 0038 00000000 		.word	pump_2_pumping
 182 003c 00000000 		.word	pump_3_pumping
 183              		.cfi_endproc
 184              	.LFE64:
 185              		.size	is_pumping, .-is_pumping
 186              		.section	.text.stop_pump,"ax",%progbits
 187              		.align	2
 188              		.global	stop_pump
 189              		.thumb
 190              		.thumb_func
 191              		.type	stop_pump, %function
 192              	stop_pump:
 193              	.LFB65:
  57:pump_control.c **** 
  58:pump_control.c **** void stop_pump(enum dmc_pump pump)
  59:pump_control.c **** {
 194              		.loc 1 59 0
 195              		.cfi_startproc
 196              		@ args = 0, pretend = 0, frame = 8
 197              		@ frame_needed = 1, uses_anonymous_args = 0
 198 0000 80B5     		push	{r7, lr}
 199              		.cfi_def_cfa_offset 8
 200              		.cfi_offset 7, -8
 201              		.cfi_offset 14, -4
 202 0002 82B0     		sub	sp, sp, #8
 203              		.cfi_def_cfa_offset 16
 204 0004 00AF     		add	r7, sp, #0
 205              		.cfi_def_cfa_register 7
 206 0006 0346     		mov	r3, r0
 207 0008 FB71     		strb	r3, [r7, #7]
  60:pump_control.c ****     switch (pump)
 208              		.loc 1 60 0
 209 000a FB79     		ldrb	r3, [r7, #7]	@ zero_extendqisi2
 210 000c 022B     		cmp	r3, #2
 211 000e 0BD0     		beq	.L20
 212 0010 032B     		cmp	r3, #3
 213 0012 10D0     		beq	.L21
 214 0014 012B     		cmp	r3, #1
 215 0016 00D0     		beq	.L22
  61:pump_control.c ****     {
ARM GAS  C:\Users\Runeg\AppData\Local\Temp\ccMthMC7.s 			page 6


  62:pump_control.c ****     case PUMP_1:
  63:pump_control.c ****         {
  64:pump_control.c ****             pump_1_Write(0);
  65:pump_control.c ****             pump_1_pumping = 0;
  66:pump_control.c ****             break;
  67:pump_control.c ****         }
  68:pump_control.c ****    case PUMP_2:
  69:pump_control.c ****         {
  70:pump_control.c ****             pump_2_Write(0); 
  71:pump_control.c ****             pump_2_pumping = 0;
  72:pump_control.c ****             break;
  73:pump_control.c ****         }
  74:pump_control.c ****     case PUMP_3:
  75:pump_control.c ****         {
  76:pump_control.c ****             pump_3_Write(0);
  77:pump_control.c ****             pump_3_pumping = 0;
  78:pump_control.c ****             break;
  79:pump_control.c ****         } 
  80:pump_control.c ****     }  
  81:pump_control.c ****     
  82:pump_control.c **** }
 216              		.loc 1 82 0
 217 0018 14E0     		b	.L23
 218              	.L22:
  64:pump_control.c ****             pump_1_pumping = 0;
 219              		.loc 1 64 0
 220 001a 0020     		movs	r0, #0
 221 001c FFF7FEFF 		bl	pump_1_Write
  65:pump_control.c ****             break;
 222              		.loc 1 65 0
 223 0020 0A4B     		ldr	r3, .L24
 224 0022 0022     		movs	r2, #0
 225 0024 1A60     		str	r2, [r3]
  66:pump_control.c ****         }
 226              		.loc 1 66 0
 227 0026 0DE0     		b	.L19
 228              	.L20:
  70:pump_control.c ****             pump_2_pumping = 0;
 229              		.loc 1 70 0
 230 0028 0020     		movs	r0, #0
 231 002a FFF7FEFF 		bl	pump_2_Write
  71:pump_control.c ****             break;
 232              		.loc 1 71 0
 233 002e 084B     		ldr	r3, .L24+4
 234 0030 0022     		movs	r2, #0
 235 0032 1A60     		str	r2, [r3]
  72:pump_control.c ****         }
 236              		.loc 1 72 0
 237 0034 06E0     		b	.L19
 238              	.L21:
  76:pump_control.c ****             pump_3_pumping = 0;
 239              		.loc 1 76 0
 240 0036 0020     		movs	r0, #0
 241 0038 FFF7FEFF 		bl	pump_3_Write
  77:pump_control.c ****             break;
 242              		.loc 1 77 0
 243 003c 054B     		ldr	r3, .L24+8
ARM GAS  C:\Users\Runeg\AppData\Local\Temp\ccMthMC7.s 			page 7


 244 003e 0022     		movs	r2, #0
 245 0040 1A60     		str	r2, [r3]
  78:pump_control.c ****         } 
 246              		.loc 1 78 0
 247 0042 00BF     		nop
 248              	.L19:
 249              	.L23:
 250              		.loc 1 82 0
 251 0044 00BF     		nop
 252 0046 0837     		adds	r7, r7, #8
 253              		.cfi_def_cfa_offset 8
 254 0048 BD46     		mov	sp, r7
 255              		.cfi_def_cfa_register 13
 256              		@ sp needed
 257 004a 80BD     		pop	{r7, pc}
 258              	.L25:
 259              		.align	2
 260              	.L24:
 261 004c 00000000 		.word	pump_1_pumping
 262 0050 00000000 		.word	pump_2_pumping
 263 0054 00000000 		.word	pump_3_pumping
 264              		.cfi_endproc
 265              	.LFE65:
 266              		.size	stop_pump, .-stop_pump
 267              		.text
 268              	.Letext0:
 269              		.file 2 "c:\\program files (x86)\\cypress\\psoc creator\\4.4\\psoc creator\\import\\gnu\\arm\\5.4.
 270              		.file 3 "c:\\program files (x86)\\cypress\\psoc creator\\4.4\\psoc creator\\import\\gnu\\arm\\5.4.
 271              		.file 4 "Generated_Source\\PSoC5/core_cm3.h"
 272              		.file 5 "pump_control.h"