ARM GAS  C:\Users\Runeg\AppData\Local\Temp\ccYl0MIo.s 			page 1


   1              		.syntax unified
   2              		.cpu cortex-m3
   3              		.fpu softvfp
   4              		.eabi_attribute 20, 1
   5              		.eabi_attribute 21, 1
   6              		.eabi_attribute 23, 3
   7              		.eabi_attribute 24, 1
   8              		.eabi_attribute 25, 1
   9              		.eabi_attribute 26, 1
  10              		.eabi_attribute 30, 1
  11              		.eabi_attribute 34, 1
  12              		.eabi_attribute 18, 4
  13              		.thumb
  14              		.syntax unified
  15              		.file	"timers.c"
  16              		.text
  17              	.Ltext0:
  18              		.cfi_sections	.debug_frame
  19              		.section	.text.ISR_check_weight_timer_handler,"ax",%progbits
  20              		.align	2
  21              		.global	ISR_check_weight_timer_handler
  22              		.thumb
  23              		.thumb_func
  24              		.type	ISR_check_weight_timer_handler, %function
  25              	ISR_check_weight_timer_handler:
  26              	.LFB67:
  27              		.file 1 "timers.c"
   1:timers.c      **** /* ========================================
   2:timers.c      ****  *
   3:timers.c      ****  * Copyright YOUR COMPANY, THE YEAR
   4:timers.c      ****  * All Rights Reserved
   5:timers.c      ****  * UNPUBLISHED, LICENSED SOFTWARE.
   6:timers.c      ****  *
   7:timers.c      ****  * CONFIDENTIAL AND PROPRIETARY INFORMATION
   8:timers.c      ****  * WHICH IS THE PROPERTY OF your company.
   9:timers.c      ****  *
  10:timers.c      ****  * ========================================
  11:timers.c      **** */
  12:timers.c      **** 
  13:timers.c      **** /* [] END OF FILE */
  14:timers.c      **** 
  15:timers.c      **** #include "timers.h"
  16:timers.c      **** #include "project.h"
  17:timers.c      **** //#include "job_queue.h"
  18:timers.c      **** 
  19:timers.c      **** 
  20:timers.c      **** 
  21:timers.c      **** 
  22:timers.c      **** 
  23:timers.c      **** 
  24:timers.c      **** CY_ISR(ISR_pump_timer_1_handler)
  25:timers.c      **** {
  26:timers.c      ****     pump_timer_1_Stop();
  27:timers.c      ****     //job_enqueue_timer(stop pump 1)
  28:timers.c      ****     
  29:timers.c      **** }
  30:timers.c      **** CY_ISR(ISR_pump_timer_2_handler)
ARM GAS  C:\Users\Runeg\AppData\Local\Temp\ccYl0MIo.s 			page 2


  31:timers.c      **** {
  32:timers.c      ****     pump_timer_2_Stop();   
  33:timers.c      **** }
  34:timers.c      **** CY_ISR(ISR_pump_timer_3_handler)
  35:timers.c      **** {
  36:timers.c      ****     pump_timer_3_Stop();   
  37:timers.c      **** }
  38:timers.c      **** CY_ISR(ISR_check_weight_timer_handler)
  39:timers.c      **** {
  28              		.loc 1 39 0
  29              		.cfi_startproc
  30              		@ args = 0, pretend = 0, frame = 0
  31              		@ frame_needed = 0, uses_anonymous_args = 0
  32              		@ link register save eliminated.
  33 0000 7047     		bx	lr
  34              		.cfi_endproc
  35              	.LFE67:
  36              		.size	ISR_check_weight_timer_handler, .-ISR_check_weight_timer_handler
  37 0002 00BF     		.section	.text.ISR_pump_timer_1_handler,"ax",%progbits
  38              		.align	2
  39              		.global	ISR_pump_timer_1_handler
  40              		.thumb
  41              		.thumb_func
  42              		.type	ISR_pump_timer_1_handler, %function
  43              	ISR_pump_timer_1_handler:
  44              	.LFB64:
  25:timers.c      ****     pump_timer_1_Stop();
  45              		.loc 1 25 0
  46              		.cfi_startproc
  47              		@ args = 0, pretend = 0, frame = 0
  48              		@ frame_needed = 0, uses_anonymous_args = 0
  25:timers.c      ****     pump_timer_1_Stop();
  49              		.loc 1 25 0
  50 0000 08B5     		push	{r3, lr}
  51              		.cfi_def_cfa_offset 8
  52              		.cfi_offset 3, -8
  53              		.cfi_offset 14, -4
  26:timers.c      ****     //job_enqueue_timer(stop pump 1)
  54              		.loc 1 26 0
  55 0002 FFF7FEFF 		bl	pump_timer_1_Stop
  56              	.LVL0:
  57 0006 08BD     		pop	{r3, pc}
  58              		.cfi_endproc
  59              	.LFE64:
  60              		.size	ISR_pump_timer_1_handler, .-ISR_pump_timer_1_handler
  61              		.section	.text.ISR_pump_timer_2_handler,"ax",%progbits
  62              		.align	2
  63              		.global	ISR_pump_timer_2_handler
  64              		.thumb
  65              		.thumb_func
  66              		.type	ISR_pump_timer_2_handler, %function
  67              	ISR_pump_timer_2_handler:
  68              	.LFB65:
  31:timers.c      ****     pump_timer_2_Stop();   
  69              		.loc 1 31 0
  70              		.cfi_startproc
  71              		@ args = 0, pretend = 0, frame = 0
ARM GAS  C:\Users\Runeg\AppData\Local\Temp\ccYl0MIo.s 			page 3


  72              		@ frame_needed = 0, uses_anonymous_args = 0
  73 0000 08B5     		push	{r3, lr}
  74              		.cfi_def_cfa_offset 8
  75              		.cfi_offset 3, -8
  76              		.cfi_offset 14, -4
  32:timers.c      **** }
  77              		.loc 1 32 0
  78 0002 FFF7FEFF 		bl	pump_timer_2_Stop
  79              	.LVL1:
  80 0006 08BD     		pop	{r3, pc}
  81              		.cfi_endproc
  82              	.LFE65:
  83              		.size	ISR_pump_timer_2_handler, .-ISR_pump_timer_2_handler
  84              		.section	.text.ISR_pump_timer_3_handler,"ax",%progbits
  85              		.align	2
  86              		.global	ISR_pump_timer_3_handler
  87              		.thumb
  88              		.thumb_func
  89              		.type	ISR_pump_timer_3_handler, %function
  90              	ISR_pump_timer_3_handler:
  91              	.LFB66:
  35:timers.c      ****     pump_timer_3_Stop();   
  92              		.loc 1 35 0
  93              		.cfi_startproc
  94              		@ args = 0, pretend = 0, frame = 0
  95              		@ frame_needed = 0, uses_anonymous_args = 0
  96 0000 08B5     		push	{r3, lr}
  97              		.cfi_def_cfa_offset 8
  98              		.cfi_offset 3, -8
  99              		.cfi_offset 14, -4
  36:timers.c      **** }
 100              		.loc 1 36 0
 101 0002 FFF7FEFF 		bl	pump_timer_3_Stop
 102              	.LVL2:
 103 0006 08BD     		pop	{r3, pc}
 104              		.cfi_endproc
 105              	.LFE66:
 106              		.size	ISR_pump_timer_3_handler, .-ISR_pump_timer_3_handler
 107              		.section	.text.init_timers,"ax",%progbits
 108              		.align	2
 109              		.global	init_timers
 110              		.thumb
 111              		.thumb_func
 112              		.type	init_timers, %function
 113              	init_timers:
 114              	.LFB68:
  40:timers.c      ****     
  41:timers.c      **** }
  42:timers.c      **** 
  43:timers.c      **** 
  44:timers.c      **** void init_timers()
  45:timers.c      **** {
 115              		.loc 1 45 0
 116              		.cfi_startproc
 117              		@ args = 0, pretend = 0, frame = 0
 118              		@ frame_needed = 0, uses_anonymous_args = 0
 119 0000 08B5     		push	{r3, lr}
ARM GAS  C:\Users\Runeg\AppData\Local\Temp\ccYl0MIo.s 			page 4


 120              		.cfi_def_cfa_offset 8
 121              		.cfi_offset 3, -8
 122              		.cfi_offset 14, -4
  46:timers.c      ****     CyGlobalIntEnable; /* Enable global interrupts. */
 123              		.loc 1 46 0
 124              		.syntax unified
 125              	@ 46 "timers.c" 1
 126 0002 62B6     		CPSIE   i
 127              	@ 0 "" 2
  47:timers.c      ****     isr_pump_timer_1_StartEx(ISR_pump_timer_1_handler);
 128              		.loc 1 47 0
 129              		.thumb
 130              		.syntax unified
 131 0004 0648     		ldr	r0, .L10
 132 0006 FFF7FEFF 		bl	isr_pump_timer_1_StartEx
 133              	.LVL3:
  48:timers.c      ****     isr_pump_timer_2_StartEx(ISR_pump_timer_2_handler);
 134              		.loc 1 48 0
 135 000a 0648     		ldr	r0, .L10+4
 136 000c FFF7FEFF 		bl	isr_pump_timer_2_StartEx
 137              	.LVL4:
  49:timers.c      ****     isr_pump_timer_3_StartEx(ISR_pump_timer_3_handler);
 138              		.loc 1 49 0
 139 0010 0548     		ldr	r0, .L10+8
 140 0012 FFF7FEFF 		bl	isr_pump_timer_3_StartEx
 141              	.LVL5:
  50:timers.c      ****     isr_check_weight_timer_StartEx(ISR_check_weight_timer_handler);
 142              		.loc 1 50 0
 143 0016 0548     		ldr	r0, .L10+12
 144 0018 FFF7FEFF 		bl	isr_check_weight_timer_StartEx
 145              	.LVL6:
 146 001c 08BD     		pop	{r3, pc}
 147              	.L11:
 148 001e 00BF     		.align	2
 149              	.L10:
 150 0020 00000000 		.word	ISR_pump_timer_1_handler
 151 0024 00000000 		.word	ISR_pump_timer_2_handler
 152 0028 00000000 		.word	ISR_pump_timer_3_handler
 153 002c 00000000 		.word	ISR_check_weight_timer_handler
 154              		.cfi_endproc
 155              	.LFE68:
 156              		.size	init_timers, .-init_timers
 157              		.section	.text.set_period,"ax",%progbits
 158              		.align	2
 159              		.global	set_period
 160              		.thumb
 161              		.thumb_func
 162              		.type	set_period, %function
 163              	set_period:
 164              	.LFB69:
  51:timers.c      ****     
  52:timers.c      ****     return;
  53:timers.c      **** }
  54:timers.c      **** 
  55:timers.c      **** 
  56:timers.c      **** void set_period(enum dmc_pump_timer timer, uint16_t period)
  57:timers.c      **** {
ARM GAS  C:\Users\Runeg\AppData\Local\Temp\ccYl0MIo.s 			page 5


 165              		.loc 1 57 0
 166              		.cfi_startproc
 167              		@ args = 0, pretend = 0, frame = 0
 168              		@ frame_needed = 0, uses_anonymous_args = 0
 169              	.LVL7:
 170 0000 08B5     		push	{r3, lr}
 171              		.cfi_def_cfa_offset 8
 172              		.cfi_offset 3, -8
 173              		.cfi_offset 14, -4
  58:timers.c      ****     switch (timer)
 174              		.loc 1 58 0
 175 0002 0228     		cmp	r0, #2
 176 0004 09D0     		beq	.L14
 177 0006 0328     		cmp	r0, #3
 178 0008 0DD0     		beq	.L15
 179 000a 0128     		cmp	r0, #1
 180 000c 10D1     		bne	.L12
  59:timers.c      ****     {
  60:timers.c      ****     case PUMP_TIMER_1:
  61:timers.c      ****     {
  62:timers.c      ****         pump_timer_1_WritePeriod(period);
 181              		.loc 1 62 0
 182 000e 0846     		mov	r0, r1
 183              	.LVL8:
 184 0010 FFF7FEFF 		bl	pump_timer_1_WritePeriod
 185              	.LVL9:
  63:timers.c      ****         pump_timer_1_Start();
 186              		.loc 1 63 0
 187 0014 FFF7FEFF 		bl	pump_timer_1_Start
 188              	.LVL10:
  64:timers.c      ****         break;
 189              		.loc 1 64 0
 190 0018 08BD     		pop	{r3, pc}
 191              	.LVL11:
 192              	.L14:
  65:timers.c      ****     }
  66:timers.c      ****     case PUMP_TIMER_2:
  67:timers.c      ****     {
  68:timers.c      ****         pump_timer_2_WritePeriod(period);
 193              		.loc 1 68 0
 194 001a 0846     		mov	r0, r1
 195              	.LVL12:
 196 001c FFF7FEFF 		bl	pump_timer_2_WritePeriod
 197              	.LVL13:
  69:timers.c      ****         pump_timer_2_Start();
 198              		.loc 1 69 0
 199 0020 FFF7FEFF 		bl	pump_timer_2_Start
 200              	.LVL14:
  70:timers.c      ****         break;
 201              		.loc 1 70 0
 202 0024 08BD     		pop	{r3, pc}
 203              	.LVL15:
 204              	.L15:
  71:timers.c      ****     }
  72:timers.c      ****     case PUMP_TIMER_3:
  73:timers.c      ****     {
  74:timers.c      ****         pump_timer_3_WritePeriod(period);
ARM GAS  C:\Users\Runeg\AppData\Local\Temp\ccYl0MIo.s 			page 6


 205              		.loc 1 74 0
 206 0026 0846     		mov	r0, r1
 207              	.LVL16:
 208 0028 FFF7FEFF 		bl	pump_timer_3_WritePeriod
 209              	.LVL17:
  75:timers.c      ****         pump_timer_3_Start();
 210              		.loc 1 75 0
 211 002c FFF7FEFF 		bl	pump_timer_3_Start
 212              	.LVL18:
 213              	.L12:
 214 0030 08BD     		pop	{r3, pc}
 215              		.cfi_endproc
 216              	.LFE69:
 217              		.size	set_period, .-set_period
 218 0032 00BF     		.text
 219              	.Letext0:
 220              		.file 2 "c:\\program files (x86)\\cypress\\psoc creator\\4.4\\psoc creator\\import\\gnu\\arm\\5.4.
 221              		.file 3 "c:\\program files (x86)\\cypress\\psoc creator\\4.4\\psoc creator\\import\\gnu\\arm\\5.4.
 222              		.file 4 "Generated_Source\\PSoC5/pump_timer_1.h"
 223              		.file 5 "Generated_Source\\PSoC5/pump_timer_2.h"
 224              		.file 6 "Generated_Source\\PSoC5/pump_timer_3.h"
 225              		.file 7 "Generated_Source\\PSoC5/isr_pump_timer_1.h"
 226              		.file 8 "Generated_Source\\PSoC5/isr_pump_timer_2.h"
 227              		.file 9 "Generated_Source\\PSoC5/isr_pump_timer_3.h"
 228              		.file 10 "Generated_Source\\PSoC5/isr_check_weight_timer.h"
 229              		.file 11 "timers.h"
 230              		.file 12 "Generated_Source\\PSoC5/core_cm3.h"