ARM GAS  C:\Users\Runeg\AppData\Local\Temp\ccfz4i9m.s 			page 1


   1              		.syntax unified
   2              		.cpu cortex-m3
   3              		.fpu softvfp
   4              		.eabi_attribute 20, 1
   5              		.eabi_attribute 21, 1
   6              		.eabi_attribute 23, 3
   7              		.eabi_attribute 24, 1
   8              		.eabi_attribute 25, 1
   9              		.eabi_attribute 26, 1
  10              		.eabi_attribute 30, 1
  11              		.eabi_attribute 34, 1
  12              		.eabi_attribute 18, 4
  13              		.thumb
  14              		.syntax unified
  15              		.file	"weight.c"
  16              		.text
  17              	.Ltext0:
  18              		.cfi_sections	.debug_frame
  19              		.section	.text.weight_init,"ax",%progbits
  20              		.align	2
  21              		.global	weight_init
  22              		.thumb
  23              		.thumb_func
  24              		.type	weight_init, %function
  25              	weight_init:
  26              	.LFB63:
  27              		.file 1 "weight.c"
   1:weight.c      **** /* ========================================
   2:weight.c      ****  *
   3:weight.c      ****  * Copyright YOUR COMPANY, THE YEAR
   4:weight.c      ****  * All Rights Reserved
   5:weight.c      ****  * UNPUBLISHED, LICENSED SOFTWARE.
   6:weight.c      ****  *
   7:weight.c      ****  * CONFIDENTIAL AND PROPRIETARY INFORMATION
   8:weight.c      ****  * WHICH IS THE PROPERTY OF your company.
   9:weight.c      ****  *
  10:weight.c      ****  * ========================================
  11:weight.c      **** */
  12:weight.c      **** 
  13:weight.c      **** /* [] END OF FILE */
  14:weight.c      **** 
  15:weight.c      **** 
  16:weight.c      ****     #include "weight.h"
  17:weight.c      ****     #include "project.h"
  18:weight.c      ****     
  19:weight.c      ****     struct weight* current_weight;
  20:weight.c      ****     
  21:weight.c      ****     static int NUM_OF_MEASUREMENTS = 1;
  22:weight.c      ****     
  23:weight.c      ****     enum WEIGHT_DIVIDE{
  24:weight.c      ****         WEIGHT_1_DIVIDER = 0,
  25:weight.c      ****         WEIGHT_2_DIVIDER = 0,
  26:weight.c      ****         WEIGHT_3_DIVIDER = 0,
  27:weight.c      ****     };
  28:weight.c      ****     
  29:weight.c      ****     enum WEIGHT_MIN{
  30:weight.c      ****         WEIGHT_1_MIN = 0,
ARM GAS  C:\Users\Runeg\AppData\Local\Temp\ccfz4i9m.s 			page 2


  31:weight.c      ****         WEIGHT_2_MIN = 0,
  32:weight.c      ****         WEIGHT_3_MIN = 0,
  33:weight.c      ****         
  34:weight.c      ****     };
  35:weight.c      ****     enum  WEIGHT_MAX{
  36:weight.c      ****        WEIGHT_1_MAX = 0,
  37:weight.c      ****        WEIGHT_2_MAX = 0,
  38:weight.c      ****        WEIGHT_3_MAX = 0,        
  39:weight.c      ****     };
  40:weight.c      ****     
  41:weight.c      ****    
  42:weight.c      ****     
  43:weight.c      ****     void weight_init()
  44:weight.c      ****     {
  28              		.loc 1 44 0
  29              		.cfi_startproc
  30              		@ args = 0, pretend = 0, frame = 0
  31              		@ frame_needed = 0, uses_anonymous_args = 0
  32 0000 08B5     		push	{r3, lr}
  33              		.cfi_def_cfa_offset 8
  34              		.cfi_offset 3, -8
  35              		.cfi_offset 14, -4
  45:weight.c      ****     weight_selector_Init();
  36              		.loc 1 45 0
  37 0002 FFF7FEFF 		bl	weight_selector_Start
  38              	.LVL0:
  46:weight.c      ****     weight_adc_Start();
  39              		.loc 1 46 0
  40 0006 FFF7FEFF 		bl	weight_adc_Start
  41              	.LVL1:
  47:weight.c      ****     weight_adc_StartConvert();
  42              		.loc 1 47 0
  43 000a FFF7FEFF 		bl	weight_adc_StartConvert
  44              	.LVL2:
  48:weight.c      ****            
  49:weight.c      ****     weight1.adc_divider = WEIGHT_1_DIVIDER;
  45              		.loc 1 49 0
  46 000e 0748     		ldr	r0, .L3
  47 0010 0023     		movs	r3, #0
  48 0012 8360     		str	r3, [r0, #8]	@ float
  50:weight.c      ****     weight2.adc_divider = WEIGHT_2_DIVIDER;
  49              		.loc 1 50 0
  50 0014 0649     		ldr	r1, .L3+4
  51 0016 8B60     		str	r3, [r1, #8]	@ float
  51:weight.c      ****     weight3.adc_divider = WEIGHT_3_DIVIDER;
  52              		.loc 1 51 0
  53 0018 064A     		ldr	r2, .L3+8
  54 001a 9360     		str	r3, [r2, #8]	@ float
  52:weight.c      ****     
  53:weight.c      ****     weight1.min = WEIGHT_1_MIN;
  55              		.loc 1 53 0
  56 001c 0023     		movs	r3, #0
  57 001e 8381     		strh	r3, [r0, #12]	@ movhi
  54:weight.c      ****     weight2.min = WEIGHT_2_MIN;
  58              		.loc 1 54 0
  59 0020 8B81     		strh	r3, [r1, #12]	@ movhi
  55:weight.c      ****     weight3.min = WEIGHT_3_MIN;
ARM GAS  C:\Users\Runeg\AppData\Local\Temp\ccfz4i9m.s 			page 3


  60              		.loc 1 55 0
  61 0022 9381     		strh	r3, [r2, #12]	@ movhi
  56:weight.c      ****     
  57:weight.c      ****     weight1.max = WEIGHT_1_MAX;
  62              		.loc 1 57 0
  63 0024 C381     		strh	r3, [r0, #14]	@ movhi
  58:weight.c      ****     weight2.max = WEIGHT_2_MAX;
  64              		.loc 1 58 0
  65 0026 CB81     		strh	r3, [r1, #14]	@ movhi
  59:weight.c      ****     weight3.max = WEIGHT_3_MAX;
  66              		.loc 1 59 0
  67 0028 D381     		strh	r3, [r2, #14]	@ movhi
  68 002a 08BD     		pop	{r3, pc}
  69              	.L4:
  70              		.align	2
  71              	.L3:
  72 002c 00000000 		.word	weight1
  73 0030 00000000 		.word	weight2
  74 0034 00000000 		.word	weight3
  75              		.cfi_endproc
  76              	.LFE63:
  77              		.size	weight_init, .-weight_init
  78              		.section	.text.set_current_weight,"ax",%progbits
  79              		.align	2
  80              		.global	set_current_weight
  81              		.thumb
  82              		.thumb_func
  83              		.type	set_current_weight, %function
  84              	set_current_weight:
  85              	.LFB64:
  60:weight.c      ****     }
  61:weight.c      ****     
  62:weight.c      **** void set_current_weight(enum dmc_weight_number weight_number)
  63:weight.c      **** {
  86              		.loc 1 63 0
  87              		.cfi_startproc
  88              		@ args = 0, pretend = 0, frame = 0
  89              		@ frame_needed = 0, uses_anonymous_args = 0
  90              	.LVL3:
  91 0000 08B5     		push	{r3, lr}
  92              		.cfi_def_cfa_offset 8
  93              		.cfi_offset 3, -8
  94              		.cfi_offset 14, -4
  64:weight.c      ****     switch(weight_number)
  95              		.loc 1 64 0
  96 0002 0228     		cmp	r0, #2
  97 0004 0AD0     		beq	.L7
  98 0006 0328     		cmp	r0, #3
  99 0008 0FD0     		beq	.L8
 100 000a 0128     		cmp	r0, #1
 101 000c 14D1     		bne	.L11
  65:weight.c      ****     {
  66:weight.c      ****         case WEIGHT_1:
  67:weight.c      ****     {
  68:weight.c      ****         current_weight = &weight1;
 102              		.loc 1 68 0
 103 000e 0C4A     		ldr	r2, .L13
ARM GAS  C:\Users\Runeg\AppData\Local\Temp\ccfz4i9m.s 			page 4


 104 0010 0C4B     		ldr	r3, .L13+4
 105 0012 1A60     		str	r2, [r3]
  69:weight.c      ****         weight_selector_Select(0);
 106              		.loc 1 69 0
 107 0014 0020     		movs	r0, #0
 108              	.LVL4:
 109 0016 FFF7FEFF 		bl	weight_selector_Select
 110              	.LVL5:
  70:weight.c      ****         break;
 111              		.loc 1 70 0
 112 001a 08BD     		pop	{r3, pc}
 113              	.LVL6:
 114              	.L7:
  71:weight.c      ****     }
  72:weight.c      ****         case WEIGHT_2:
  73:weight.c      ****     {
  74:weight.c      ****         current_weight = &weight2;
 115              		.loc 1 74 0
 116 001c 0A4A     		ldr	r2, .L13+8
 117 001e 094B     		ldr	r3, .L13+4
 118 0020 1A60     		str	r2, [r3]
  75:weight.c      ****         weight_selector_Select(1);
 119              		.loc 1 75 0
 120 0022 0120     		movs	r0, #1
 121              	.LVL7:
 122 0024 FFF7FEFF 		bl	weight_selector_Select
 123              	.LVL8:
  76:weight.c      ****         break;
 124              		.loc 1 76 0
 125 0028 08BD     		pop	{r3, pc}
 126              	.LVL9:
 127              	.L8:
  77:weight.c      ****     }
  78:weight.c      ****         case WEIGHT_3:
  79:weight.c      ****     {
  80:weight.c      ****         current_weight = &weight3;
 128              		.loc 1 80 0
 129 002a 084A     		ldr	r2, .L13+12
 130 002c 054B     		ldr	r3, .L13+4
 131 002e 1A60     		str	r2, [r3]
  81:weight.c      ****         weight_selector_Select(2);
 132              		.loc 1 81 0
 133 0030 0220     		movs	r0, #2
 134              	.LVL10:
 135 0032 FFF7FEFF 		bl	weight_selector_Select
 136              	.LVL11:
  82:weight.c      ****         break;
 137              		.loc 1 82 0
 138 0036 08BD     		pop	{r3, pc}
 139              	.LVL12:
 140              	.L11:
  83:weight.c      ****     }
  84:weight.c      ****     default: current_weight = NULL; 
 141              		.loc 1 84 0
 142 0038 0022     		movs	r2, #0
 143 003a 024B     		ldr	r3, .L13+4
 144 003c 1A60     		str	r2, [r3]
ARM GAS  C:\Users\Runeg\AppData\Local\Temp\ccfz4i9m.s 			page 5


 145 003e 08BD     		pop	{r3, pc}
 146              	.L14:
 147              		.align	2
 148              	.L13:
 149 0040 00000000 		.word	weight1
 150 0044 00000000 		.word	current_weight
 151 0048 00000000 		.word	weight2
 152 004c 00000000 		.word	weight3
 153              		.cfi_endproc
 154              	.LFE64:
 155              		.size	set_current_weight, .-set_current_weight
 156              		.section	.text.measure_weight_value,"ax",%progbits
 157              		.align	2
 158              		.global	measure_weight_value
 159              		.thumb
 160              		.thumb_func
 161              		.type	measure_weight_value, %function
 162              	measure_weight_value:
 163              	.LFB65:
  85:weight.c      ****     }
  86:weight.c      **** }
  87:weight.c      **** 
  88:weight.c      **** 
  89:weight.c      ****     
  90:weight.c      **** uint16_t measure_weight_value(enum dmc_weight_number weight_number)
  91:weight.c      **** {
 164              		.loc 1 91 0
 165              		.cfi_startproc
 166              		@ args = 0, pretend = 0, frame = 0
 167              		@ frame_needed = 0, uses_anonymous_args = 0
 168              	.LVL13:
 169 0000 38B5     		push	{r3, r4, r5, lr}
 170              		.cfi_def_cfa_offset 16
 171              		.cfi_offset 3, -16
 172              		.cfi_offset 4, -12
 173              		.cfi_offset 5, -8
 174              		.cfi_offset 14, -4
  92:weight.c      ****     set_current_weight(weight_number);
 175              		.loc 1 92 0
 176 0002 FFF7FEFF 		bl	set_current_weight
 177              	.LVL14:
 178              	.LBB2:
  93:weight.c      ****     
  94:weight.c      ****     uint32_t result;
  95:weight.c      ****     
  96:weight.c      ****     for (int i = 0; i < NUM_OF_MEASUREMENTS; i++)
 179              		.loc 1 96 0
 180 0006 0024     		movs	r4, #0
 181 0008 07E0     		b	.L16
 182              	.LVL15:
 183              	.L18:
  97:weight.c      ****     {
  98:weight.c      ****         
  99:weight.c      ****         if (weight_adc_IsEndConversion(weight_adc_WAIT_FOR_RESULT))
 184              		.loc 1 99 0
 185 000a 0020     		movs	r0, #0
 186 000c FFF7FEFF 		bl	weight_adc_IsEndConversion
ARM GAS  C:\Users\Runeg\AppData\Local\Temp\ccfz4i9m.s 			page 6


 187              	.LVL16:
 188 0010 10B1     		cbz	r0, .L17
 100:weight.c      ****             {
 101:weight.c      ****                 result += weight_adc_GetResult16();
 189              		.loc 1 101 0
 190 0012 FFF7FEFF 		bl	weight_adc_GetResult16
 191              	.LVL17:
 192 0016 0544     		add	r5, r5, r0
 193              	.LVL18:
 194              	.L17:
  96:weight.c      ****     {
 195              		.loc 1 96 0 discriminator 2
 196 0018 0134     		adds	r4, r4, #1
 197              	.LVL19:
 198              	.L16:
  96:weight.c      ****     {
 199              		.loc 1 96 0 is_stmt 0 discriminator 1
 200 001a 002C     		cmp	r4, #0
 201 001c F5DD     		ble	.L18
 202              	.LBE2:
 102:weight.c      ****             }
 103:weight.c      ****     }
 104:weight.c      ****     return result/NUM_OF_MEASUREMENTS;
 105:weight.c      **** 
 106:weight.c      **** };
 203              		.loc 1 106 0 is_stmt 1
 204 001e A8B2     		uxth	r0, r5
 205 0020 38BD     		pop	{r3, r4, r5, pc}
 206              		.cfi_endproc
 207              	.LFE65:
 208              		.size	measure_weight_value, .-measure_weight_value
 209              		.comm	current_weight,4,4
 210              		.comm	weight3,16,4
 211              		.comm	weight2,16,4
 212              		.comm	weight1,16,4
 213 0022 00BF     		.text
 214              	.Letext0:
 215              		.file 2 "c:\\program files (x86)\\cypress\\psoc creator\\4.4\\psoc creator\\import\\gnu\\arm\\5.4.
 216              		.file 3 "c:\\program files (x86)\\cypress\\psoc creator\\4.4\\psoc creator\\import\\gnu\\arm\\5.4.
 217              		.file 4 "weight.h"
 218              		.file 5 "Generated_Source\\PSoC5/core_cm3.h"
 219              		.file 6 "Generated_Source\\PSoC5/weight_selector.h"
 220              		.file 7 "Generated_Source\\PSoC5/weight_adc.h"